
bin/out_config_00000.riscv:     file format elf64-littleriscv


Disassembly of section .text.init:

0000000080000000 <_start>:
    80000000:	00091117          	auipc	sp,0x91
    80000004:	00010113          	mv	sp,sp
    80000008:	6082                	ld	ra,0(sp)
    8000000a:	61a2                	ld	gp,8(sp)
    8000000c:	6242                	ld	tp,16(sp)
    8000000e:	62e2                	ld	t0,24(sp)
    80000010:	7302                	ld	t1,32(sp)
    80000012:	73a2                	ld	t2,40(sp)
    80000014:	7442                	ld	s0,48(sp)
    80000016:	74e2                	ld	s1,56(sp)
    80000018:	6506                	ld	a0,64(sp)
    8000001a:	65a6                	ld	a1,72(sp)
    8000001c:	6646                	ld	a2,80(sp)
    8000001e:	66e6                	ld	a3,88(sp)
    80000020:	7706                	ld	a4,96(sp)
    80000022:	77a6                	ld	a5,104(sp)
    80000024:	7846                	ld	a6,112(sp)
    80000026:	78e6                	ld	a7,120(sp)
    80000028:	690a                	ld	s2,128(sp)
    8000002a:	69aa                	ld	s3,136(sp)
    8000002c:	6a4a                	ld	s4,144(sp)
    8000002e:	6aea                	ld	s5,152(sp)
    80000030:	7b0a                	ld	s6,160(sp)
    80000032:	7baa                	ld	s7,168(sp)
    80000034:	7c4a                	ld	s8,176(sp)
    80000036:	7cea                	ld	s9,184(sp)
    80000038:	6d0e                	ld	s10,192(sp)
    8000003a:	6dae                	ld	s11,200(sp)
    8000003c:	6e4e                	ld	t3,208(sp)
    8000003e:	6eee                	ld	t4,216(sp)
    80000040:	7f0e                	ld	t5,224(sp)
    80000042:	7fae                	ld	t6,232(sp)
    80000044:	62f9                	lui	t0,0x1e
    80000046:	3002a073          	csrs	mstatus,t0
    8000004a:	4285                	li	t0,1
    8000004c:	02fe                	slli	t0,t0,0x1f
    8000004e:	0002d863          	bgez	t0,8000005e <_start+0x5e>
    80000052:	4505                	li	a0,1
    80000054:	00098297          	auipc	t0,0x98
    80000058:	faa2a623          	sw	a0,-84(t0) # 80098000 <tohost>
    8000005c:	bfdd                	j	80000052 <_start+0x52>
    8000005e:	00000297          	auipc	t0,0x0
    80000062:	09228293          	addi	t0,t0,146 # 800000f0 <_start+0xf0>
    80000066:	30529073          	csrw	mtvec,t0
    8000006a:	00301073          	fscsr	zero
    8000006e:	f2008053          	fmv.d.x	ft0,ra
    80000072:	f20080d3          	fmv.d.x	ft1,ra
    80000076:	f2010153          	fmv.d.x	ft2,sp
    8000007a:	f20181d3          	fmv.d.x	ft3,gp
    8000007e:	f2020253          	fmv.d.x	ft4,tp
    80000082:	f20282d3          	fmv.d.x	ft5,t0
    80000086:	f2030353          	fmv.d.x	ft6,t1
    8000008a:	f20383d3          	fmv.d.x	ft7,t2
    8000008e:	f2040453          	fmv.d.x	fs0,s0
    80000092:	f20484d3          	fmv.d.x	fs1,s1
    80000096:	f2050553          	fmv.d.x	fa0,a0
    8000009a:	f20585d3          	fmv.d.x	fa1,a1
    8000009e:	f2060653          	fmv.d.x	fa2,a2
    800000a2:	f20686d3          	fmv.d.x	fa3,a3
    800000a6:	f2070753          	fmv.d.x	fa4,a4
    800000aa:	f20787d3          	fmv.d.x	fa5,a5
    800000ae:	f2080853          	fmv.d.x	fa6,a6
    800000b2:	f20888d3          	fmv.d.x	fa7,a7
    800000b6:	f2090953          	fmv.d.x	fs2,s2
    800000ba:	f20989d3          	fmv.d.x	fs3,s3
    800000be:	f20a0a53          	fmv.d.x	fs4,s4
    800000c2:	f20a8ad3          	fmv.d.x	fs5,s5
    800000c6:	f20b0b53          	fmv.d.x	fs6,s6
    800000ca:	f20b8bd3          	fmv.d.x	fs7,s7
    800000ce:	f20c0c53          	fmv.d.x	fs8,s8
    800000d2:	f20c8cd3          	fmv.d.x	fs9,s9
    800000d6:	f20d0d53          	fmv.d.x	fs10,s10
    800000da:	f20d8dd3          	fmv.d.x	fs11,s11
    800000de:	f20e0e53          	fmv.d.x	ft8,t3
    800000e2:	f20e8ed3          	fmv.d.x	ft9,t4
    800000e6:	f20f0f53          	fmv.d.x	ft10,t5
    800000ea:	f20f8fd3          	fmv.d.x	ft11,t6
    800000ee:	0001                	nop
    800000f0:	00000297          	auipc	t0,0x0
    800000f4:	03428293          	addi	t0,t0,52 # 80000124 <trap_entry>
    800000f8:	30529073          	csrw	mtvec,t0
    800000fc:	00099217          	auipc	tp,0x99
    80000100:	9a720213          	addi	tp,tp,-1625 # 80098aa3 <_end+0x3f>
    80000104:	fc027213          	andi	tp,tp,-64
    80000108:	f1402573          	csrr	a0,mhartid
    8000010c:	4585                	li	a1,1
    8000010e:	00b57063          	bgeu	a0,a1,8000010e <_start+0x10e>
    80000112:	01151613          	slli	a2,a0,0x11
    80000116:	9232                	add	tp,tp,a2
    80000118:	00150113          	addi	sp,a0,1
    8000011c:	0146                	slli	sp,sp,0x11
    8000011e:	9112                	add	sp,sp,tp
    80000120:	2400006f          	j	80000360 <main>

0000000080000124 <trap_entry>:
    80000124:	716d                	addi	sp,sp,-272
    80000126:	e406                	sd	ra,8(sp)
    80000128:	e80a                	sd	sp,16(sp)
    8000012a:	ec0e                	sd	gp,24(sp)
    8000012c:	f012                	sd	tp,32(sp)
    8000012e:	f416                	sd	t0,40(sp)
    80000130:	f81a                	sd	t1,48(sp)
    80000132:	fc1e                	sd	t2,56(sp)
    80000134:	e0a2                	sd	s0,64(sp)
    80000136:	e4a6                	sd	s1,72(sp)
    80000138:	e8aa                	sd	a0,80(sp)
    8000013a:	ecae                	sd	a1,88(sp)
    8000013c:	f0b2                	sd	a2,96(sp)
    8000013e:	f4b6                	sd	a3,104(sp)
    80000140:	f8ba                	sd	a4,112(sp)
    80000142:	fcbe                	sd	a5,120(sp)
    80000144:	e142                	sd	a6,128(sp)
    80000146:	e546                	sd	a7,136(sp)
    80000148:	e94a                	sd	s2,144(sp)
    8000014a:	ed4e                	sd	s3,152(sp)
    8000014c:	f152                	sd	s4,160(sp)
    8000014e:	f556                	sd	s5,168(sp)
    80000150:	f95a                	sd	s6,176(sp)
    80000152:	fd5e                	sd	s7,184(sp)
    80000154:	e1e2                	sd	s8,192(sp)
    80000156:	e5e6                	sd	s9,200(sp)
    80000158:	e9ea                	sd	s10,208(sp)
    8000015a:	edee                	sd	s11,216(sp)
    8000015c:	f1f2                	sd	t3,224(sp)
    8000015e:	f5f6                	sd	t4,232(sp)
    80000160:	f9fa                	sd	t5,240(sp)
    80000162:	fdfe                	sd	t6,248(sp)
    80000164:	34202573          	csrr	a0,mcause
    80000168:	341025f3          	csrr	a1,mepc
    8000016c:	0005d603          	lhu	a2,0(a1)
    80000170:	8a0d                	andi	a2,a2,3
    80000172:	428d                	li	t0,3
    80000174:	00561563          	bne	a2,t0,8000017e <inst16>

0000000080000178 <inst32>:
    80000178:	0591                	addi	a1,a1,4
    8000017a:	00000363          	beqz	zero,80000180 <inst16+0x2>

000000008000017e <inst16>:
    8000017e:	0589                	addi	a1,a1,2
    80000180:	34159073          	csrw	mepc,a1
    80000184:	6289                	lui	t0,0x2
    80000186:	8002829b          	addiw	t0,t0,-2048 # 1800 <_tbss_end+0x1800>
    8000018a:	3002a073          	csrs	mstatus,t0
    8000018e:	60a2                	ld	ra,8(sp)
    80000190:	6142                	ld	sp,16(sp)
    80000192:	61e2                	ld	gp,24(sp)
    80000194:	7202                	ld	tp,32(sp)
    80000196:	72a2                	ld	t0,40(sp)
    80000198:	7342                	ld	t1,48(sp)
    8000019a:	73e2                	ld	t2,56(sp)
    8000019c:	6406                	ld	s0,64(sp)
    8000019e:	64a6                	ld	s1,72(sp)
    800001a0:	6546                	ld	a0,80(sp)
    800001a2:	65e6                	ld	a1,88(sp)
    800001a4:	7606                	ld	a2,96(sp)
    800001a6:	76a6                	ld	a3,104(sp)
    800001a8:	7746                	ld	a4,112(sp)
    800001aa:	77e6                	ld	a5,120(sp)
    800001ac:	680a                	ld	a6,128(sp)
    800001ae:	68aa                	ld	a7,136(sp)
    800001b0:	694a                	ld	s2,144(sp)
    800001b2:	69ea                	ld	s3,152(sp)
    800001b4:	7a0a                	ld	s4,160(sp)
    800001b6:	7aaa                	ld	s5,168(sp)
    800001b8:	7b4a                	ld	s6,176(sp)
    800001ba:	7bea                	ld	s7,184(sp)
    800001bc:	6c0e                	ld	s8,192(sp)
    800001be:	6cae                	ld	s9,200(sp)
    800001c0:	6d4e                	ld	s10,208(sp)
    800001c2:	6dee                	ld	s11,216(sp)
    800001c4:	7e0e                	ld	t3,224(sp)
    800001c6:	7eae                	ld	t4,232(sp)
    800001c8:	7f4e                	ld	t5,240(sp)
    800001ca:	7fee                	ld	t6,248(sp)
    800001cc:	6151                	addi	sp,sp,272
    800001ce:	30200073          	mret

Disassembly of section .text:

00000000800001e0 <custom_trap_handler_s>:
    800001e0:	7129                	addi	sp,sp,-320
    800001e2:	e406                	sd	ra,8(sp)
    800001e4:	ec0e                	sd	gp,24(sp)
    800001e6:	f012                	sd	tp,32(sp)
    800001e8:	f416                	sd	t0,40(sp)
    800001ea:	f81a                	sd	t1,48(sp)
    800001ec:	fc1e                	sd	t2,56(sp)
    800001ee:	e0a2                	sd	s0,64(sp)
    800001f0:	e4a6                	sd	s1,72(sp)
    800001f2:	e8aa                	sd	a0,80(sp)
    800001f4:	ecae                	sd	a1,88(sp)
    800001f6:	f0b2                	sd	a2,96(sp)
    800001f8:	f4b6                	sd	a3,104(sp)
    800001fa:	f8ba                	sd	a4,112(sp)
    800001fc:	fcbe                	sd	a5,120(sp)
    800001fe:	e142                	sd	a6,128(sp)
    80000200:	e546                	sd	a7,136(sp)
    80000202:	e94a                	sd	s2,144(sp)
    80000204:	ed4e                	sd	s3,152(sp)
    80000206:	f152                	sd	s4,160(sp)
    80000208:	f556                	sd	s5,168(sp)
    8000020a:	f95a                	sd	s6,176(sp)
    8000020c:	fd5e                	sd	s7,184(sp)
    8000020e:	e1e2                	sd	s8,192(sp)
    80000210:	e5e6                	sd	s9,200(sp)
    80000212:	e9ea                	sd	s10,208(sp)
    80000214:	edee                	sd	s11,216(sp)
    80000216:	f1f2                	sd	t3,224(sp)
    80000218:	f5f6                	sd	t4,232(sp)
    8000021a:	f9fa                	sd	t5,240(sp)
    8000021c:	fdfe                	sd	t6,248(sp)
    8000021e:	10002573          	csrr	a0,sstatus
    80000222:	14102573          	csrr	a0,sepc
    80000226:	10502573          	csrr	a0,stvec
    8000022a:	14202573          	csrr	a0,scause
    8000022e:	4601                	li	a2,0
    80000230:	00c50763          	beq	a0,a2,8000023e <custom_trap_handler_s+0x5e>
    80000234:	4605                	li	a2,1
    80000236:	00c50463          	beq	a0,a2,8000023e <custom_trap_handler_s+0x5e>
    8000023a:	141025f3          	csrr	a1,sepc
    8000023e:	00059603          	lh	a2,0(a1)
    80000242:	8a0d                	andi	a2,a2,3
    80000244:	428d                	li	t0,3
    80000246:	00561563          	bne	a2,t0,80000250 <inst16_s>

000000008000024a <inst32_s>:
    8000024a:	0591                	addi	a1,a1,4
    8000024c:	00000363          	beqz	zero,80000252 <inst16_s+0x2>

0000000080000250 <inst16_s>:
    80000250:	0589                	addi	a1,a1,2
    80000252:	14159073          	csrw	sepc,a1
    80000256:	60a2                	ld	ra,8(sp)
    80000258:	61e2                	ld	gp,24(sp)
    8000025a:	7202                	ld	tp,32(sp)
    8000025c:	72a2                	ld	t0,40(sp)
    8000025e:	7342                	ld	t1,48(sp)
    80000260:	73e2                	ld	t2,56(sp)
    80000262:	6406                	ld	s0,64(sp)
    80000264:	64a6                	ld	s1,72(sp)
    80000266:	6546                	ld	a0,80(sp)
    80000268:	65e6                	ld	a1,88(sp)
    8000026a:	7606                	ld	a2,96(sp)
    8000026c:	76a6                	ld	a3,104(sp)
    8000026e:	7746                	ld	a4,112(sp)
    80000270:	77e6                	ld	a5,120(sp)
    80000272:	680a                	ld	a6,128(sp)
    80000274:	68aa                	ld	a7,136(sp)
    80000276:	694a                	ld	s2,144(sp)
    80000278:	69ea                	ld	s3,152(sp)
    8000027a:	7a0a                	ld	s4,160(sp)
    8000027c:	7aaa                	ld	s5,168(sp)
    8000027e:	7b4a                	ld	s6,176(sp)
    80000280:	7bea                	ld	s7,184(sp)
    80000282:	6c0e                	ld	s8,192(sp)
    80000284:	6cae                	ld	s9,200(sp)
    80000286:	6d4e                	ld	s10,208(sp)
    80000288:	6dee                	ld	s11,216(sp)
    8000028a:	7e0e                	ld	t3,224(sp)
    8000028c:	7eae                	ld	t4,232(sp)
    8000028e:	7f4e                	ld	t5,240(sp)
    80000290:	7fee                	ld	t6,248(sp)
    80000292:	6131                	addi	sp,sp,320
    80000294:	10200073          	sret

0000000080000298 <custom_trap_handler>:
    80000298:	7129                	addi	sp,sp,-320
    8000029a:	e406                	sd	ra,8(sp)
    8000029c:	ec0e                	sd	gp,24(sp)
    8000029e:	f012                	sd	tp,32(sp)
    800002a0:	f416                	sd	t0,40(sp)
    800002a2:	f81a                	sd	t1,48(sp)
    800002a4:	fc1e                	sd	t2,56(sp)
    800002a6:	e0a2                	sd	s0,64(sp)
    800002a8:	e4a6                	sd	s1,72(sp)
    800002aa:	e8aa                	sd	a0,80(sp)
    800002ac:	ecae                	sd	a1,88(sp)
    800002ae:	f0b2                	sd	a2,96(sp)
    800002b0:	f4b6                	sd	a3,104(sp)
    800002b2:	f8ba                	sd	a4,112(sp)
    800002b4:	fcbe                	sd	a5,120(sp)
    800002b6:	e142                	sd	a6,128(sp)
    800002b8:	e546                	sd	a7,136(sp)
    800002ba:	e94a                	sd	s2,144(sp)
    800002bc:	ed4e                	sd	s3,152(sp)
    800002be:	f152                	sd	s4,160(sp)
    800002c0:	f556                	sd	s5,168(sp)
    800002c2:	f95a                	sd	s6,176(sp)
    800002c4:	fd5e                	sd	s7,184(sp)
    800002c6:	e1e2                	sd	s8,192(sp)
    800002c8:	e5e6                	sd	s9,200(sp)
    800002ca:	e9ea                	sd	s10,208(sp)
    800002cc:	edee                	sd	s11,216(sp)
    800002ce:	f1f2                	sd	t3,224(sp)
    800002d0:	f5f6                	sd	t4,232(sp)
    800002d2:	f9fa                	sd	t5,240(sp)
    800002d4:	fdfe                	sd	t6,248(sp)
    800002d6:	30002573          	csrr	a0,mstatus
    800002da:	34102573          	csrr	a0,mepc
    800002de:	30502573          	csrr	a0,mtvec
    800002e2:	34202573          	csrr	a0,mcause
    800002e6:	4601                	li	a2,0
    800002e8:	00c50763          	beq	a0,a2,800002f6 <custom_trap_handler+0x5e>
    800002ec:	4605                	li	a2,1
    800002ee:	00c50463          	beq	a0,a2,800002f6 <custom_trap_handler+0x5e>
    800002f2:	341025f3          	csrr	a1,mepc
    800002f6:	00059603          	lh	a2,0(a1)
    800002fa:	8a0d                	andi	a2,a2,3
    800002fc:	428d                	li	t0,3
    800002fe:	00561563          	bne	a2,t0,80000308 <inst16>

0000000080000302 <inst32>:
    80000302:	0591                	addi	a1,a1,4
    80000304:	00000363          	beqz	zero,8000030a <inst16+0x2>

0000000080000308 <inst16>:
    80000308:	0589                	addi	a1,a1,2
    8000030a:	34159073          	csrw	mepc,a1
    8000030e:	60a2                	ld	ra,8(sp)
    80000310:	61e2                	ld	gp,24(sp)
    80000312:	7202                	ld	tp,32(sp)
    80000314:	72a2                	ld	t0,40(sp)
    80000316:	7342                	ld	t1,48(sp)
    80000318:	73e2                	ld	t2,56(sp)
    8000031a:	6406                	ld	s0,64(sp)
    8000031c:	64a6                	ld	s1,72(sp)
    8000031e:	6546                	ld	a0,80(sp)
    80000320:	65e6                	ld	a1,88(sp)
    80000322:	7606                	ld	a2,96(sp)
    80000324:	76a6                	ld	a3,104(sp)
    80000326:	7746                	ld	a4,112(sp)
    80000328:	77e6                	ld	a5,120(sp)
    8000032a:	680a                	ld	a6,128(sp)
    8000032c:	68aa                	ld	a7,136(sp)
    8000032e:	694a                	ld	s2,144(sp)
    80000330:	69ea                	ld	s3,152(sp)
    80000332:	7a0a                	ld	s4,160(sp)
    80000334:	7aaa                	ld	s5,168(sp)
    80000336:	7b4a                	ld	s6,176(sp)
    80000338:	7bea                	ld	s7,184(sp)
    8000033a:	6c0e                	ld	s8,192(sp)
    8000033c:	6cae                	ld	s9,200(sp)
    8000033e:	6d4e                	ld	s10,208(sp)
    80000340:	6dee                	ld	s11,216(sp)
    80000342:	7e0e                	ld	t3,224(sp)
    80000344:	7eae                	ld	t4,232(sp)
    80000346:	7f4e                	ld	t5,240(sp)
    80000348:	7fee                	ld	t6,248(sp)
    8000034a:	6131                	addi	sp,sp,320
    8000034c:	30200073          	mret

0000000080000350 <func1>:
    80000350:	00000033          	add	zero,zero,zero
    80000354:	8082                	ret
    80000356:	00000013          	nop
    8000035a:	00000013          	nop
    8000035e:	0001                	nop

0000000080000360 <main>:
    80000360:	00000033          	add	zero,zero,zero
    80000364:	00000297          	auipc	t0,0x0
    80000368:	f3428293          	addi	t0,t0,-204 # 80000298 <custom_trap_handler>
    8000036c:	30529073          	csrw	mtvec,t0
    80000370:	00091117          	auipc	sp,0x91
    80000374:	c9010113          	addi	sp,sp,-880 # 80091000 <begin_signature>
    80000378:	6305                	lui	t1,0x1
    8000037a:	8283031b          	addiw	t1,t1,-2008 # 828 <_tbss_end+0x828>
    8000037e:	911a                	add	sp,sp,t1

0000000080000380 <i0000000000>:
    80000380:	4fa9                	li	t6,10

0000000080000382 <i0000000001>:
    80000382:	139d7717          	auipc	a4,0x139d7

0000000080000386 <i0000000002>:
    80000386:	030ed393          	srli	t2,t4,0x30

000000008000038a <i0000000003>:
    8000038a:	13010003          	lb	zero,304(sp)

000000008000038e <i0000000004>:
    8000038e:	005b5f13          	srli	t5,s6,0x5

0000000080000392 <i0000000005>:
    80000392:	0ff0000f          	fence

0000000080000396 <i0000000006>:
    80000396:	9a610c83          	lb	s9,-1626(sp)

000000008000039a <i0000000007>:
    8000039a:	0167eeb3          	or	t4,a5,s6

000000008000039e <i0000000008>:
    8000039e:	ea114783          	lbu	a5,-351(sp)

00000000800003a2 <i0000000009>:
    800003a2:	b5d7079b          	addiw	a5,a4,-1187 # ffffffff939d6edf <_end+0xffffffff1393e47b>

00000000800003a6 <i000000000a>:
    800003a6:	018da733          	slt	a4,s11,s8

00000000800003aa <i000000000b>:
    800003aa:	a4815703          	lhu	a4,-1464(sp)

00000000800003ae <i000000000c>:
    800003ae:	0ff0000f          	fence

00000000800003b2 <i000000000d>:
    800003b2:	83e13423          	sd	t5,-2008(sp)

00000000800003b6 <i000000000e>:
    800003b6:	23d68617          	auipc	a2,0x23d68

00000000800003ba <i000000000f>:
    800003ba:	0ff0000f          	fence
    800003be:	00091117          	auipc	sp,0x91
    800003c2:	c4210113          	addi	sp,sp,-958 # 80091000 <begin_signature>
    800003c6:	6309                	lui	t1,0x2
    800003c8:	de03031b          	addiw	t1,t1,-544 # 1de0 <_tbss_end+0x1de0>
    800003cc:	911a                	add	sp,sp,t1

00000000800003ce <i0000000010>:
    800003ce:	90a15883          	lhu	a7,-1782(sp)

00000000800003d2 <i0000000011>:
    800003d2:	41d7063b          	subw	a2,a4,t4

00000000800003d6 <i0000000012>:
    800003d6:	0000100f          	fence.i
    800003da:	00091117          	auipc	sp,0x91
    800003de:	c2610113          	addi	sp,sp,-986 # 80091000 <begin_signature>
    800003e2:	6309                	lui	t1,0x2
    800003e4:	5e03031b          	addiw	t1,t1,1504 # 25e0 <_tbss_end+0x25e0>
    800003e8:	911a                	add	sp,sp,t1

00000000800003ea <i0000000013>:
    800003ea:	2e813a03          	ld	s4,744(sp)
    800003ee:	00091117          	auipc	sp,0x91
    800003f2:	c1210113          	addi	sp,sp,-1006 # 80091000 <begin_signature>
    800003f6:	630d                	lui	t1,0x3
    800003f8:	7b83031b          	addiw	t1,t1,1976 # 37b8 <_tbss_end+0x37b8>
    800003fc:	911a                	add	sp,sp,t1

00000000800003fe <i0000000014>:
    800003fe:	e4c10823          	sb	a2,-432(sp)

0000000080000402 <i0000000015>:
    80000402:	8777b813          	sltiu	a6,a5,-1929

0000000080000406 <i0000000016>:
    80000406:	eb210683          	lb	a3,-334(sp)
    8000040a:	00091117          	auipc	sp,0x91
    8000040e:	bf610113          	addi	sp,sp,-1034 # 80091000 <begin_signature>
    80000412:	630d                	lui	t1,0x3
    80000414:	0983031b          	addiw	t1,t1,152 # 3098 <_tbss_end+0x3098>
    80000418:	911a                	add	sp,sp,t1

000000008000041a <i0000000017>:
    8000041a:	4f815883          	lhu	a7,1272(sp)
    8000041e:	00091117          	auipc	sp,0x91
    80000422:	be210113          	addi	sp,sp,-1054 # 80091000 <begin_signature>
    80000426:	6309                	lui	t1,0x2
    80000428:	cc03031b          	addiw	t1,t1,-832 # 1cc0 <_tbss_end+0x1cc0>
    8000042c:	911a                	add	sp,sp,t1

000000008000042e <i0000000018>:
    8000042e:	e062                	sd	s8,0(sp)

0000000080000430 <i0000000019>:
    80000430:	00c7debb          	srlw	t4,a5,a2

0000000080000434 <i000000001a>:
    80000434:	0ff0000f          	fence
    80000438:	00091117          	auipc	sp,0x91
    8000043c:	bc810113          	addi	sp,sp,-1080 # 80091000 <begin_signature>
    80000440:	630d                	lui	t1,0x3
    80000442:	5b03031b          	addiw	t1,t1,1456 # 35b0 <_tbss_end+0x35b0>
    80000446:	911a                	add	sp,sp,t1

0000000080000448 <i000000001b>:
    80000448:	5b415003          	lhu	zero,1460(sp)

000000008000044c <i000000001c>:
    8000044c:	0382d593          	srli	a1,t0,0x38

0000000080000450 <i000000001d>:
    80000450:	4e013b03          	ld	s6,1248(sp)

0000000080000454 <i000000001e>:
    80000454:	a2013423          	sd	zero,-1496(sp)

0000000080000458 <i000000001f>:
    80000458:	e8312623          	sw	gp,-372(sp)

000000008000045c <i0000000020>:
    8000045c:	03175d13          	srli	s10,a4,0x31

0000000080000460 <i0000000021>:
    80000460:	0000100f          	fence.i

0000000080000464 <i0000000022>:
    80000464:	01401e93          	slli	t4,zero,0x14

0000000080000468 <i0000000023>:
    80000468:	41275f93          	srai	t6,a4,0x12

000000008000046c <i0000000024>:
    8000046c:	00c7d033          	srl	zero,a5,a2

0000000080000470 <i0000000025>:
    80000470:	4262d893          	srai	a7,t0,0x26

0000000080000474 <i0000000026>:
    80000474:	2ec8ed13          	ori	s10,a7,748

0000000080000478 <i0000000027>:
    80000478:	b5110ea3          	sb	a7,-1187(sp)

000000008000047c <i0000000028>:
    8000047c:	43e8d613          	srai	a2,a7,0x3e

0000000080000480 <i0000000029>:
    80000480:	01001813          	slli	a6,zero,0x10
    80000484:	00091117          	auipc	sp,0x91
    80000488:	b7c10113          	addi	sp,sp,-1156 # 80091000 <begin_signature>
    8000048c:	6305                	lui	t1,0x1
    8000048e:	7f03031b          	addiw	t1,t1,2032 # 17f0 <_tbss_end+0x17f0>
    80000492:	911a                	add	sp,sp,t1

0000000080000494 <i000000002a>:
    80000494:	2f813183          	ld	gp,760(sp)

0000000080000498 <i000000002b>:
    80000498:	4d013603          	ld	a2,1232(sp)

000000008000049c <i000000002c>:
    8000049c:	0000100f          	fence.i

00000000800004a0 <i000000002d>:
    800004a0:	0000100f          	fence.i
    800004a4:	00091117          	auipc	sp,0x91
    800004a8:	b5c10113          	addi	sp,sp,-1188 # 80091000 <begin_signature>
    800004ac:	6309                	lui	t1,0x2
    800004ae:	c203031b          	addiw	t1,t1,-992 # 1c20 <_tbss_end+0x1c20>
    800004b2:	911a                	add	sp,sp,t1

00000000800004b4 <i000000002e>:
    800004b4:	a8816903          	lwu	s2,-1400(sp)

00000000800004b8 <i000000002f>:
    800004b8:	0000100f          	fence.i

00000000800004bc <i0000000030>:
    800004bc:	045946b7          	lui	a3,0x4594

00000000800004c0 <i0000000031>:
    800004c0:	0000100f          	fence.i

00000000800004c4 <i0000000032>:
    800004c4:	8725                	srai	a4,a4,0x9

00000000800004c6 <i0000000033>:
    800004c6:	0ff0000f          	fence

00000000800004ca <i0000000034>:
    800004ca:	aebde513          	ori	a0,s11,-1301

00000000800004ce <i0000000035>:
    800004ce:	6a1e5837          	lui	a6,0x6a1e5

00000000800004d2 <i0000000036>:
    800004d2:	da011683          	lh	a3,-608(sp)

00000000800004d6 <i0000000037>:
    800004d6:	259101a3          	sb	s9,579(sp)

00000000800004da <i0000000038>:
    800004da:	71113823          	sd	a7,1808(sp)

00000000800004de <i0000000039>:
    800004de:	77816f03          	lwu	t5,1912(sp)

00000000800004e2 <i000000003a>:
    800004e2:	0ff0000f          	fence

00000000800004e6 <i000000003b>:
    800004e6:	0000100f          	fence.i

00000000800004ea <i000000003c>:
    800004ea:	9d812423          	sw	s8,-1592(sp)

00000000800004ee <i000000003d>:
    800004ee:	0000100f          	fence.i

00000000800004f2 <i000000003e>:
    800004f2:	32313423          	sd	gp,808(sp)

00000000800004f6 <i000000003f>:
    800004f6:	0000100f          	fence.i

00000000800004fa <i0000000040>:
    800004fa:	03781d93          	slli	s11,a6,0x37

00000000800004fe <i0000000041>:
    800004fe:	34013183          	ld	gp,832(sp)

0000000080000502 <i0000000042>:
    80000502:	019c823b          	addw	tp,s9,s9

0000000080000506 <i0000000043>:
    80000506:	ee813383          	ld	t2,-280(sp)

000000008000050a <i0000000044>:
    8000050a:	9a013803          	ld	a6,-1632(sp)

000000008000050e <i0000000045>:
    8000050e:	0000100f          	fence.i

0000000080000512 <i0000000046>:
    80000512:	0ff0000f          	fence

0000000080000516 <i0000000047>:
    80000516:	0000100f          	fence.i
    8000051a:	00091117          	auipc	sp,0x91
    8000051e:	ae610113          	addi	sp,sp,-1306 # 80091000 <begin_signature>
    80000522:	6309                	lui	t1,0x2
    80000524:	7283031b          	addiw	t1,t1,1832 # 2728 <_tbss_end+0x2728>
    80000528:	911a                	add	sp,sp,t1

000000008000052a <i0000000048>:
    8000052a:	c1013023          	sd	a6,-1024(sp)

000000008000052e <i0000000049>:
    8000052e:	32a15783          	lhu	a5,810(sp)

0000000080000532 <i000000004a>:
    80000532:	67476e93          	ori	t4,a4,1652

0000000080000536 <i000000004b>:
    80000536:	01aed71b          	srliw	a4,t4,0x1a

000000008000053a <i000000004c>:
    8000053a:	b1016a03          	lwu	s4,-1264(sp)

000000008000053e <i000000004d>:
    8000053e:	64610783          	lb	a5,1606(sp)

0000000080000542 <i000000004e>:
    80000542:	0000100f          	fence.i

0000000080000546 <i000000004f>:
    80000546:	91f14203          	lbu	tp,-1761(sp)

000000008000054a <i0000000050>:
    8000054a:	40c8571b          	sraiw	a4,a6,0xc

000000008000054e <i0000000051>:
    8000054e:	0ff0000f          	fence

0000000080000552 <i0000000052>:
    80000552:	0000100f          	fence.i

0000000080000556 <i0000000053>:
    80000556:	01a9d7bb          	srlw	a5,s3,s10

000000008000055a <i0000000054>:
    8000055a:	0118171b          	slliw	a4,a6,0x11

000000008000055e <i0000000055>:
    8000055e:	bd813803          	ld	a6,-1064(sp)

0000000080000562 <i0000000056>:
    80000562:	158fab17          	auipc	s6,0x158fa

0000000080000566 <i0000000057>:
    80000566:	00b9989b          	slliw	a7,s3,0xb

000000008000056a <i0000000058>:
    8000056a:	01b8579b          	srliw	a5,a6,0x1b

000000008000056e <i0000000059>:
    8000056e:	0108183b          	sllw	a6,a6,a6

0000000080000572 <i000000005a>:
    80000572:	0ff0000f          	fence

0000000080000576 <i000000005b>:
    80000576:	5ce11023          	sh	a4,1472(sp)

000000008000057a <i000000005c>:
    8000057a:	89813783          	ld	a5,-1896(sp)

000000008000057e <i000000005d>:
    8000057e:	0000100f          	fence.i

0000000080000582 <i000000005e>:
    80000582:	0ff0000f          	fence

0000000080000586 <i000000005f>:
    80000586:	d3414783          	lbu	a5,-716(sp)

000000008000058a <i0000000060>:
    8000058a:	01d0573b          	srlw	a4,zero,t4

000000008000058e <i0000000061>:
    8000058e:	e9813703          	ld	a4,-360(sp)

0000000080000592 <i0000000062>:
    80000592:	2a816a03          	lwu	s4,680(sp)

0000000080000596 <i0000000063>:
    80000596:	0000100f          	fence.i

000000008000059a <i0000000064>:
    8000059a:	ea6106a3          	sb	t1,-339(sp)

000000008000059e <i0000000065>:
    8000059e:	a3a14803          	lbu	a6,-1478(sp)

00000000800005a2 <i0000000066>:
    800005a2:	1dc16d83          	lwu	s11,476(sp)

00000000800005a6 <i0000000067>:
    800005a6:	01a49e93          	slli	t4,s1,0x1a

00000000800005aa <i0000000068>:
    800005aa:	3e813023          	sd	s0,992(sp)

00000000800005ae <i0000000069>:
    800005ae:	8f011383          	lh	t2,-1808(sp)
    800005b2:	00091117          	auipc	sp,0x91
    800005b6:	a4e10113          	addi	sp,sp,-1458 # 80091000 <begin_signature>
    800005ba:	6305                	lui	t1,0x1
    800005bc:	c083031b          	addiw	t1,t1,-1016 # c08 <_tbss_end+0xc08>
    800005c0:	911a                	add	sp,sp,t1

00000000800005c2 <i000000006a>:
    800005c2:	d8611e03          	lh	t3,-634(sp)

00000000800005c6 <i000000006b>:
    800005c6:	fe813883          	ld	a7,-24(sp)

00000000800005ca <i000000006c>:
    800005ca:	be412823          	sw	tp,-1040(sp)

00000000800005ce <i000000006d>:
    800005ce:	f3ba                	sd	a4,480(sp)

00000000800005d0 <i000000006e>:
    800005d0:	1dc11f23          	sh	t3,478(sp)
    800005d4:	00091117          	auipc	sp,0x91
    800005d8:	a2c10113          	addi	sp,sp,-1492 # 80091000 <begin_signature>
    800005dc:	6305                	lui	t1,0x1
    800005de:	7503031b          	addiw	t1,t1,1872 # 1750 <_tbss_end+0x1750>
    800005e2:	911a                	add	sp,sp,t1

00000000800005e4 <i000000006f>:
    800005e4:	f7a14883          	lbu	a7,-134(sp)

00000000800005e8 <i0000000070>:
    800005e8:	00e843b3          	xor	t2,a6,a4

00000000800005ec <i0000000071>:
    800005ec:	0000100f          	fence.i

00000000800005f0 <i0000000072>:
    800005f0:	00d01cb7          	lui	s9,0xd01

00000000800005f4 <i0000000073>:
    800005f4:	0ff0000f          	fence

00000000800005f8 <i0000000074>:
    800005f8:	00381893          	slli	a7,a6,0x3

00000000800005fc <i0000000075>:
    800005fc:	a7c11803          	lh	a6,-1412(sp)

0000000080000600 <i0000000076>:
    80000600:	e7913023          	sd	s9,-416(sp)

0000000080000604 <i0000000077>:
    80000604:	0ff0000f          	fence

0000000080000608 <i0000000078>:
    80000608:	973e                	add	a4,a4,a5

000000008000060a <i0000000079>:
    8000060a:	41085e33          	sra	t3,a6,a6

000000008000060e <i000000007a>:
    8000060e:	87f73793          	sltiu	a5,a4,-1921

0000000080000612 <i000000007b>:
    80000612:	765c3793          	sltiu	a5,s8,1893

0000000080000616 <i000000007c>:
    80000616:	0ff0000f          	fence

000000008000061a <i000000007d>:
    8000061a:	0d410503          	lb	a0,212(sp)

000000008000061e <i000000007e>:
    8000061e:	014b5793          	srli	a5,s6,0x14

0000000080000622 <i000000007f>:
    80000622:	00e7d833          	srl	a6,a5,a4

0000000080000626 <i0000000080>:
    80000626:	40f788b3          	sub	a7,a5,a5

000000008000062a <i0000000081>:
    8000062a:	ed3e                	sd	a5,152(sp)
    8000062c:	00091117          	auipc	sp,0x91
    80000630:	9d410113          	addi	sp,sp,-1580 # 80091000 <begin_signature>
    80000634:	6305                	lui	t1,0x1
    80000636:	8f83031b          	addiw	t1,t1,-1800 # 8f8 <_tbss_end+0x8f8>
    8000063a:	911a                	add	sp,sp,t1

000000008000063c <i0000000082>:
    8000063c:	7c816283          	lwu	t0,1992(sp)

0000000080000640 <i0000000083>:
    80000640:	07416003          	lwu	zero,116(sp)

0000000080000644 <i0000000084>:
    80000644:	f1d14703          	lbu	a4,-227(sp)

0000000080000648 <i0000000085>:
    80000648:	0000100f          	fence.i

000000008000064c <i0000000086>:
    8000064c:	407d579b          	sraiw	a5,s10,0x7

0000000080000650 <i0000000087>:
    80000650:	c6570713          	addi	a4,a4,-923

0000000080000654 <i0000000088>:
    80000654:	4178d23b          	sraw	tp,a7,s7
    80000658:	00091117          	auipc	sp,0x91
    8000065c:	9a810113          	addi	sp,sp,-1624 # 80091000 <begin_signature>
    80000660:	6305                	lui	t1,0x1
    80000662:	d903031b          	addiw	t1,t1,-624 # d90 <_tbss_end+0xd90>
    80000666:	911a                	add	sp,sp,t1

0000000080000668 <i0000000089>:
    80000668:	83f10d83          	lb	s11,-1985(sp)

000000008000066c <i000000008a>:
    8000066c:	0ff0000f          	fence

0000000080000670 <i000000008b>:
    80000670:	95412703          	lw	a4,-1708(sp)

0000000080000674 <i000000008c>:
    80000674:	a8010203          	lb	tp,-1408(sp)

0000000080000678 <i000000008d>:
    80000678:	40e75733          	sra	a4,a4,a4

000000008000067c <i000000008e>:
    8000067c:	0148dc13          	srli	s8,a7,0x14

0000000080000680 <i000000008f>:
    80000680:	b8011803          	lh	a6,-1152(sp)

0000000080000684 <i0000000090>:
    80000684:	0000100f          	fence.i

0000000080000688 <i0000000091>:
    80000688:	81816803          	lwu	a6,-2024(sp)

000000008000068c <i0000000092>:
    8000068c:	36914703          	lbu	a4,873(sp)

0000000080000690 <i0000000093>:
    80000690:	2c810d03          	lb	s10,712(sp)

0000000080000694 <i0000000094>:
    80000694:	0ff0000f          	fence

0000000080000698 <i0000000095>:
    80000698:	00f8073b          	addw	a4,a6,a5

000000008000069c <i0000000096>:
    8000069c:	8e013c83          	ld	s9,-1824(sp)

00000000800006a0 <i0000000097>:
    800006a0:	b0f13023          	sd	a5,-1280(sp)
    800006a4:	00091117          	auipc	sp,0x91
    800006a8:	95c10113          	addi	sp,sp,-1700 # 80091000 <begin_signature>
    800006ac:	630d                	lui	t1,0x3
    800006ae:	6003031b          	addiw	t1,t1,1536 # 3600 <_tbss_end+0x3600>
    800006b2:	911a                	add	sp,sp,t1

00000000800006b4 <i0000000098>:
    800006b4:	29416803          	lwu	a6,660(sp)

00000000800006b8 <i0000000099>:
    800006b8:	3f412803          	lw	a6,1012(sp)

00000000800006bc <i000000009a>:
    800006bc:	fb012a23          	sw	a6,-76(sp)

00000000800006c0 <i000000009b>:
    800006c0:	d4c2e693          	ori	a3,t0,-692

00000000800006c4 <i000000009c>:
    800006c4:	6e674393          	xori	t2,a4,1766

00000000800006c8 <i000000009d>:
    800006c8:	0000100f          	fence.i

00000000800006cc <i000000009e>:
    800006cc:	87514003          	lbu	zero,-1931(sp)

00000000800006d0 <i000000009f>:
    800006d0:	01a75413          	srli	s0,a4,0x1a

00000000800006d4 <i00000000a0>:
    800006d4:	b5810703          	lb	a4,-1192(sp)

00000000800006d8 <i00000000a1>:
    800006d8:	a1813703          	ld	a4,-1512(sp)

00000000800006dc <i00000000a2>:
    800006dc:	010777b3          	and	a5,a4,a6

00000000800006e0 <i00000000a3>:
    800006e0:	f1d3b613          	sltiu	a2,t2,-227

00000000800006e4 <i00000000a4>:
    800006e4:	0000100f          	fence.i

00000000800006e8 <i00000000a5>:
    800006e8:	01085633          	srl	a2,a6,a6

00000000800006ec <i00000000a6>:
    800006ec:	0000100f          	fence.i
    800006f0:	00091117          	auipc	sp,0x91
    800006f4:	91010113          	addi	sp,sp,-1776 # 80091000 <begin_signature>
    800006f8:	6309                	lui	t1,0x2
    800006fa:	6e83031b          	addiw	t1,t1,1768 # 26e8 <_tbss_end+0x26e8>
    800006fe:	911a                	add	sp,sp,t1

0000000080000700 <i00000000a7>:
    80000700:	88816703          	lwu	a4,-1912(sp)

0000000080000704 <i00000000a8>:
    80000704:	01181d9b          	slliw	s11,a6,0x11

0000000080000708 <i00000000a9>:
    80000708:	b0a10803          	lb	a6,-1270(sp)
    8000070c:	00091117          	auipc	sp,0x91
    80000710:	8f410113          	addi	sp,sp,-1804 # 80091000 <begin_signature>
    80000714:	630d                	lui	t1,0x3
    80000716:	8e83031b          	addiw	t1,t1,-1816 # 28e8 <_tbss_end+0x28e8>
    8000071a:	911a                	add	sp,sp,t1

000000008000071c <i00000000aa>:
    8000071c:	be211703          	lh	a4,-1054(sp)

0000000080000720 <i00000000ab>:
    80000720:	00e817bb          	sllw	a5,a6,a4

0000000080000724 <i00000000ac>:
    80000724:	004c971b          	slliw	a4,s9,0x4
    80000728:	00091117          	auipc	sp,0x91
    8000072c:	8d810113          	addi	sp,sp,-1832 # 80091000 <begin_signature>
    80000730:	6309                	lui	t1,0x2
    80000732:	8403031b          	addiw	t1,t1,-1984 # 1840 <_tbss_end+0x1840>
    80000736:	911a                	add	sp,sp,t1

0000000080000738 <i00000000ad>:
    80000738:	64016703          	lwu	a4,1600(sp)

000000008000073c <i00000000ae>:
    8000073c:	7b013703          	ld	a4,1968(sp)

0000000080000740 <i00000000af>:
    80000740:	39713823          	sd	s7,912(sp)

0000000080000744 <i00000000b0>:
    80000744:	0ff0000f          	fence

0000000080000748 <i00000000b1>:
    80000748:	42185813          	srai	a6,a6,0x21

000000008000074c <i00000000b2>:
    8000074c:	0ff0000f          	fence

0000000080000750 <i00000000b3>:
    80000750:	41a8549b          	sraiw	s1,a6,0x1a

0000000080000754 <i00000000b4>:
    80000754:	0ff0000f          	fence
    80000758:	00091117          	auipc	sp,0x91
    8000075c:	8a810113          	addi	sp,sp,-1880 # 80091000 <begin_signature>
    80000760:	6309                	lui	t1,0x2
    80000762:	4503031b          	addiw	t1,t1,1104 # 2450 <_tbss_end+0x2450>
    80000766:	911a                	add	sp,sp,t1

0000000080000768 <i00000000b5>:
    80000768:	4ce10fa3          	sb	a4,1247(sp)

000000008000076c <i00000000b6>:
    8000076c:	40f7db33          	sra	s6,a5,a5

0000000080000770 <i00000000b7>:
    80000770:	74912e23          	sw	s1,1884(sp)

0000000080000774 <i00000000b8>:
    80000774:	37d76493          	ori	s1,a4,893

0000000080000778 <i00000000b9>:
    80000778:	1fe14783          	lbu	a5,510(sp)

000000008000077c <i00000000ba>:
    8000077c:	02c71813          	slli	a6,a4,0x2c

0000000080000780 <i00000000bb>:
    80000780:	d9011a23          	sh	a6,-620(sp)

0000000080000784 <i00000000bc>:
    80000784:	0059e833          	or	a6,s3,t0

0000000080000788 <i00000000bd>:
    80000788:	2de10023          	sb	t5,704(sp)

000000008000078c <i00000000be>:
    8000078c:	879d                	srai	a5,a5,0x7
    8000078e:	00091117          	auipc	sp,0x91
    80000792:	87210113          	addi	sp,sp,-1934 # 80091000 <begin_signature>
    80000796:	630d                	lui	t1,0x3
    80000798:	9583031b          	addiw	t1,t1,-1704 # 2958 <_tbss_end+0x2958>
    8000079c:	911a                	add	sp,sp,t1

000000008000079e <i00000000bf>:
    8000079e:	ea810783          	lb	a5,-344(sp)

00000000800007a2 <i00000000c0>:
    800007a2:	44215803          	lhu	a6,1090(sp)

00000000800007a6 <i00000000c1>:
    800007a6:	46f11823          	sh	a5,1136(sp)

00000000800007aa <i00000000c2>:
    800007aa:	1d210803          	lb	a6,466(sp)

00000000800007ae <i00000000c3>:
    800007ae:	00e78bb3          	add	s7,a5,a4

00000000800007b2 <i00000000c4>:
    800007b2:	0000100f          	fence.i

00000000800007b6 <i00000000c5>:
    800007b6:	2c013203          	ld	tp,704(sp)

00000000800007ba <i00000000c6>:
    800007ba:	0ff0000f          	fence

00000000800007be <i00000000c7>:
    800007be:	e9210d03          	lb	s10,-366(sp)

00000000800007c2 <i00000000c8>:
    800007c2:	00f7a733          	slt	a4,a5,a5

00000000800007c6 <i00000000c9>:
    800007c6:	01bb1a9b          	slliw	s5,s6,0x1b

00000000800007ca <i00000000ca>:
    800007ca:	c0513c23          	sd	t0,-1000(sp)
    800007ce:	00091117          	auipc	sp,0x91
    800007d2:	83210113          	addi	sp,sp,-1998 # 80091000 <begin_signature>
    800007d6:	6309                	lui	t1,0x2
    800007d8:	0a03031b          	addiw	t1,t1,160 # 20a0 <_tbss_end+0x20a0>
    800007dc:	911a                	add	sp,sp,t1

00000000800007de <i00000000cb>:
    800007de:	9b012023          	sw	a6,-1632(sp)

00000000800007e2 <i00000000cc>:
    800007e2:	0000100f          	fence.i

00000000800007e6 <i00000000cd>:
    800007e6:	0ff0000f          	fence

00000000800007ea <i00000000ce>:
    800007ea:	e0c16003          	lwu	zero,-500(sp)

00000000800007ee <i00000000cf>:
    800007ee:	00075413          	srli	s0,a4,0x0

00000000800007f2 <i00000000d0>:
    800007f2:	19e14303          	lbu	t1,414(sp)

00000000800007f6 <i00000000d1>:
    800007f6:	0ff0000f          	fence

00000000800007fa <i00000000d2>:
    800007fa:	4135d7bb          	sraw	a5,a1,s3

00000000800007fe <i00000000d3>:
    800007fe:	9c013883          	ld	a7,-1600(sp)

0000000080000802 <i00000000d4>:
    80000802:	4108573b          	sraw	a4,a6,a6

0000000080000806 <i00000000d5>:
    80000806:	0ff0000f          	fence

000000008000080a <i00000000d6>:
    8000080a:	43748d1b          	addiw	s10,s1,1079

000000008000080e <i00000000d7>:
    8000080e:	01082833          	slt	a6,a6,a6

0000000080000812 <i00000000d8>:
    80000812:	b0413c23          	sd	tp,-1256(sp)

0000000080000816 <i00000000d9>:
    80000816:	3144089b          	addiw	a7,s0,788

000000008000081a <i00000000da>:
    8000081a:	0168581b          	srliw	a6,a6,0x16

000000008000081e <i00000000db>:
    8000081e:	0000100f          	fence.i

0000000080000822 <i00000000dc>:
    80000822:	d5012e23          	sw	a6,-676(sp)

0000000080000826 <i00000000dd>:
    80000826:	0ff0000f          	fence

000000008000082a <i00000000de>:
    8000082a:	62e13823          	sd	a4,1584(sp)

000000008000082e <i00000000df>:
    8000082e:	0000100f          	fence.i

0000000080000832 <i00000000e0>:
    80000832:	5c2ae917          	auipc	s2,0x5c2ae

0000000080000836 <i00000000e1>:
    80000836:	f8f13823          	sd	a5,-112(sp)

000000008000083a <i00000000e2>:
    8000083a:	012ca7b3          	slt	a5,s9,s2

000000008000083e <i00000000e3>:
    8000083e:	0ff0000f          	fence

0000000080000842 <i00000000e4>:
    80000842:	0000100f          	fence.i

0000000080000846 <i00000000e5>:
    80000846:	0107583b          	srlw	a6,a4,a6

000000008000084a <i00000000e6>:
    8000084a:	d4e6                	sw	s9,104(sp)

000000008000084c <i00000000e7>:
    8000084c:	c5210783          	lb	a5,-942(sp)

0000000080000850 <i00000000e8>:
    80000850:	01070e33          	add	t3,a4,a6

0000000080000854 <i00000000e9>:
    80000854:	0154971b          	slliw	a4,s1,0x15

0000000080000858 <i00000000ea>:
    80000858:	93e15803          	lhu	a6,-1730(sp)

000000008000085c <i00000000eb>:
    8000085c:	acf11323          	sh	a5,-1338(sp)

0000000080000860 <i00000000ec>:
    80000860:	d8013e83          	ld	t4,-640(sp)

0000000080000864 <i00000000ed>:
    80000864:	00f878b3          	and	a7,a6,a5

0000000080000868 <i00000000ee>:
    80000868:	41185e13          	srai	t3,a6,0x11

000000008000086c <i00000000ef>:
    8000086c:	01ded833          	srl	a6,t4,t4

0000000080000870 <i00000000f0>:
    80000870:	01275813          	srli	a6,a4,0x12

0000000080000874 <i00000000f1>:
    80000874:	0ff0000f          	fence

0000000080000878 <i00000000f2>:
    80000878:	0107f733          	and	a4,a5,a6

000000008000087c <i00000000f3>:
    8000087c:	0000100f          	fence.i

0000000080000880 <i00000000f4>:
    80000880:	00d7d71b          	srliw	a4,a5,0xd
    80000884:	00090117          	auipc	sp,0x90
    80000888:	77c10113          	addi	sp,sp,1916 # 80091000 <begin_signature>
    8000088c:	630d                	lui	t1,0x3
    8000088e:	0e83031b          	addiw	t1,t1,232 # 30e8 <_tbss_end+0x30e8>
    80000892:	911a                	add	sp,sp,t1

0000000080000894 <i00000000f5>:
    80000894:	25c16703          	lwu	a4,604(sp)

0000000080000898 <i00000000f6>:
    80000898:	0ff0000f          	fence
    8000089c:	00090117          	auipc	sp,0x90
    800008a0:	76410113          	addi	sp,sp,1892 # 80091000 <begin_signature>
    800008a4:	630d                	lui	t1,0x3
    800008a6:	6b83031b          	addiw	t1,t1,1720 # 36b8 <_tbss_end+0x36b8>
    800008aa:	911a                	add	sp,sp,t1

00000000800008ac <i00000000f7>:
    800008ac:	69813783          	ld	a5,1688(sp)

00000000800008b0 <i00000000f8>:
    800008b0:	00b75813          	srli	a6,a4,0xb

00000000800008b4 <i00000000f9>:
    800008b4:	ce612c23          	sw	t1,-776(sp)

00000000800008b8 <i00000000fa>:
    800008b8:	0ff0000f          	fence

00000000800008bc <i00000000fb>:
    800008bc:	0000100f          	fence.i

00000000800008c0 <i00000000fc>:
    800008c0:	b5011623          	sh	a6,-1204(sp)

00000000800008c4 <i00000000fd>:
    800008c4:	0c811803          	lh	a6,200(sp)

00000000800008c8 <i00000000fe>:
    800008c8:	eae13423          	sd	a4,-344(sp)

00000000800008cc <i00000000ff>:
    800008cc:	0ff0000f          	fence

00000000800008d0 <i0000000100>:
    800008d0:	017a1ebb          	sllw	t4,s4,s7

00000000800008d4 <i0000000101>:
    800008d4:	0000100f          	fence.i

00000000800008d8 <i0000000102>:
    800008d8:	68415703          	lhu	a4,1668(sp)

00000000800008dc <i0000000103>:
    800008dc:	0000100f          	fence.i

00000000800008e0 <i0000000104>:
    800008e0:	40185693          	srai	a3,a6,0x1

00000000800008e4 <i0000000105>:
    800008e4:	d3015803          	lhu	a6,-720(sp)

00000000800008e8 <i0000000106>:
    800008e8:	0067d71b          	srliw	a4,a5,0x6

00000000800008ec <i0000000107>:
    800008ec:	40e7883b          	subw	a6,a5,a4

00000000800008f0 <i0000000108>:
    800008f0:	0000100f          	fence.i

00000000800008f4 <i0000000109>:
    800008f4:	f7013783          	ld	a5,-144(sp)

00000000800008f8 <i000000010a>:
    800008f8:	00c7d813          	srli	a6,a5,0xc

00000000800008fc <i000000010b>:
    800008fc:	0000100f          	fence.i

0000000080000900 <i000000010c>:
    80000900:	0183c833          	xor	a6,t2,s8

0000000080000904 <i000000010d>:
    80000904:	b4d13823          	sd	a3,-1200(sp)

0000000080000908 <i000000010e>:
    80000908:	ef015783          	lhu	a5,-272(sp)

000000008000090c <i000000010f>:
    8000090c:	40f75733          	sra	a4,a4,a5

0000000080000910 <i0000000110>:
    80000910:	00d8581b          	srliw	a6,a6,0xd
    80000914:	00090117          	auipc	sp,0x90
    80000918:	6ec10113          	addi	sp,sp,1772 # 80091000 <begin_signature>
    8000091c:	630d                	lui	t1,0x3
    8000091e:	4083031b          	addiw	t1,t1,1032 # 3408 <_tbss_end+0x3408>
    80000922:	911a                	add	sp,sp,t1

0000000080000924 <i0000000111>:
    80000924:	43411923          	sh	s4,1074(sp)
    80000928:	00090117          	auipc	sp,0x90
    8000092c:	6d810113          	addi	sp,sp,1752 # 80091000 <begin_signature>
    80000930:	6305                	lui	t1,0x1
    80000932:	2a83031b          	addiw	t1,t1,680 # 12a8 <_tbss_end+0x12a8>
    80000936:	911a                	add	sp,sp,t1

0000000080000938 <i0000000112>:
    80000938:	85813f03          	ld	t5,-1960(sp)

000000008000093c <i0000000113>:
    8000093c:	0ff0000f          	fence

0000000080000940 <i0000000114>:
    80000940:	0ff0000f          	fence

0000000080000944 <i0000000115>:
    80000944:	e1416283          	lwu	t0,-492(sp)

0000000080000948 <i0000000116>:
    80000948:	01fd883b          	addw	a6,s11,t6

000000008000094c <i0000000117>:
    8000094c:	01a6073b          	addw	a4,a2,s10

0000000080000950 <i0000000118>:
    80000950:	0ff0000f          	fence

0000000080000954 <i0000000119>:
    80000954:	4ef13823          	sd	a5,1264(sp)

0000000080000958 <i000000011a>:
    80000958:	0023d713          	srli	a4,t2,0x2

000000008000095c <i000000011b>:
    8000095c:	40055f3b          	sraw	t5,a0,zero

0000000080000960 <i000000011c>:
    80000960:	ea813803          	ld	a6,-344(sp)

0000000080000964 <i000000011d>:
    80000964:	8027b793          	sltiu	a5,a5,-2046

0000000080000968 <i000000011e>:
    80000968:	01eee733          	or	a4,t4,t5

000000008000096c <i000000011f>:
    8000096c:	0000100f          	fence.i

0000000080000970 <i0000000120>:
    80000970:	01f89433          	sll	s0,a7,t6

0000000080000974 <i0000000121>:
    80000974:	a9013823          	sd	a6,-1392(sp)

0000000080000978 <i0000000122>:
    80000978:	0ff0000f          	fence

000000008000097c <i0000000123>:
    8000097c:	00f87b33          	and	s6,a6,a5
    80000980:	00090117          	auipc	sp,0x90
    80000984:	68010113          	addi	sp,sp,1664 # 80091000 <begin_signature>
    80000988:	6309                	lui	t1,0x2
    8000098a:	3803031b          	addiw	t1,t1,896 # 2380 <_tbss_end+0x2380>
    8000098e:	911a                	add	sp,sp,t1

0000000080000990 <i0000000124>:
    80000990:	59b10583          	lb	a1,1435(sp)

0000000080000994 <i0000000125>:
    80000994:	65412783          	lw	a5,1620(sp)

0000000080000998 <i0000000126>:
    80000998:	0067181b          	slliw	a6,a4,0x6

000000008000099c <i0000000127>:
    8000099c:	0000100f          	fence.i

00000000800009a0 <i0000000128>:
    800009a0:	007a149b          	slliw	s1,s4,0x7

00000000800009a4 <i0000000129>:
    800009a4:	408a873b          	subw	a4,s5,s0

00000000800009a8 <i000000012a>:
    800009a8:	c9e15b03          	lhu	s6,-866(sp)

00000000800009ac <i000000012b>:
    800009ac:	f7811703          	lh	a4,-136(sp)

00000000800009b0 <i000000012c>:
    800009b0:	41200d3b          	negw	s10,s2

00000000800009b4 <i000000012d>:
    800009b4:	0ff0000f          	fence

00000000800009b8 <i000000012e>:
    800009b8:	83714803          	lbu	a6,-1993(sp)

00000000800009bc <i000000012f>:
    800009bc:	ac813703          	ld	a4,-1336(sp)

00000000800009c0 <i0000000130>:
    800009c0:	17611783          	lh	a5,374(sp)

00000000800009c4 <i0000000131>:
    800009c4:	0ff0000f          	fence

00000000800009c8 <i0000000132>:
    800009c8:	414257b3          	sra	a5,tp,s4

00000000800009cc <i0000000133>:
    800009cc:	41013823          	sd	a6,1040(sp)

00000000800009d0 <i0000000134>:
    800009d0:	40685693          	srai	a3,a6,0x6

00000000800009d4 <i0000000135>:
    800009d4:	40c9d99b          	sraiw	s3,s3,0xc

00000000800009d8 <i0000000136>:
    800009d8:	4e016183          	lwu	gp,1248(sp)

00000000800009dc <i0000000137>:
    800009dc:	c3912823          	sw	s9,-976(sp)

00000000800009e0 <i0000000138>:
    800009e0:	0ff0000f          	fence

00000000800009e4 <i0000000139>:
    800009e4:	010739b3          	sltu	s3,a4,a6

00000000800009e8 <i000000013a>:
    800009e8:	405dd73b          	sraw	a4,s11,t0

00000000800009ec <i000000013b>:
    800009ec:	d9613423          	sd	s6,-632(sp)

00000000800009f0 <i000000013c>:
    800009f0:	410852bb          	sraw	t0,a6,a6

00000000800009f4 <i000000013d>:
    800009f4:	02305413          	srli	s0,zero,0x23

00000000800009f8 <i000000013e>:
    800009f8:	016ea833          	slt	a6,t4,s6

00000000800009fc <i000000013f>:
    800009fc:	12914383          	lbu	t2,297(sp)

0000000080000a00 <i0000000140>:
    80000a00:	3bd10983          	lb	s3,957(sp)

0000000080000a04 <i0000000141>:
    80000a04:	57011b03          	lh	s6,1392(sp)

0000000080000a08 <i0000000142>:
    80000a08:	7cc16703          	lwu	a4,1996(sp)
    80000a0c:	00090117          	auipc	sp,0x90
    80000a10:	5f410113          	addi	sp,sp,1524 # 80091000 <begin_signature>
    80000a14:	630d                	lui	t1,0x3
    80000a16:	9583031b          	addiw	t1,t1,-1704 # 2958 <_tbss_end+0x2958>
    80000a1a:	911a                	add	sp,sp,t1

0000000080000a1c <i0000000143>:
    80000a1c:	9cf11f23          	sh	a5,-1570(sp)
    80000a20:	00090117          	auipc	sp,0x90
    80000a24:	5e010113          	addi	sp,sp,1504 # 80091000 <begin_signature>
    80000a28:	630d                	lui	t1,0x3
    80000a2a:	8503031b          	addiw	t1,t1,-1968 # 2850 <_tbss_end+0x2850>
    80000a2e:	911a                	add	sp,sp,t1

0000000080000a30 <i0000000144>:
    80000a30:	18c15d03          	lhu	s10,396(sp)

0000000080000a34 <i0000000145>:
    80000a34:	01d1d81b          	srliw	a6,gp,0x1d
    80000a38:	00090117          	auipc	sp,0x90
    80000a3c:	5c810113          	addi	sp,sp,1480 # 80091000 <begin_signature>
    80000a40:	6305                	lui	t1,0x1
    80000a42:	7d03031b          	addiw	t1,t1,2000 # 17d0 <_tbss_end+0x17d0>
    80000a46:	911a                	add	sp,sp,t1

0000000080000a48 <i0000000146>:
    80000a48:	2f011723          	sh	a6,750(sp)

0000000080000a4c <i0000000147>:
    80000a4c:	40ced79b          	sraiw	a5,t4,0xc

0000000080000a50 <i0000000148>:
    80000a50:	01ff971b          	slliw	a4,t6,0x1f

0000000080000a54 <i0000000149>:
    80000a54:	27f78593          	addi	a1,a5,639

0000000080000a58 <i000000014a>:
    80000a58:	41fe853b          	subw	a0,t4,t6
    80000a5c:	00090117          	auipc	sp,0x90
    80000a60:	5a410113          	addi	sp,sp,1444 # 80091000 <begin_signature>
    80000a64:	6309                	lui	t1,0x2
    80000a66:	ec83031b          	addiw	t1,t1,-312 # 1ec8 <_tbss_end+0x1ec8>
    80000a6a:	911a                	add	sp,sp,t1

0000000080000a6c <i000000014b>:
    80000a6c:	82416783          	lwu	a5,-2012(sp)

0000000080000a70 <i000000014c>:
    80000a70:	9da6                	add	s11,s11,s1

0000000080000a72 <i000000014d>:
    80000a72:	bef13c23          	sd	a5,-1032(sp)

0000000080000a76 <i000000014e>:
    80000a76:	005e0b3b          	addw	s6,t3,t0

0000000080000a7a <i000000014f>:
    80000a7a:	40bfd813          	srai	a6,t6,0xb
    80000a7e:	00090117          	auipc	sp,0x90
    80000a82:	58210113          	addi	sp,sp,1410 # 80091000 <begin_signature>
    80000a86:	630d                	lui	t1,0x3
    80000a88:	2e83031b          	addiw	t1,t1,744 # 32e8 <_tbss_end+0x32e8>
    80000a8c:	911a                	add	sp,sp,t1

0000000080000a8e <i0000000150>:
    80000a8e:	6d013c23          	sd	a6,1752(sp)

0000000080000a92 <i0000000151>:
    80000a92:	1b810983          	lb	s3,440(sp)
    80000a96:	00090117          	auipc	sp,0x90
    80000a9a:	56a10113          	addi	sp,sp,1386 # 80091000 <begin_signature>
    80000a9e:	6309                	lui	t1,0x2
    80000aa0:	7003031b          	addiw	t1,t1,1792 # 2700 <_tbss_end+0x2700>
    80000aa4:	911a                	add	sp,sp,t1

0000000080000aa6 <i0000000152>:
    80000aa6:	5e013e03          	ld	t3,1504(sp)

0000000080000aaa <i0000000153>:
    80000aaa:	410707b3          	sub	a5,a4,a6

0000000080000aae <i0000000154>:
    80000aae:	170a                	slli	a4,a4,0x22

0000000080000ab0 <i0000000155>:
    80000ab0:	79110703          	lb	a4,1937(sp)

0000000080000ab4 <i0000000156>:
    80000ab4:	0ff0000f          	fence

0000000080000ab8 <i0000000157>:
    80000ab8:	e0c11783          	lh	a5,-500(sp)

0000000080000abc <i0000000158>:
    80000abc:	3c813a03          	ld	s4,968(sp)

0000000080000ac0 <i0000000159>:
    80000ac0:	1bb10703          	lb	a4,443(sp)
    80000ac4:	00090117          	auipc	sp,0x90
    80000ac8:	53c10113          	addi	sp,sp,1340 # 80091000 <begin_signature>
    80000acc:	6305                	lui	t1,0x1
    80000ace:	9d83031b          	addiw	t1,t1,-1576 # 9d8 <_tbss_end+0x9d8>
    80000ad2:	911a                	add	sp,sp,t1

0000000080000ad4 <i000000015a>:
    80000ad4:	b0610c03          	lb	s8,-1274(sp)

0000000080000ad8 <i000000015b>:
    80000ad8:	005d97bb          	sllw	a5,s11,t0

0000000080000adc <i000000015c>:
    80000adc:	e4e12423          	sw	a4,-440(sp)

0000000080000ae0 <i000000015d>:
    80000ae0:	59011423          	sh	a6,1416(sp)

0000000080000ae4 <i000000015e>:
    80000ae4:	0000100f          	fence.i

0000000080000ae8 <i000000015f>:
    80000ae8:	f1811c23          	sh	s8,-232(sp)

0000000080000aec <i0000000160>:
    80000aec:	fc816383          	lwu	t2,-56(sp)

0000000080000af0 <i0000000161>:
    80000af0:	0000100f          	fence.i

0000000080000af4 <i0000000162>:
    80000af4:	00f8173b          	sllw	a4,a6,a5

0000000080000af8 <i0000000163>:
    80000af8:	0ff0000f          	fence
    80000afc:	00090117          	auipc	sp,0x90
    80000b00:	50410113          	addi	sp,sp,1284 # 80091000 <begin_signature>
    80000b04:	630d                	lui	t1,0x3
    80000b06:	5683031b          	addiw	t1,t1,1384 # 3568 <_tbss_end+0x3568>
    80000b0a:	911a                	add	sp,sp,t1

0000000080000b0c <i0000000164>:
    80000b0c:	f8812623          	sw	s0,-116(sp)

0000000080000b10 <i0000000165>:
    80000b10:	01081e13          	slli	t3,a6,0x10

0000000080000b14 <i0000000166>:
    80000b14:	0000100f          	fence.i
    80000b18:	00090117          	auipc	sp,0x90
    80000b1c:	4e810113          	addi	sp,sp,1256 # 80091000 <begin_signature>
    80000b20:	630d                	lui	t1,0x3
    80000b22:	cd83031b          	addiw	t1,t1,-808 # 2cd8 <_tbss_end+0x2cd8>
    80000b26:	911a                	add	sp,sp,t1

0000000080000b28 <i0000000167>:
    80000b28:	24211d83          	lh	s11,578(sp)

0000000080000b2c <i0000000168>:
    80000b2c:	018b33b3          	sltu	t2,s6,s8

0000000080000b30 <i0000000169>:
    80000b30:	16214003          	lbu	zero,354(sp)

0000000080000b34 <i000000016a>:
    80000b34:	fb3e                	sd	a5,432(sp)

0000000080000b36 <i000000016b>:
    80000b36:	41b75813          	srai	a6,a4,0x1b
    80000b3a:	00090117          	auipc	sp,0x90
    80000b3e:	4c610113          	addi	sp,sp,1222 # 80091000 <begin_signature>
    80000b42:	630d                	lui	t1,0x3
    80000b44:	8603031b          	addiw	t1,t1,-1952 # 2860 <_tbss_end+0x2860>
    80000b48:	911a                	add	sp,sp,t1

0000000080000b4a <i000000016c>:
    80000b4a:	50e11a03          	lh	s4,1294(sp)

0000000080000b4e <i000000016d>:
    80000b4e:	0ff0000f          	fence

0000000080000b52 <i000000016e>:
    80000b52:	01082733          	slt	a4,a6,a6

0000000080000b56 <i000000016f>:
    80000b56:	ac4ca593          	slti	a1,s9,-1340

0000000080000b5a <i0000000170>:
    80000b5a:	6f013423          	sd	a6,1768(sp)

0000000080000b5e <i0000000171>:
    80000b5e:	00e7d7bb          	srlw	a5,a5,a4

0000000080000b62 <i0000000172>:
    80000b62:	2c413023          	sd	tp,704(sp)

0000000080000b66 <i0000000173>:
    80000b66:	70c12a03          	lw	s4,1804(sp)

0000000080000b6a <i0000000174>:
    80000b6a:	b6a11823          	sh	a0,-1168(sp)

0000000080000b6e <i0000000175>:
    80000b6e:	00e717b3          	sll	a5,a4,a4

0000000080000b72 <i0000000176>:
    80000b72:	0ff0000f          	fence

0000000080000b76 <i0000000177>:
    80000b76:	c3811f03          	lh	t5,-968(sp)

0000000080000b7a <i0000000178>:
    80000b7a:	0000100f          	fence.i

0000000080000b7e <i0000000179>:
    80000b7e:	3a415b03          	lhu	s6,932(sp)

0000000080000b82 <i000000017a>:
    80000b82:	96016783          	lwu	a5,-1696(sp)

0000000080000b86 <i000000017b>:
    80000b86:	05d22513          	slti	a0,tp,93

0000000080000b8a <i000000017c>:
    80000b8a:	4160093b          	negw	s2,s6
    80000b8e:	00090117          	auipc	sp,0x90
    80000b92:	47210113          	addi	sp,sp,1138 # 80091000 <begin_signature>
    80000b96:	630d                	lui	t1,0x3
    80000b98:	2341                	addiw	t1,t1,16 # 3010 <_tbss_end+0x3010>
    80000b9a:	911a                	add	sp,sp,t1

0000000080000b9c <i000000017d>:
    80000b9c:	1fd14c03          	lbu	s8,509(sp)

0000000080000ba0 <i000000017e>:
    80000ba0:	0ff0000f          	fence

0000000080000ba4 <i000000017f>:
    80000ba4:	eefe                	sd	t6,344(sp)

0000000080000ba6 <i0000000180>:
    80000ba6:	010857b3          	srl	a5,a6,a6

0000000080000baa <i0000000181>:
    80000baa:	29675037          	lui	zero,0x29675
    80000bae:	00090117          	auipc	sp,0x90
    80000bb2:	45210113          	addi	sp,sp,1106 # 80091000 <begin_signature>
    80000bb6:	6309                	lui	t1,0x2
    80000bb8:	2b03031b          	addiw	t1,t1,688 # 22b0 <_tbss_end+0x22b0>
    80000bbc:	911a                	add	sp,sp,t1

0000000080000bbe <i0000000182>:
    80000bbe:	7726                	ld	a4,104(sp)
    80000bc0:	00090117          	auipc	sp,0x90
    80000bc4:	44010113          	addi	sp,sp,1088 # 80091000 <begin_signature>
    80000bc8:	6309                	lui	t1,0x2
    80000bca:	1503031b          	addiw	t1,t1,336 # 2150 <_tbss_end+0x2150>
    80000bce:	911a                	add	sp,sp,t1

0000000080000bd0 <i0000000183>:
    80000bd0:	7f013803          	ld	a6,2032(sp)

0000000080000bd4 <i0000000184>:
    80000bd4:	0ff0000f          	fence

0000000080000bd8 <i0000000185>:
    80000bd8:	d1613423          	sd	s6,-760(sp)

0000000080000bdc <i0000000186>:
    80000bdc:	13812183          	lw	gp,312(sp)
    80000be0:	00090117          	auipc	sp,0x90
    80000be4:	42010113          	addi	sp,sp,1056 # 80091000 <begin_signature>
    80000be8:	6305                	lui	t1,0x1
    80000bea:	3203031b          	addiw	t1,t1,800 # 1320 <_tbss_end+0x1320>
    80000bee:	911a                	add	sp,sp,t1

0000000080000bf0 <i0000000187>:
    80000bf0:	37013423          	sd	a6,872(sp)

0000000080000bf4 <i0000000188>:
    80000bf4:	9a614003          	lbu	zero,-1626(sp)

0000000080000bf8 <i0000000189>:
    80000bf8:	0000100f          	fence.i

0000000080000bfc <i000000018a>:
    80000bfc:	41c9543b          	sraw	s0,s2,t3
    80000c00:	00090117          	auipc	sp,0x90
    80000c04:	40010113          	addi	sp,sp,1024 # 80091000 <begin_signature>
    80000c08:	630d                	lui	t1,0x3
    80000c0a:	3d83031b          	addiw	t1,t1,984 # 33d8 <_tbss_end+0x33d8>
    80000c0e:	911a                	add	sp,sp,t1

0000000080000c10 <i000000018b>:
    80000c10:	f356                	sd	s5,416(sp)
    80000c12:	00090117          	auipc	sp,0x90
    80000c16:	3ee10113          	addi	sp,sp,1006 # 80091000 <begin_signature>
    80000c1a:	6309                	lui	t1,0x2
    80000c1c:	c283031b          	addiw	t1,t1,-984 # 1c28 <_tbss_end+0x1c28>
    80000c20:	911a                	add	sp,sp,t1

0000000080000c22 <i000000018c>:
    80000c22:	28e13423          	sd	a4,648(sp)

0000000080000c26 <i000000018d>:
    80000c26:	06015003          	lhu	zero,96(sp)

0000000080000c2a <i000000018e>:
    80000c2a:	0139b7b3          	sltu	a5,s3,s3

0000000080000c2e <i000000018f>:
    80000c2e:	01be1013          	slli	zero,t3,0x1b

0000000080000c32 <i0000000190>:
    80000c32:	0ff0000f          	fence

0000000080000c36 <i0000000191>:
    80000c36:	40000e3b          	negw	t3,zero

0000000080000c3a <i0000000192>:
    80000c3a:	22816703          	lwu	a4,552(sp)

0000000080000c3e <i0000000193>:
    80000c3e:	03d85793          	srli	a5,a6,0x3d

0000000080000c42 <i0000000194>:
    80000c42:	00e78ebb          	addw	t4,a5,a4

0000000080000c46 <i0000000195>:
    80000c46:	91414583          	lbu	a1,-1772(sp)

0000000080000c4a <i0000000196>:
    80000c4a:	8695ce93          	xori	t4,a1,-1943

0000000080000c4e <i0000000197>:
    80000c4e:	4ae13823          	sd	a4,1200(sp)

0000000080000c52 <i0000000198>:
    80000c52:	171e                	slli	a4,a4,0x27

0000000080000c54 <i0000000199>:
    80000c54:	07011783          	lh	a5,112(sp)

0000000080000c58 <i000000019a>:
    80000c58:	585a                	lw	a6,180(sp)

0000000080000c5a <i000000019b>:
    80000c5a:	0027da93          	srli	s5,a5,0x2

0000000080000c5e <i000000019c>:
    80000c5e:	0164d913          	srli	s2,s1,0x16

0000000080000c62 <i000000019d>:
    80000c62:	40e80633          	sub	a2,a6,a4

0000000080000c66 <i000000019e>:
    80000c66:	015cd7bb          	srlw	a5,s9,s5

0000000080000c6a <i000000019f>:
    80000c6a:	b4816183          	lwu	gp,-1208(sp)

0000000080000c6e <i00000001a0>:
    80000c6e:	008a9793          	slli	a5,s5,0x8

0000000080000c72 <i00000001a1>:
    80000c72:	47e4081b          	addiw	a6,s0,1150

0000000080000c76 <i00000001a2>:
    80000c76:	413dd81b          	sraiw	a6,s11,0x13

0000000080000c7a <i00000001a3>:
    80000c7a:	28812e83          	lw	t4,648(sp)

0000000080000c7e <i00000001a4>:
    80000c7e:	29811a23          	sh	s8,660(sp)

0000000080000c82 <i00000001a5>:
    80000c82:	411c0833          	sub	a6,s8,a7

0000000080000c86 <i00000001a6>:
    80000c86:	efc16503          	lwu	a0,-260(sp)
    80000c8a:	00090117          	auipc	sp,0x90
    80000c8e:	37610113          	addi	sp,sp,886 # 80091000 <begin_signature>
    80000c92:	630d                	lui	t1,0x3
    80000c94:	9383031b          	addiw	t1,t1,-1736 # 2938 <_tbss_end+0x2938>
    80000c98:	911a                	add	sp,sp,t1

0000000080000c9a <i00000001a7>:
    80000c9a:	a7215a03          	lhu	s4,-1422(sp)

0000000080000c9e <i00000001a8>:
    80000c9e:	0106d793          	srli	a5,a3,0x10

0000000080000ca2 <i00000001a9>:
    80000ca2:	c7c16483          	lwu	s1,-900(sp)

0000000080000ca6 <i00000001aa>:
    80000ca6:	01cb9fb3          	sll	t6,s7,t3

0000000080000caa <i00000001ab>:
    80000caa:	0000100f          	fence.i
    80000cae:	00090117          	auipc	sp,0x90
    80000cb2:	35210113          	addi	sp,sp,850 # 80091000 <begin_signature>
    80000cb6:	6309                	lui	t1,0x2
    80000cb8:	c783031b          	addiw	t1,t1,-904 # 1c78 <_tbss_end+0x1c78>
    80000cbc:	911a                	add	sp,sp,t1

0000000080000cbe <i00000001ac>:
    80000cbe:	a7013783          	ld	a5,-1424(sp)

0000000080000cc2 <i00000001ad>:
    80000cc2:	0ff0000f          	fence

0000000080000cc6 <i00000001ae>:
    80000cc6:	0107b7b3          	sltu	a5,a5,a6

0000000080000cca <i00000001af>:
    80000cca:	25369317          	auipc	t1,0x25369

0000000080000cce <i00000001b0>:
    80000cce:	7efa0817          	auipc	a6,0x7efa0

0000000080000cd2 <i00000001b1>:
    80000cd2:	01f3db1b          	srliw	s6,t2,0x1f

0000000080000cd6 <i00000001b2>:
    80000cd6:	1d0109a3          	sb	a6,467(sp)

0000000080000cda <i00000001b3>:
    80000cda:	b6812423          	sw	s0,-1176(sp)

0000000080000cde <i00000001b4>:
    80000cde:	ace11e23          	sh	a4,-1316(sp)

0000000080000ce2 <i00000001b5>:
    80000ce2:	01fc08bb          	addw	a7,s8,t6

0000000080000ce6 <i00000001b6>:
    80000ce6:	8b816803          	lwu	a6,-1864(sp)

0000000080000cea <i00000001b7>:
    80000cea:	7ee07713          	andi	a4,zero,2030

0000000080000cee <i00000001b8>:
    80000cee:	30e13823          	sd	a4,784(sp)

0000000080000cf2 <i00000001b9>:
    80000cf2:	01841733          	sll	a4,s0,s8

0000000080000cf6 <i00000001ba>:
    80000cf6:	df712e23          	sw	s7,-516(sp)

0000000080000cfa <i00000001bb>:
    80000cfa:	2517b713          	sltiu	a4,a5,593

0000000080000cfe <i00000001bc>:
    80000cfe:	406a5713          	srai	a4,s4,0x6

0000000080000d02 <i00000001bd>:
    80000d02:	41d7de13          	srai	t3,a5,0x1d

0000000080000d06 <i00000001be>:
    80000d06:	41078733          	sub	a4,a5,a6

0000000080000d0a <i00000001bf>:
    80000d0a:	0077571b          	srliw	a4,a4,0x7
    80000d0e:	00090117          	auipc	sp,0x90
    80000d12:	2f210113          	addi	sp,sp,754 # 80091000 <begin_signature>
    80000d16:	6305                	lui	t1,0x1
    80000d18:	c783031b          	addiw	t1,t1,-904 # c78 <_tbss_end+0xc78>
    80000d1c:	911a                	add	sp,sp,t1

0000000080000d1e <i00000001c0>:
    80000d1e:	bb0100a3          	sb	a6,-1119(sp)

0000000080000d22 <i00000001c1>:
    80000d22:	ac624793          	xori	a5,tp,-1338

0000000080000d26 <i00000001c2>:
    80000d26:	00b8c733          	xor	a4,a7,a1

0000000080000d2a <i00000001c3>:
    80000d2a:	22880c1b          	addiw	s8,a6,552 # fffffffffefa0ef6 <_end+0xffffffff7ef08492>

0000000080000d2e <i00000001c4>:
    80000d2e:	0017961b          	slliw	a2,a5,0x1

0000000080000d32 <i00000001c5>:
    80000d32:	0113f833          	and	a6,t2,a7

0000000080000d36 <i00000001c6>:
    80000d36:	46812903          	lw	s2,1128(sp)

0000000080000d3a <i00000001c7>:
    80000d3a:	0017d99b          	srliw	s3,a5,0x1

0000000080000d3e <i00000001c8>:
    80000d3e:	03296813          	ori	a6,s2,50

0000000080000d42 <i00000001c9>:
    80000d42:	40f707b3          	sub	a5,a4,a5

0000000080000d46 <i00000001ca>:
    80000d46:	94f104a3          	sb	a5,-1719(sp)
    80000d4a:	00090117          	auipc	sp,0x90
    80000d4e:	2b610113          	addi	sp,sp,694 # 80091000 <begin_signature>
    80000d52:	6305                	lui	t1,0x1
    80000d54:	f583031b          	addiw	t1,t1,-168 # f58 <_tbss_end+0xf58>
    80000d58:	911a                	add	sp,sp,t1

0000000080000d5a <i00000001cb>:
    80000d5a:	59813383          	ld	t2,1432(sp)

0000000080000d5e <i00000001cc>:
    80000d5e:	01ead513          	srli	a0,s5,0x1e

0000000080000d62 <i00000001cd>:
    80000d62:	40a75a1b          	sraiw	s4,a4,0xa

0000000080000d66 <i00000001ce>:
    80000d66:	018d573b          	srlw	a4,s10,s8

0000000080000d6a <i00000001cf>:
    80000d6a:	fec12703          	lw	a4,-20(sp)

0000000080000d6e <i00000001d0>:
    80000d6e:	0000100f          	fence.i

0000000080000d72 <i00000001d1>:
    80000d72:	0ff0000f          	fence

0000000080000d76 <i00000001d2>:
    80000d76:	0000100f          	fence.i

0000000080000d7a <i00000001d3>:
    80000d7a:	004b983b          	sllw	a6,s7,tp

0000000080000d7e <i00000001d4>:
    80000d7e:	002d9793          	slli	a5,s11,0x2

0000000080000d82 <i00000001d5>:
    80000d82:	9c211783          	lh	a5,-1598(sp)

0000000080000d86 <i00000001d6>:
    80000d86:	ea8b081b          	addiw	a6,s6,-344 # ffffffff958fa40a <_end+0xffffffff158619a6>

0000000080000d8a <i00000001d7>:
    80000d8a:	0000100f          	fence.i

0000000080000d8e <i00000001d8>:
    80000d8e:	00775913          	srli	s2,a4,0x7

0000000080000d92 <i00000001d9>:
    80000d92:	e6f11c23          	sh	a5,-392(sp)

0000000080000d96 <i00000001da>:
    80000d96:	fdb84793          	xori	a5,a6,-37

0000000080000d9a <i00000001db>:
    80000d9a:	004a1733          	sll	a4,s4,tp

0000000080000d9e <i00000001dc>:
    80000d9e:	0000100f          	fence.i

0000000080000da2 <i00000001dd>:
    80000da2:	ddc12803          	lw	a6,-548(sp)
    80000da6:	00090117          	auipc	sp,0x90
    80000daa:	25a10113          	addi	sp,sp,602 # 80091000 <begin_signature>
    80000dae:	630d                	lui	t1,0x3
    80000db0:	c083031b          	addiw	t1,t1,-1016 # 2c08 <_tbss_end+0x2c08>
    80000db4:	911a                	add	sp,sp,t1

0000000080000db6 <i00000001de>:
    80000db6:	fa410d03          	lb	s10,-92(sp)

0000000080000dba <i00000001df>:
    80000dba:	0ff0000f          	fence

0000000080000dbe <i00000001e0>:
    80000dbe:	94813f03          	ld	t5,-1720(sp)

0000000080000dc2 <i00000001e1>:
    80000dc2:	01869793          	slli	a5,a3,0x18

0000000080000dc6 <i00000001e2>:
    80000dc6:	00d71813          	slli	a6,a4,0xd

0000000080000dca <i00000001e3>:
    80000dca:	3826c717          	auipc	a4,0x3826c

0000000080000dce <i00000001e4>:
    80000dce:	bd28079b          	addiw	a5,a6,-1070

0000000080000dd2 <i00000001e5>:
    80000dd2:	00761033          	sll	zero,a2,t2

0000000080000dd6 <i00000001e6>:
    80000dd6:	cfb13023          	sd	s11,-800(sp)

0000000080000dda <i00000001e7>:
    80000dda:	d2013803          	ld	a6,-736(sp)
    80000dde:	00090117          	auipc	sp,0x90
    80000de2:	22210113          	addi	sp,sp,546 # 80091000 <begin_signature>
    80000de6:	6309                	lui	t1,0x2
    80000de8:	3683031b          	addiw	t1,t1,872 # 2368 <_tbss_end+0x2368>
    80000dec:	911a                	add	sp,sp,t1

0000000080000dee <i00000001e8>:
    80000dee:	9f010323          	sb	a6,-1562(sp)

0000000080000df2 <i00000001e9>:
    80000df2:	0ff0000f          	fence

0000000080000df6 <i00000001ea>:
    80000df6:	0ff0000f          	fence
    80000dfa:	00090117          	auipc	sp,0x90
    80000dfe:	20610113          	addi	sp,sp,518 # 80091000 <begin_signature>
    80000e02:	6305                	lui	t1,0x1
    80000e04:	7503031b          	addiw	t1,t1,1872 # 1750 <_tbss_end+0x1750>
    80000e08:	911a                	add	sp,sp,t1

0000000080000e0a <i00000001eb>:
    80000e0a:	b5c16983          	lwu	s3,-1188(sp)

0000000080000e0e <i00000001ec>:
    80000e0e:	4fd50a9b          	addiw	s5,a0,1277

0000000080000e12 <i00000001ed>:
    80000e12:	0000100f          	fence.i

0000000080000e16 <i00000001ee>:
    80000e16:	00f7c8b3          	xor	a7,a5,a5

0000000080000e1a <i00000001ef>:
    80000e1a:	0000100f          	fence.i

0000000080000e1e <i00000001f0>:
    80000e1e:	97714703          	lbu	a4,-1673(sp)

0000000080000e22 <i00000001f1>:
    80000e22:	ddaf8713          	addi	a4,t6,-550
    80000e26:	00090117          	auipc	sp,0x90
    80000e2a:	1da10113          	addi	sp,sp,474 # 80091000 <begin_signature>
    80000e2e:	6309                	lui	t1,0x2
    80000e30:	b483031b          	addiw	t1,t1,-1208 # 1b48 <_tbss_end+0x1b48>
    80000e34:	911a                	add	sp,sp,t1

0000000080000e36 <i00000001f2>:
    80000e36:	c5911d23          	sh	s9,-934(sp)
    80000e3a:	00090117          	auipc	sp,0x90
    80000e3e:	1c610113          	addi	sp,sp,454 # 80091000 <begin_signature>
    80000e42:	6309                	lui	t1,0x2
    80000e44:	fc83031b          	addiw	t1,t1,-56 # 1fc8 <_tbss_end+0x1fc8>
    80000e48:	911a                	add	sp,sp,t1

0000000080000e4a <i00000001f3>:
    80000e4a:	98e11003          	lh	zero,-1650(sp)

0000000080000e4e <i00000001f4>:
    80000e4e:	5bc16203          	lwu	tp,1468(sp)

0000000080000e52 <i00000001f5>:
    80000e52:	59013423          	sd	a6,1416(sp)

0000000080000e56 <i00000001f6>:
    80000e56:	4d779597          	auipc	a1,0x4d779

0000000080000e5a <i00000001f7>:
    80000e5a:	4098dd1b          	sraiw	s10,a7,0x9

0000000080000e5e <i00000001f8>:
    80000e5e:	01071d93          	slli	s11,a4,0x10

0000000080000e62 <i00000001f9>:
    80000e62:	5a615f03          	lhu	t5,1446(sp)

0000000080000e66 <i00000001fa>:
    80000e66:	b8980393          	addi	t2,a6,-1143

0000000080000e6a <i00000001fb>:
    80000e6a:	5e760813          	addi	a6,a2,1511 # a3d6899d <_end+0x23ccff39>
    80000e6e:	00090117          	auipc	sp,0x90
    80000e72:	19210113          	addi	sp,sp,402 # 80091000 <begin_signature>
    80000e76:	6305                	lui	t1,0x1
    80000e78:	9a83031b          	addiw	t1,t1,-1624 # 9a8 <_tbss_end+0x9a8>
    80000e7c:	911a                	add	sp,sp,t1

0000000080000e7e <i00000001fc>:
    80000e7e:	7a016b83          	lwu	s7,1952(sp)

0000000080000e82 <i00000001fd>:
    80000e82:	38614f03          	lbu	t5,902(sp)

0000000080000e86 <i00000001fe>:
    80000e86:	0000100f          	fence.i

0000000080000e8a <i00000001ff>:
    80000e8a:	67012b03          	lw	s6,1648(sp)

0000000080000e8e <i0000000200>:
    80000e8e:	005ea733          	slt	a4,t4,t0

0000000080000e92 <i0000000201>:
    80000e92:	f6f11123          	sh	a5,-158(sp)

0000000080000e96 <i0000000202>:
    80000e96:	e4f13423          	sd	a5,-440(sp)

0000000080000e9a <i0000000203>:
    80000e9a:	01175693          	srli	a3,a4,0x11

0000000080000e9e <i0000000204>:
    80000e9e:	0ff0000f          	fence

0000000080000ea2 <i0000000205>:
    80000ea2:	40e75e3b          	sraw	t3,a4,a4
    80000ea6:	00090117          	auipc	sp,0x90
    80000eaa:	15a10113          	addi	sp,sp,346 # 80091000 <begin_signature>
    80000eae:	630d                	lui	t1,0x3
    80000eb0:	be83031b          	addiw	t1,t1,-1048 # 2be8 <_tbss_end+0x2be8>
    80000eb4:	911a                	add	sp,sp,t1

0000000080000eb6 <i0000000206>:
    80000eb6:	bd013423          	sd	a6,-1080(sp)

0000000080000eba <i0000000207>:
    80000eba:	c4e102a3          	sb	a4,-955(sp)
    80000ebe:	00090117          	auipc	sp,0x90
    80000ec2:	14210113          	addi	sp,sp,322 # 80091000 <begin_signature>
    80000ec6:	6309                	lui	t1,0x2
    80000ec8:	cc03031b          	addiw	t1,t1,-832 # 1cc0 <_tbss_end+0x1cc0>
    80000ecc:	911a                	add	sp,sp,t1

0000000080000ece <i0000000208>:
    80000ece:	6f510223          	sb	s5,1764(sp)

0000000080000ed2 <i0000000209>:
    80000ed2:	00e8183b          	sllw	a6,a6,a4

0000000080000ed6 <i000000020a>:
    80000ed6:	006d97bb          	sllw	a5,s11,t1

0000000080000eda <i000000020b>:
    80000eda:	41a0571b          	sraiw	a4,zero,0x1a

0000000080000ede <i000000020c>:
    80000ede:	27811703          	lh	a4,632(sp)

0000000080000ee2 <i000000020d>:
    80000ee2:	a8314783          	lbu	a5,-1405(sp)

0000000080000ee6 <i000000020e>:
    80000ee6:	00215803          	lhu	a6,2(sp)

0000000080000eea <i000000020f>:
    80000eea:	617fe737          	lui	a4,0x617fe

0000000080000eee <i0000000210>:
    80000eee:	6846                	ld	a6,80(sp)

0000000080000ef0 <i0000000211>:
    80000ef0:	0000100f          	fence.i

0000000080000ef4 <i0000000212>:
    80000ef4:	ed813583          	ld	a1,-296(sp)

0000000080000ef8 <i0000000213>:
    80000ef8:	0ff0000f          	fence

0000000080000efc <i0000000214>:
    80000efc:	92813783          	ld	a5,-1752(sp)

0000000080000f00 <i0000000215>:
    80000f00:	40e85833          	sra	a6,a6,a4

0000000080000f04 <i0000000216>:
    80000f04:	41c45c93          	srai	s9,s0,0x1c

0000000080000f08 <i0000000217>:
    80000f08:	36816383          	lwu	t2,872(sp)

0000000080000f0c <i0000000218>:
    80000f0c:	dac13823          	sd	a2,-592(sp)
    80000f10:	00090117          	auipc	sp,0x90
    80000f14:	0f010113          	addi	sp,sp,240 # 80091000 <begin_signature>
    80000f18:	6309                	lui	t1,0x2
    80000f1a:	e183031b          	addiw	t1,t1,-488 # 1e18 <_tbss_end+0x1e18>
    80000f1e:	911a                	add	sp,sp,t1

0000000080000f20 <i0000000219>:
    80000f20:	99016703          	lwu	a4,-1648(sp)

0000000080000f24 <i000000021a>:
    80000f24:	0107a833          	slt	a6,a5,a6

0000000080000f28 <i000000021b>:
    80000f28:	0000100f          	fence.i

0000000080000f2c <i000000021c>:
    80000f2c:	2fd10603          	lb	a2,765(sp)

0000000080000f30 <i000000021d>:
    80000f30:	0ff0000f          	fence

0000000080000f34 <i000000021e>:
    80000f34:	58f14217          	auipc	tp,0x58f14

0000000080000f38 <i000000021f>:
    80000f38:	20e13023          	sd	a4,512(sp)

0000000080000f3c <i0000000220>:
    80000f3c:	58812e83          	lw	t4,1416(sp)

0000000080000f40 <i0000000221>:
    80000f40:	5cf13c23          	sd	a5,1496(sp)

0000000080000f44 <i0000000222>:
    80000f44:	3d813803          	ld	a6,984(sp)
    80000f48:	00090117          	auipc	sp,0x90
    80000f4c:	0b810113          	addi	sp,sp,184 # 80091000 <begin_signature>
    80000f50:	6305                	lui	t1,0x1
    80000f52:	c583031b          	addiw	t1,t1,-936 # c58 <_tbss_end+0xc58>
    80000f56:	911a                	add	sp,sp,t1

0000000080000f58 <i0000000223>:
    80000f58:	f5911e23          	sh	s9,-164(sp)

0000000080000f5c <i0000000224>:
    80000f5c:	d4e102a3          	sb	a4,-699(sp)

0000000080000f60 <i0000000225>:
    80000f60:	0ec10503          	lb	a0,236(sp)

0000000080000f64 <i0000000226>:
    80000f64:	98e13823          	sd	a4,-1648(sp)

0000000080000f68 <i0000000227>:
    80000f68:	72816783          	lwu	a5,1832(sp)

0000000080000f6c <i0000000228>:
    80000f6c:	0ff0000f          	fence

0000000080000f70 <i0000000229>:
    80000f70:	7c016703          	lwu	a4,1984(sp)

0000000080000f74 <i000000022a>:
    80000f74:	00f7873b          	addw	a4,a5,a5

0000000080000f78 <i000000022b>:
    80000f78:	72d56f17          	auipc	t5,0x72d56

0000000080000f7c <i000000022c>:
    80000f7c:	34db8a9b          	addiw	s5,s7,845

0000000080000f80 <i000000022d>:
    80000f80:	0000100f          	fence.i

0000000080000f84 <i000000022e>:
    80000f84:	6759841b          	addiw	s0,s3,1653

0000000080000f88 <i000000022f>:
    80000f88:	0000100f          	fence.i

0000000080000f8c <i0000000230>:
    80000f8c:	4947c713          	xori	a4,a5,1172

0000000080000f90 <i0000000231>:
    80000f90:	0ff0000f          	fence

0000000080000f94 <i0000000232>:
    80000f94:	0ff0000f          	fence

0000000080000f98 <i0000000233>:
    80000f98:	0000100f          	fence.i

0000000080000f9c <i0000000234>:
    80000f9c:	015399bb          	sllw	s3,t2,s5

0000000080000fa0 <i0000000235>:
    80000fa0:	0ff0000f          	fence

0000000080000fa4 <i0000000236>:
    80000fa4:	cdf7899b          	addiw	s3,a5,-801

0000000080000fa8 <i0000000237>:
    80000fa8:	dee13423          	sd	a4,-536(sp)

0000000080000fac <i0000000238>:
    80000fac:	03011123          	sh	a6,34(sp)

0000000080000fb0 <i0000000239>:
    80000fb0:	53e74813          	xori	a6,a4,1342

0000000080000fb4 <i000000023a>:
    80000fb4:	0000100f          	fence.i

0000000080000fb8 <i000000023b>:
    80000fb8:	b5012023          	sw	a6,-1216(sp)

0000000080000fbc <i000000023c>:
    80000fbc:	7ee10623          	sb	a4,2028(sp)

0000000080000fc0 <i000000023d>:
    80000fc0:	56c16b83          	lwu	s7,1388(sp)

0000000080000fc4 <i000000023e>:
    80000fc4:	d2411803          	lh	a6,-732(sp)

0000000080000fc8 <i000000023f>:
    80000fc8:	0000100f          	fence.i

0000000080000fcc <i0000000240>:
    80000fcc:	c5416803          	lwu	a6,-940(sp)

0000000080000fd0 <i0000000241>:
    80000fd0:	49b3b813          	sltiu	a6,t2,1179

0000000080000fd4 <i0000000242>:
    80000fd4:	0ff0000f          	fence

0000000080000fd8 <i0000000243>:
    80000fd8:	59816283          	lwu	t0,1432(sp)

0000000080000fdc <i0000000244>:
    80000fdc:	10a11703          	lh	a4,266(sp)

0000000080000fe0 <i0000000245>:
    80000fe0:	0067539b          	srliw	t2,a4,0x6

0000000080000fe4 <i0000000246>:
    80000fe4:	41a9d733          	sra	a4,s3,s10

0000000080000fe8 <i0000000247>:
    80000fe8:	00cce833          	or	a6,s9,a2

0000000080000fec <i0000000248>:
    80000fec:	49816983          	lwu	s3,1176(sp)

0000000080000ff0 <i0000000249>:
    80000ff0:	a0f14883          	lbu	a7,-1521(sp)

0000000080000ff4 <i000000024a>:
    80000ff4:	410808bb          	subw	a7,a6,a6

0000000080000ff8 <i000000024b>:
    80000ff8:	00f7bf33          	sltu	t5,a5,a5

0000000080000ffc <i000000024c>:
    80000ffc:	0000100f          	fence.i

0000000080001000 <i000000024d>:
    80001000:	00ef5c9b          	srliw	s9,t5,0xe

0000000080001004 <i000000024e>:
    80001004:	b6e12023          	sw	a4,-1184(sp)

0000000080001008 <i000000024f>:
    80001008:	c8816283          	lwu	t0,-888(sp)

000000008000100c <i0000000250>:
    8000100c:	01965793          	srli	a5,a2,0x19

0000000080001010 <i0000000251>:
    80001010:	2b813203          	ld	tp,696(sp)

0000000080001014 <i0000000252>:
    80001014:	0ff0000f          	fence

0000000080001018 <i0000000253>:
    80001018:	57a13c23          	sd	s10,1400(sp)

000000008000101c <i0000000254>:
    8000101c:	16e15303          	lhu	t1,366(sp)

0000000080001020 <i0000000255>:
    80001020:	9f413823          	sd	s4,-1552(sp)

0000000080001024 <i0000000256>:
    80001024:	40e7d733          	sra	a4,a5,a4

0000000080001028 <i0000000257>:
    80001028:	017f1ebb          	sllw	t4,t5,s7

000000008000102c <i0000000258>:
    8000102c:	00e7d7bb          	srlw	a5,a5,a4

0000000080001030 <i0000000259>:
    80001030:	0000100f          	fence.i

0000000080001034 <i000000025a>:
    80001034:	0000100f          	fence.i

0000000080001038 <i000000025b>:
    80001038:	27211383          	lh	t2,626(sp)

000000008000103c <i000000025c>:
    8000103c:	01e7db13          	srli	s6,a5,0x1e

0000000080001040 <i000000025d>:
    80001040:	00f7e833          	or	a6,a5,a5
    80001044:	00090117          	auipc	sp,0x90
    80001048:	fbc10113          	addi	sp,sp,-68 # 80091000 <begin_signature>
    8000104c:	630d                	lui	t1,0x3
    8000104e:	eb03031b          	addiw	t1,t1,-336 # 2eb0 <_tbss_end+0x2eb0>
    80001052:	911a                	add	sp,sp,t1

0000000080001054 <i000000025e>:
    80001054:	a0b13423          	sd	a1,-1528(sp)

0000000080001058 <i000000025f>:
    80001058:	0000100f          	fence.i

000000008000105c <i0000000260>:
    8000105c:	0000100f          	fence.i

0000000080001060 <i0000000261>:
    80001060:	ba813383          	ld	t2,-1112(sp)

0000000080001064 <i0000000262>:
    80001064:	0107573b          	srlw	a4,a4,a6
    80001068:	00090117          	auipc	sp,0x90
    8000106c:	f9810113          	addi	sp,sp,-104 # 80091000 <begin_signature>
    80001070:	630d                	lui	t1,0x3
    80001072:	dd83031b          	addiw	t1,t1,-552 # 2dd8 <_tbss_end+0x2dd8>
    80001076:	911a                	add	sp,sp,t1

0000000080001078 <i0000000263>:
    80001078:	7ae13423          	sd	a4,1960(sp)

000000008000107c <i0000000264>:
    8000107c:	b3a15783          	lhu	a5,-1222(sp)
    80001080:	00090117          	auipc	sp,0x90
    80001084:	f8010113          	addi	sp,sp,-128 # 80091000 <begin_signature>
    80001088:	6309                	lui	t1,0x2
    8000108a:	1283031b          	addiw	t1,t1,296 # 2128 <_tbss_end+0x2128>
    8000108e:	911a                	add	sp,sp,t1

0000000080001090 <i0000000265>:
    80001090:	e6813f03          	ld	t5,-408(sp)

0000000080001094 <i0000000266>:
    80001094:	5a013f03          	ld	t5,1440(sp)

0000000080001098 <i0000000267>:
    80001098:	0000100f          	fence.i

000000008000109c <i0000000268>:
    8000109c:	0ff0000f          	fence

00000000800010a0 <i0000000269>:
    800010a0:	d1011703          	lh	a4,-752(sp)

00000000800010a4 <i000000026a>:
    800010a4:	481a                	lw	a6,132(sp)

00000000800010a6 <i000000026b>:
    800010a6:	4196debb          	sraw	t4,a3,s9

00000000800010aa <i000000026c>:
    800010aa:	0ff0000f          	fence

00000000800010ae <i000000026d>:
    800010ae:	87013c23          	sd	a6,-1928(sp)

00000000800010b2 <i000000026e>:
    800010b2:	41080a33          	sub	s4,a6,a6

00000000800010b6 <i000000026f>:
    800010b6:	90614803          	lbu	a6,-1786(sp)

00000000800010ba <i0000000270>:
    800010ba:	00f7b833          	sltu	a6,a5,a5

00000000800010be <i0000000271>:
    800010be:	00a91b3b          	sllw	s6,s2,a0

00000000800010c2 <i0000000272>:
    800010c2:	edc12823          	sw	t3,-304(sp)
    800010c6:	00090117          	auipc	sp,0x90
    800010ca:	f3a10113          	addi	sp,sp,-198 # 80091000 <begin_signature>
    800010ce:	630d                	lui	t1,0x3
    800010d0:	2003031b          	addiw	t1,t1,512 # 3200 <_tbss_end+0x3200>
    800010d4:	911a                	add	sp,sp,t1

00000000800010d6 <i0000000273>:
    800010d6:	8f813d83          	ld	s11,-1800(sp)

00000000800010da <i0000000274>:
    800010da:	40e707bb          	subw	a5,a4,a4

00000000800010de <i0000000275>:
    800010de:	c6c11983          	lh	s3,-916(sp)

00000000800010e2 <i0000000276>:
    800010e2:	21412f83          	lw	t6,532(sp)

00000000800010e6 <i0000000277>:
    800010e6:	99016603          	lwu	a2,-1648(sp)

00000000800010ea <i0000000278>:
    800010ea:	00d7d79b          	srliw	a5,a5,0xd

00000000800010ee <i0000000279>:
    800010ee:	4126d393          	srai	t2,a3,0x12

00000000800010f2 <i000000027a>:
    800010f2:	86e13c23          	sd	a4,-1928(sp)

00000000800010f6 <i000000027b>:
    800010f6:	65013703          	ld	a4,1616(sp)

00000000800010fa <i000000027c>:
    800010fa:	48f11523          	sh	a5,1162(sp)

00000000800010fe <i000000027d>:
    800010fe:	99813983          	ld	s3,-1640(sp)

0000000080001102 <i000000027e>:
    80001102:	94dc4713          	xori	a4,s8,-1715

0000000080001106 <i000000027f>:
    80001106:	82013883          	ld	a7,-2016(sp)

000000008000110a <i0000000280>:
    8000110a:	2c813783          	ld	a5,712(sp)

000000008000110e <i0000000281>:
    8000110e:	00e75bbb          	srlw	s7,a4,a4

0000000080001112 <i0000000282>:
    80001112:	0000100f          	fence.i

0000000080001116 <i0000000283>:
    80001116:	d2f10523          	sb	a5,-726(sp)

000000008000111a <i0000000284>:
    8000111a:	73410783          	lb	a5,1844(sp)
    8000111e:	00090117          	auipc	sp,0x90
    80001122:	ee210113          	addi	sp,sp,-286 # 80091000 <begin_signature>
    80001126:	630d                	lui	t1,0x3
    80001128:	7003031b          	addiw	t1,t1,1792 # 3700 <_tbss_end+0x3700>
    8000112c:	911a                	add	sp,sp,t1

000000008000112e <i0000000285>:
    8000112e:	82813423          	sd	s0,-2008(sp)

0000000080001132 <i0000000286>:
    80001132:	0197d693          	srli	a3,a5,0x19

0000000080001136 <i0000000287>:
    80001136:	56c11683          	lh	a3,1388(sp)

000000008000113a <i0000000288>:
    8000113a:	96e15183          	lhu	gp,-1682(sp)

000000008000113e <i0000000289>:
    8000113e:	0017571b          	srliw	a4,a4,0x1

0000000080001142 <i000000028a>:
    80001142:	7c402717          	auipc	a4,0x7c402

0000000080001146 <i000000028b>:
    80001146:	bd813c03          	ld	s8,-1064(sp)

000000008000114a <i000000028c>:
    8000114a:	72ecb817          	auipc	a6,0x72ecb

000000008000114e <i000000028d>:
    8000114e:	1e469497          	auipc	s1,0x1e469

0000000080001152 <i000000028e>:
    80001152:	7b413423          	sd	s4,1960(sp)

0000000080001156 <i000000028f>:
    80001156:	19311323          	sh	s3,390(sp)

000000008000115a <i0000000290>:
    8000115a:	81813903          	ld	s2,-2024(sp)

000000008000115e <i0000000291>:
    8000115e:	55c16a03          	lwu	s4,1372(sp)

0000000080001162 <i0000000292>:
    80001162:	00939713          	slli	a4,t2,0x9

0000000080001166 <i0000000293>:
    80001166:	c3011e23          	sh	a6,-964(sp)

000000008000116a <i0000000294>:
    8000116a:	0ff0000f          	fence

000000008000116e <i0000000295>:
    8000116e:	4cd13c23          	sd	a3,1240(sp)

0000000080001172 <i0000000296>:
    80001172:	0ff0000f          	fence

0000000080001176 <i0000000297>:
    80001176:	01599cbb          	sllw	s9,s3,s5
    8000117a:	00090117          	auipc	sp,0x90
    8000117e:	e8610113          	addi	sp,sp,-378 # 80091000 <begin_signature>
    80001182:	630d                	lui	t1,0x3
    80001184:	f103031b          	addiw	t1,t1,-240 # 2f10 <_tbss_end+0x2f10>
    80001188:	911a                	add	sp,sp,t1

000000008000118a <i0000000298>:
    8000118a:	46013783          	ld	a5,1120(sp)

000000008000118e <i0000000299>:
    8000118e:	0ff0000f          	fence

0000000080001192 <i000000029a>:
    80001192:	d7012823          	sw	a6,-656(sp)

0000000080001196 <i000000029b>:
    80001196:	035d1813          	slli	a6,s10,0x35

000000008000119a <i000000029c>:
    8000119a:	0ff0000f          	fence

000000008000119e <i000000029d>:
    8000119e:	2837879b          	addiw	a5,a5,643

00000000800011a2 <i000000029e>:
    800011a2:	43e11803          	lh	a6,1086(sp)

00000000800011a6 <i000000029f>:
    800011a6:	0000100f          	fence.i

00000000800011aa <i00000002a0>:
    800011aa:	0000100f          	fence.i

00000000800011ae <i00000002a1>:
    800011ae:	0ff0000f          	fence

00000000800011b2 <i00000002a2>:
    800011b2:	c4011803          	lh	a6,-960(sp)

00000000800011b6 <i00000002a3>:
    800011b6:	56813703          	ld	a4,1384(sp)

00000000800011ba <i00000002a4>:
    800011ba:	40f7853b          	subw	a0,a5,a5

00000000800011be <i00000002a5>:
    800011be:	0000100f          	fence.i

00000000800011c2 <i00000002a6>:
    800011c2:	0000100f          	fence.i

00000000800011c6 <i00000002a7>:
    800011c6:	0000100f          	fence.i

00000000800011ca <i00000002a8>:
    800011ca:	41a2d71b          	sraiw	a4,t0,0x1a

00000000800011ce <i00000002a9>:
    800011ce:	5c816803          	lwu	a6,1480(sp)
    800011d2:	00090117          	auipc	sp,0x90
    800011d6:	e2e10113          	addi	sp,sp,-466 # 80091000 <begin_signature>
    800011da:	6305                	lui	t1,0x1
    800011dc:	2383031b          	addiw	t1,t1,568 # 1238 <_tbss_end+0x1238>
    800011e0:	911a                	add	sp,sp,t1

00000000800011e2 <i00000002aa>:
    800011e2:	94013823          	sd	zero,-1712(sp)

00000000800011e6 <i00000002ab>:
    800011e6:	62010a03          	lb	s4,1568(sp)

00000000800011ea <i00000002ac>:
    800011ea:	38214803          	lbu	a6,898(sp)

00000000800011ee <i00000002ad>:
    800011ee:	cc511523          	sh	t0,-822(sp)

00000000800011f2 <i00000002ae>:
    800011f2:	42c15c83          	lhu	s9,1068(sp)

00000000800011f6 <i00000002af>:
    800011f6:	4b313023          	sd	s3,1184(sp)

00000000800011fa <i00000002b0>:
    800011fa:	005bd81b          	srliw	a6,s7,0x5

00000000800011fe <i00000002b1>:
    800011fe:	40f70b3b          	subw	s6,a4,a5

0000000080001202 <i00000002b2>:
    80001202:	0000100f          	fence.i

0000000080001206 <i00000002b3>:
    80001206:	0ff0000f          	fence

000000008000120a <i00000002b4>:
    8000120a:	3ac15703          	lhu	a4,940(sp)
    8000120e:	00090117          	auipc	sp,0x90
    80001212:	df210113          	addi	sp,sp,-526 # 80091000 <begin_signature>
    80001216:	630d                	lui	t1,0x3
    80001218:	d003031b          	addiw	t1,t1,-768 # 2d00 <_tbss_end+0x2d00>
    8000121c:	911a                	add	sp,sp,t1

000000008000121e <i00000002b5>:
    8000121e:	1b012783          	lw	a5,432(sp)

0000000080001222 <i00000002b6>:
    80001222:	0000100f          	fence.i

0000000080001226 <i00000002b7>:
    80001226:	0ff0000f          	fence
    8000122a:	00090117          	auipc	sp,0x90
    8000122e:	dd610113          	addi	sp,sp,-554 # 80091000 <begin_signature>
    80001232:	6305                	lui	t1,0x1
    80001234:	9983031b          	addiw	t1,t1,-1640 # 998 <_tbss_end+0x998>
    80001238:	911a                	add	sp,sp,t1

000000008000123a <i00000002b8>:
    8000123a:	25013023          	sd	a6,576(sp)

000000008000123e <i00000002b9>:
    8000123e:	cbc11783          	lh	a5,-836(sp)

0000000080001242 <i00000002ba>:
    80001242:	e8d14383          	lbu	t2,-371(sp)

0000000080001246 <i00000002bb>:
    80001246:	0119d73b          	srlw	a4,s3,a7

000000008000124a <i00000002bc>:
    8000124a:	ee82                	sd	zero,344(sp)
    8000124c:	00090117          	auipc	sp,0x90
    80001250:	db410113          	addi	sp,sp,-588 # 80091000 <begin_signature>
    80001254:	6309                	lui	t1,0x2
    80001256:	5383031b          	addiw	t1,t1,1336 # 2538 <_tbss_end+0x2538>
    8000125a:	911a                	add	sp,sp,t1

000000008000125c <i00000002bd>:
    8000125c:	12016803          	lwu	a6,288(sp)

0000000080001260 <i00000002be>:
    80001260:	f4013803          	ld	a6,-192(sp)

0000000080001264 <i00000002bf>:
    80001264:	0ff0000f          	fence

0000000080001268 <i00000002c0>:
    80001268:	fe912223          	sw	s1,-28(sp)

000000008000126c <i00000002c1>:
    8000126c:	b08103a3          	sb	s0,-1273(sp)

0000000080001270 <i00000002c2>:
    80001270:	0000100f          	fence.i

0000000080001274 <i00000002c3>:
    80001274:	d7a15703          	lhu	a4,-646(sp)

0000000080001278 <i00000002c4>:
    80001278:	0000100f          	fence.i

000000008000127c <i00000002c5>:
    8000127c:	0ba15303          	lhu	t1,186(sp)

0000000080001280 <i00000002c6>:
    80001280:	0000100f          	fence.i

0000000080001284 <i00000002c7>:
    80001284:	0ff0000f          	fence

0000000080001288 <i00000002c8>:
    80001288:	caf13c23          	sd	a5,-840(sp)

000000008000128c <i00000002c9>:
    8000128c:	0ff0000f          	fence

0000000080001290 <i00000002ca>:
    80001290:	0000100f          	fence.i

0000000080001294 <i00000002cb>:
    80001294:	03f85613          	srli	a2,a6,0x3f
    80001298:	00090117          	auipc	sp,0x90
    8000129c:	d6810113          	addi	sp,sp,-664 # 80091000 <begin_signature>
    800012a0:	6305                	lui	t1,0x1
    800012a2:	5b83031b          	addiw	t1,t1,1464 # 15b8 <_tbss_end+0x15b8>
    800012a6:	911a                	add	sp,sp,t1

00000000800012a8 <i00000002cc>:
    800012a8:	ad813303          	ld	t1,-1320(sp)

00000000800012ac <i00000002cd>:
    800012ac:	7a013d03          	ld	s10,1952(sp)
    800012b0:	00090117          	auipc	sp,0x90
    800012b4:	d5010113          	addi	sp,sp,-688 # 80091000 <begin_signature>
    800012b8:	6309                	lui	t1,0x2
    800012ba:	6083031b          	addiw	t1,t1,1544 # 2608 <_tbss_end+0x2608>
    800012be:	911a                	add	sp,sp,t1

00000000800012c0 <i00000002ce>:
    800012c0:	28813703          	ld	a4,648(sp)

00000000800012c4 <i00000002cf>:
    800012c4:	fec13423          	sd	a2,-24(sp)

00000000800012c8 <i00000002d0>:
    800012c8:	9ac15803          	lhu	a6,-1620(sp)

00000000800012cc <i00000002d1>:
    800012cc:	0ff0000f          	fence

00000000800012d0 <i00000002d2>:
    800012d0:	01d8581b          	srliw	a6,a6,0x1d

00000000800012d4 <i00000002d3>:
    800012d4:	0000100f          	fence.i

00000000800012d8 <i00000002d4>:
    800012d8:	410808bb          	subw	a7,a6,a6

00000000800012dc <i00000002d5>:
    800012dc:	0000100f          	fence.i

00000000800012e0 <i00000002d6>:
    800012e0:	004413bb          	sllw	t2,s0,tp

00000000800012e4 <i00000002d7>:
    800012e4:	0ff0000f          	fence

00000000800012e8 <i00000002d8>:
    800012e8:	43a85693          	srai	a3,a6,0x3a

00000000800012ec <i00000002d9>:
    800012ec:	41385213          	srai	tp,a6,0x13

00000000800012f0 <i00000002da>:
    800012f0:	0000100f          	fence.i

00000000800012f4 <i00000002db>:
    800012f4:	fb013423          	sd	a6,-88(sp)

00000000800012f8 <i00000002dc>:
    800012f8:	00e858bb          	srlw	a7,a6,a4

00000000800012fc <i00000002dd>:
    800012fc:	0118541b          	srliw	s0,a6,0x11

0000000080001300 <i00000002de>:
    80001300:	e32d081b          	addiw	a6,s10,-462

0000000080001304 <i00000002df>:
    80001304:	38230e1b          	addiw	t3,t1,898

0000000080001308 <i00000002e0>:
    80001308:	0000100f          	fence.i

000000008000130c <i00000002e1>:
    8000130c:	0ff0000f          	fence

0000000080001310 <i00000002e2>:
    80001310:	00e709bb          	addw	s3,a4,a4

0000000080001314 <i00000002e3>:
    80001314:	0067d81b          	srliw	a6,a5,0x6

0000000080001318 <i00000002e4>:
    80001318:	abc16583          	lwu	a1,-1348(sp)

000000008000131c <i00000002e5>:
    8000131c:	0ff0000f          	fence

0000000080001320 <i00000002e6>:
    80001320:	d8816283          	lwu	t0,-632(sp)

0000000080001324 <i00000002e7>:
    80001324:	0047979b          	slliw	a5,a5,0x4

0000000080001328 <i00000002e8>:
    80001328:	0000100f          	fence.i

000000008000132c <i00000002e9>:
    8000132c:	0ff0000f          	fence

0000000080001330 <i00000002ea>:
    80001330:	0000100f          	fence.i

0000000080001334 <i00000002eb>:
    80001334:	6bc12e23          	sw	t3,1724(sp)

0000000080001338 <i00000002ec>:
    80001338:	0ff0000f          	fence

000000008000133c <i00000002ed>:
    8000133c:	a0013803          	ld	a6,-1536(sp)
    80001340:	00090117          	auipc	sp,0x90
    80001344:	cc010113          	addi	sp,sp,-832 # 80091000 <begin_signature>
    80001348:	6309                	lui	t1,0x2
    8000134a:	b803031b          	addiw	t1,t1,-1152 # 1b80 <_tbss_end+0x1b80>
    8000134e:	911a                	add	sp,sp,t1

0000000080001350 <i00000002ee>:
    80001350:	af016803          	lwu	a6,-1296(sp)

0000000080001354 <i00000002ef>:
    80001354:	0000100f          	fence.i

0000000080001358 <i00000002f0>:
    80001358:	0000100f          	fence.i

000000008000135c <i00000002f1>:
    8000135c:	0000100f          	fence.i
    80001360:	00090117          	auipc	sp,0x90
    80001364:	ca010113          	addi	sp,sp,-864 # 80091000 <begin_signature>
    80001368:	6305                	lui	t1,0x1
    8000136a:	c983031b          	addiw	t1,t1,-872 # c98 <_tbss_end+0xc98>
    8000136e:	911a                	add	sp,sp,t1

0000000080001370 <i00000002f2>:
    80001370:	0c410803          	lb	a6,196(sp)

0000000080001374 <i00000002f3>:
    80001374:	fc3e                	sd	a5,56(sp)

0000000080001376 <i00000002f4>:
    80001376:	0ff0000f          	fence

000000008000137a <i00000002f5>:
    8000137a:	0000100f          	fence.i

000000008000137e <i00000002f6>:
    8000137e:	a1412783          	lw	a5,-1516(sp)

0000000080001382 <i00000002f7>:
    80001382:	00e8173b          	sllw	a4,a6,a4

0000000080001386 <i00000002f8>:
    80001386:	0ff0000f          	fence

000000008000138a <i00000002f9>:
    8000138a:	0000100f          	fence.i

000000008000138e <i00000002fa>:
    8000138e:	e2211783          	lh	a5,-478(sp)

0000000080001392 <i00000002fb>:
    80001392:	4002d73b          	sraw	a4,t0,zero

0000000080001396 <i00000002fc>:
    80001396:	41e8571b          	sraiw	a4,a6,0x1e

000000008000139a <i00000002fd>:
    8000139a:	bfd13c23          	sd	t4,-1032(sp)

000000008000139e <i00000002fe>:
    8000139e:	9af12a23          	sw	a5,-1612(sp)

00000000800013a2 <i00000002ff>:
    800013a2:	0ff0000f          	fence

00000000800013a6 <i0000000300>:
    800013a6:	0ff0000f          	fence

00000000800013aa <i0000000301>:
    800013aa:	0000100f          	fence.i

00000000800013ae <i0000000302>:
    800013ae:	0ff0000f          	fence

00000000800013b2 <i0000000303>:
    800013b2:	0000100f          	fence.i

00000000800013b6 <i0000000304>:
    800013b6:	41d85f9b          	sraiw	t6,a6,0x1d

00000000800013ba <i0000000305>:
    800013ba:	42dad793          	srai	a5,s5,0x2d

00000000800013be <i0000000306>:
    800013be:	a2813703          	ld	a4,-1496(sp)

00000000800013c2 <i0000000307>:
    800013c2:	e1c12f03          	lw	t5,-484(sp)

00000000800013c6 <i0000000308>:
    800013c6:	11f14603          	lbu	a2,287(sp)

00000000800013ca <i0000000309>:
    800013ca:	0ff0000f          	fence

00000000800013ce <i000000030a>:
    800013ce:	4a016a03          	lwu	s4,1184(sp)

00000000800013d2 <i000000030b>:
    800013d2:	a7016a83          	lwu	s5,-1424(sp)

00000000800013d6 <i000000030c>:
    800013d6:	0000100f          	fence.i

00000000800013da <i000000030d>:
    800013da:	f6013423          	sd	zero,-152(sp)

00000000800013de <i000000030e>:
    800013de:	8d615783          	lhu	a5,-1834(sp)

00000000800013e2 <i000000030f>:
    800013e2:	3b211323          	sh	s2,934(sp)

00000000800013e6 <i0000000310>:
    800013e6:	0ff0000f          	fence

00000000800013ea <i0000000311>:
    800013ea:	406edc13          	srai	s8,t4,0x6

00000000800013ee <i0000000312>:
    800013ee:	0000100f          	fence.i

00000000800013f2 <i0000000313>:
    800013f2:	49c16783          	lwu	a5,1180(sp)

00000000800013f6 <i0000000314>:
    800013f6:	0ff0000f          	fence
    800013fa:	00090117          	auipc	sp,0x90
    800013fe:	c0610113          	addi	sp,sp,-1018 # 80091000 <begin_signature>
    80001402:	6305                	lui	t1,0x1
    80001404:	8783031b          	addiw	t1,t1,-1928 # 878 <_tbss_end+0x878>
    80001408:	911a                	add	sp,sp,t1

000000008000140a <i0000000315>:
    8000140a:	54611703          	lh	a4,1350(sp)

000000008000140e <i0000000316>:
    8000140e:	53911a23          	sh	s9,1332(sp)

0000000080001412 <i0000000317>:
    80001412:	0267d013          	srli	zero,a5,0x26

0000000080001416 <i0000000318>:
    80001416:	0ff0000f          	fence

000000008000141a <i0000000319>:
    8000141a:	c3013c03          	ld	s8,-976(sp)

000000008000141e <i000000031a>:
    8000141e:	6177081b          	addiw	a6,a4,1559 # fffffffffc403759 <_end+0xffffffff7c36acf5>

0000000080001422 <i000000031b>:
    80001422:	bceb091b          	addiw	s2,s6,-1074

0000000080001426 <i000000031c>:
    80001426:	23011a23          	sh	a6,564(sp)

000000008000142a <i000000031d>:
    8000142a:	d0412303          	lw	t1,-764(sp)

000000008000142e <i000000031e>:
    8000142e:	cee12223          	sw	a4,-796(sp)
    80001432:	00090117          	auipc	sp,0x90
    80001436:	bce10113          	addi	sp,sp,-1074 # 80091000 <begin_signature>
    8000143a:	6305                	lui	t1,0x1
    8000143c:	3203031b          	addiw	t1,t1,800 # 1320 <_tbss_end+0x1320>
    80001440:	911a                	add	sp,sp,t1

0000000080001442 <i000000031f>:
    80001442:	b7314803          	lbu	a6,-1165(sp)

0000000080001446 <i0000000320>:
    80001446:	42085b93          	srai	s7,a6,0x20

000000008000144a <i0000000321>:
    8000144a:	de814203          	lbu	tp,-536(sp)

000000008000144e <i0000000322>:
    8000144e:	02bfd813          	srli	a6,t6,0x2b

0000000080001452 <i0000000323>:
    80001452:	0000100f          	fence.i

0000000080001456 <i0000000324>:
    80001456:	d8f13823          	sd	a5,-624(sp)
    8000145a:	00090117          	auipc	sp,0x90
    8000145e:	ba610113          	addi	sp,sp,-1114 # 80091000 <begin_signature>
    80001462:	630d                	lui	t1,0x3
    80001464:	4c03031b          	addiw	t1,t1,1216 # 34c0 <_tbss_end+0x34c0>
    80001468:	911a                	add	sp,sp,t1

000000008000146a <i0000000325>:
    8000146a:	e7d10723          	sb	t4,-402(sp)

000000008000146e <i0000000326>:
    8000146e:	0af11023          	sh	a5,160(sp)

0000000080001472 <i0000000327>:
    80001472:	13010703          	lb	a4,304(sp)

0000000080001476 <i0000000328>:
    80001476:	0ff0000f          	fence
    8000147a:	00090117          	auipc	sp,0x90
    8000147e:	b8610113          	addi	sp,sp,-1146 # 80091000 <begin_signature>
    80001482:	630d                	lui	t1,0x3
    80001484:	3283031b          	addiw	t1,t1,808 # 3328 <_tbss_end+0x3328>
    80001488:	911a                	add	sp,sp,t1

000000008000148a <i0000000329>:
    8000148a:	faf12a23          	sw	a5,-76(sp)

000000008000148e <i000000032a>:
    8000148e:	63813703          	ld	a4,1592(sp)

0000000080001492 <i000000032b>:
    80001492:	20311a23          	sh	gp,532(sp)
    80001496:	00090117          	auipc	sp,0x90
    8000149a:	b6a10113          	addi	sp,sp,-1174 # 80091000 <begin_signature>
    8000149e:	6305                	lui	t1,0x1
    800014a0:	2b03031b          	addiw	t1,t1,688 # 12b0 <_tbss_end+0x12b0>
    800014a4:	911a                	add	sp,sp,t1

00000000800014a6 <i000000032c>:
    800014a6:	d7813d03          	ld	s10,-648(sp)
    800014aa:	00090117          	auipc	sp,0x90
    800014ae:	b5610113          	addi	sp,sp,-1194 # 80091000 <begin_signature>
    800014b2:	630d                	lui	t1,0x3
    800014b4:	bf03031b          	addiw	t1,t1,-1040 # 2bf0 <_tbss_end+0x2bf0>
    800014b8:	911a                	add	sp,sp,t1

00000000800014ba <i000000032d>:
    800014ba:	01e15b03          	lhu	s6,30(sp)
    800014be:	00090117          	auipc	sp,0x90
    800014c2:	b4210113          	addi	sp,sp,-1214 # 80091000 <begin_signature>
    800014c6:	6305                	lui	t1,0x1
    800014c8:	d683031b          	addiw	t1,t1,-664 # d68 <_tbss_end+0xd68>
    800014cc:	911a                	add	sp,sp,t1

00000000800014ce <i000000032e>:
    800014ce:	9b813783          	ld	a5,-1608(sp)

00000000800014d2 <i000000032f>:
    800014d2:	57413023          	sd	s4,1376(sp)

00000000800014d6 <i0000000330>:
    800014d6:	88013e83          	ld	t4,-1920(sp)

00000000800014da <i0000000331>:
    800014da:	005e581b          	srliw	a6,t3,0x5

00000000800014de <i0000000332>:
    800014de:	99110703          	lb	a4,-1647(sp)

00000000800014e2 <i0000000333>:
    800014e2:	0ff0000f          	fence
    800014e6:	00090117          	auipc	sp,0x90
    800014ea:	b1a10113          	addi	sp,sp,-1254 # 80091000 <begin_signature>
    800014ee:	6309                	lui	t1,0x2
    800014f0:	4083031b          	addiw	t1,t1,1032 # 2408 <_tbss_end+0x2408>
    800014f4:	911a                	add	sp,sp,t1

00000000800014f6 <i0000000334>:
    800014f6:	9d510ea3          	sb	s5,-1571(sp)
    800014fa:	00090117          	auipc	sp,0x90
    800014fe:	b0610113          	addi	sp,sp,-1274 # 80091000 <begin_signature>
    80001502:	630d                	lui	t1,0x3
    80001504:	4183031b          	addiw	t1,t1,1048 # 3418 <_tbss_end+0x3418>
    80001508:	911a                	add	sp,sp,t1

000000008000150a <i0000000335>:
    8000150a:	38310d83          	lb	s11,899(sp)

000000008000150e <i0000000336>:
    8000150e:	43d7da13          	srai	s4,a5,0x3d

0000000080001512 <i0000000337>:
    80001512:	e1013803          	ld	a6,-496(sp)

0000000080001516 <i0000000338>:
    80001516:	2dd88d1b          	addiw	s10,a7,733

000000008000151a <i0000000339>:
    8000151a:	ec812783          	lw	a5,-312(sp)

000000008000151e <i000000033a>:
    8000151e:	2e011203          	lh	tp,736(sp)

0000000080001522 <i000000033b>:
    80001522:	4a77889b          	addiw	a7,a5,1191

0000000080001526 <i000000033c>:
    80001526:	f7b10503          	lb	a0,-133(sp)
    8000152a:	00090117          	auipc	sp,0x90
    8000152e:	ad610113          	addi	sp,sp,-1322 # 80091000 <begin_signature>
    80001532:	6309                	lui	t1,0x2
    80001534:	7503031b          	addiw	t1,t1,1872 # 2750 <_tbss_end+0x2750>
    80001538:	911a                	add	sp,sp,t1

000000008000153a <i000000033d>:
    8000153a:	6f013583          	ld	a1,1776(sp)

000000008000153e <i000000033e>:
    8000153e:	0000100f          	fence.i

0000000080001542 <i000000033f>:
    80001542:	d5416783          	lwu	a5,-684(sp)

0000000080001546 <i0000000340>:
    80001546:	ac814383          	lbu	t2,-1336(sp)

000000008000154a <i0000000341>:
    8000154a:	ab013023          	sd	a6,-1376(sp)

000000008000154e <i0000000342>:
    8000154e:	0ff0000f          	fence

0000000080001552 <i0000000343>:
    80001552:	41ca053b          	subw	a0,s4,t3

0000000080001556 <i0000000344>:
    80001556:	53013703          	ld	a4,1328(sp)

000000008000155a <i0000000345>:
    8000155a:	e2215703          	lhu	a4,-478(sp)
    8000155e:	00090117          	auipc	sp,0x90
    80001562:	aa210113          	addi	sp,sp,-1374 # 80091000 <begin_signature>
    80001566:	630d                	lui	t1,0x3
    80001568:	0383031b          	addiw	t1,t1,56 # 3038 <_tbss_end+0x3038>
    8000156c:	911a                	add	sp,sp,t1

000000008000156e <i0000000346>:
    8000156e:	35610603          	lb	a2,854(sp)

0000000080001572 <i0000000347>:
    80001572:	d4510a03          	lb	s4,-699(sp)

0000000080001576 <i0000000348>:
    80001576:	13c16683          	lwu	a3,316(sp)

000000008000157a <i0000000349>:
    8000157a:	b7816b83          	lwu	s7,-1160(sp)

000000008000157e <i000000034a>:
    8000157e:	e0710803          	lb	a6,-505(sp)

0000000080001582 <i000000034b>:
    80001582:	40f7dabb          	sraw	s5,a5,a5

0000000080001586 <i000000034c>:
    80001586:	b0c16703          	lwu	a4,-1268(sp)

000000008000158a <i000000034d>:
    8000158a:	0188941b          	slliw	s0,a7,0x18

000000008000158e <i000000034e>:
    8000158e:	3a013703          	ld	a4,928(sp)

0000000080001592 <i000000034f>:
    80001592:	01edd81b          	srliw	a6,s11,0x1e
    80001596:	00090117          	auipc	sp,0x90
    8000159a:	a6a10113          	addi	sp,sp,-1430 # 80091000 <begin_signature>
    8000159e:	630d                	lui	t1,0x3
    800015a0:	3341                	addiw	t1,t1,-16 # 2ff0 <_tbss_end+0x2ff0>
    800015a2:	911a                	add	sp,sp,t1

00000000800015a4 <i0000000350>:
    800015a4:	4f813703          	ld	a4,1272(sp)

00000000800015a8 <i0000000351>:
    800015a8:	eac16803          	lwu	a6,-340(sp)

00000000800015ac <i0000000352>:
    800015ac:	e4016e03          	lwu	t3,-448(sp)

00000000800015b0 <i0000000353>:
    800015b0:	0ff0000f          	fence

00000000800015b4 <i0000000354>:
    800015b4:	ee610603          	lb	a2,-282(sp)

00000000800015b8 <i0000000355>:
    800015b8:	018f1b1b          	slliw	s6,t5,0x18

00000000800015bc <i0000000356>:
    800015bc:	36611983          	lh	s3,870(sp)

00000000800015c0 <i0000000357>:
    800015c0:	40e751bb          	sraw	gp,a4,a4

00000000800015c4 <i0000000358>:
    800015c4:	0ff0000f          	fence

00000000800015c8 <i0000000359>:
    800015c8:	0000100f          	fence.i

00000000800015cc <i000000035a>:
    800015cc:	6d913023          	sd	s9,1728(sp)

00000000800015d0 <i000000035b>:
    800015d0:	ae813783          	ld	a5,-1304(sp)

00000000800015d4 <i000000035c>:
    800015d4:	0000100f          	fence.i

00000000800015d8 <i000000035d>:
    800015d8:	0ff0000f          	fence

00000000800015dc <i000000035e>:
    800015dc:	0000100f          	fence.i

00000000800015e0 <i000000035f>:
    800015e0:	f4e101a3          	sb	a4,-189(sp)

00000000800015e4 <i0000000360>:
    800015e4:	0000100f          	fence.i

00000000800015e8 <i0000000361>:
    800015e8:	0ff0000f          	fence

00000000800015ec <i0000000362>:
    800015ec:	02a55713          	srli	a4,a0,0x2a

00000000800015f0 <i0000000363>:
    800015f0:	0ff0000f          	fence

00000000800015f4 <i0000000364>:
    800015f4:	019c07bb          	addw	a5,s8,s9

00000000800015f8 <i0000000365>:
    800015f8:	0057d193          	srli	gp,a5,0x5

00000000800015fc <i0000000366>:
    800015fc:	40e7573b          	sraw	a4,a4,a4

0000000080001600 <i0000000367>:
    80001600:	40813503          	ld	a0,1032(sp)

0000000080001604 <i0000000368>:
    80001604:	0000100f          	fence.i

0000000080001608 <i0000000369>:
    80001608:	02b2d713          	srli	a4,t0,0x2b

000000008000160c <i000000036a>:
    8000160c:	4078d81b          	sraiw	a6,a7,0x7

0000000080001610 <i000000036b>:
    80001610:	02d79313          	slli	t1,a5,0x2d

0000000080001614 <i000000036c>:
    80001614:	0000100f          	fence.i

0000000080001618 <i000000036d>:
    80001618:	0000100f          	fence.i

000000008000161c <i000000036e>:
    8000161c:	81811483          	lh	s1,-2024(sp)

0000000080001620 <i000000036f>:
    80001620:	b1215783          	lhu	a5,-1262(sp)

0000000080001624 <i0000000370>:
    80001624:	00f7dcbb          	srlw	s9,a5,a5

0000000080001628 <i0000000371>:
    80001628:	7e713023          	sd	t2,2016(sp)

000000008000162c <i0000000372>:
    8000162c:	0000100f          	fence.i

0000000080001630 <i0000000373>:
    80001630:	f4813e83          	ld	t4,-184(sp)

0000000080001634 <i0000000374>:
    80001634:	43175793          	srai	a5,a4,0x31

0000000080001638 <i0000000375>:
    80001638:	3ab14183          	lbu	gp,939(sp)

000000008000163c <i0000000376>:
    8000163c:	0000100f          	fence.i

0000000080001640 <i0000000377>:
    80001640:	0000100f          	fence.i

0000000080001644 <i0000000378>:
    80001644:	00e81ebb          	sllw	t4,a6,a4

0000000080001648 <i0000000379>:
    80001648:	cf816c03          	lwu	s8,-776(sp)

000000008000164c <i000000037a>:
    8000164c:	60e11c23          	sh	a4,1560(sp)
    80001650:	00090117          	auipc	sp,0x90
    80001654:	9b010113          	addi	sp,sp,-1616 # 80091000 <begin_signature>
    80001658:	630d                	lui	t1,0x3
    8000165a:	1c83031b          	addiw	t1,t1,456 # 31c8 <_tbss_end+0x31c8>
    8000165e:	911a                	add	sp,sp,t1

0000000080001660 <i000000037b>:
    80001660:	1c712a23          	sw	t2,468(sp)

0000000080001664 <i000000037c>:
    80001664:	406ed713          	srai	a4,t4,0x6

0000000080001668 <i000000037d>:
    80001668:	b5714f03          	lbu	t5,-1193(sp)
    8000166c:	00090117          	auipc	sp,0x90
    80001670:	99410113          	addi	sp,sp,-1644 # 80091000 <begin_signature>
    80001674:	6309                	lui	t1,0x2
    80001676:	2903031b          	addiw	t1,t1,656 # 2290 <_tbss_end+0x2290>
    8000167a:	911a                	add	sp,sp,t1

000000008000167c <i000000037e>:
    8000167c:	a2016803          	lwu	a6,-1504(sp)

0000000080001680 <i000000037f>:
    80001680:	4a78021b          	addiw	tp,a6,1191 # fffffffff2ecc5f1 <_end+0xffffffff72e33b8d>

0000000080001684 <i0000000380>:
    80001684:	0ff0000f          	fence

0000000080001688 <i0000000381>:
    80001688:	71710703          	lb	a4,1815(sp)

000000008000168c <i0000000382>:
    8000168c:	0ff0000f          	fence

0000000080001690 <i0000000383>:
    80001690:	24012783          	lw	a5,576(sp)

0000000080001694 <i0000000384>:
    80001694:	0000100f          	fence.i

0000000080001698 <i0000000385>:
    80001698:	24f11f23          	sh	a5,606(sp)

000000008000169c <i0000000386>:
    8000169c:	40585f13          	srai	t5,a6,0x5

00000000800016a0 <i0000000387>:
    800016a0:	7eb12c23          	sw	a1,2040(sp)
    800016a4:	00090117          	auipc	sp,0x90
    800016a8:	95c10113          	addi	sp,sp,-1700 # 80091000 <begin_signature>
    800016ac:	6309                	lui	t1,0x2
    800016ae:	6003031b          	addiw	t1,t1,1536 # 2600 <_tbss_end+0x2600>
    800016b2:	911a                	add	sp,sp,t1

00000000800016b4 <i0000000388>:
    800016b4:	d4211483          	lh	s1,-702(sp)

00000000800016b8 <i0000000389>:
    800016b8:	0148571b          	srliw	a4,a6,0x14

00000000800016bc <i000000038a>:
    800016bc:	40d48d3b          	subw	s10,s1,a3

00000000800016c0 <i000000038b>:
    800016c0:	0000100f          	fence.i

00000000800016c4 <i000000038c>:
    800016c4:	0000100f          	fence.i

00000000800016c8 <i000000038d>:
    800016c8:	2e016983          	lwu	s3,736(sp)

00000000800016cc <i000000038e>:
    800016cc:	6e860e9b          	addiw	t4,a2,1768
    800016d0:	00090117          	auipc	sp,0x90
    800016d4:	93010113          	addi	sp,sp,-1744 # 80091000 <begin_signature>
    800016d8:	6309                	lui	t1,0x2
    800016da:	8203031b          	addiw	t1,t1,-2016 # 1820 <_tbss_end+0x1820>
    800016de:	911a                	add	sp,sp,t1

00000000800016e0 <i000000038f>:
    800016e0:	66012f03          	lw	t5,1632(sp)

00000000800016e4 <i0000000390>:
    800016e4:	0ff0000f          	fence

00000000800016e8 <i0000000391>:
    800016e8:	c4013f83          	ld	t6,-960(sp)

00000000800016ec <i0000000392>:
    800016ec:	7d816483          	lwu	s1,2008(sp)

00000000800016f0 <i0000000393>:
    800016f0:	2a416783          	lwu	a5,676(sp)
    800016f4:	00090117          	auipc	sp,0x90
    800016f8:	90c10113          	addi	sp,sp,-1780 # 80091000 <begin_signature>
    800016fc:	6309                	lui	t1,0x2
    800016fe:	b703031b          	addiw	t1,t1,-1168 # 1b70 <_tbss_end+0x1b70>
    80001702:	911a                	add	sp,sp,t1

0000000080001704 <i0000000394>:
    80001704:	59813583          	ld	a1,1432(sp)

0000000080001708 <i0000000395>:
    80001708:	49016583          	lwu	a1,1168(sp)

000000008000170c <i0000000396>:
    8000170c:	bce10783          	lb	a5,-1074(sp)

0000000080001710 <i0000000397>:
    80001710:	ea810223          	sb	s0,-348(sp)

0000000080001714 <i0000000398>:
    80001714:	0000100f          	fence.i
    80001718:	00090117          	auipc	sp,0x90
    8000171c:	8e810113          	addi	sp,sp,-1816 # 80091000 <begin_signature>
    80001720:	6309                	lui	t1,0x2
    80001722:	2341                	addiw	t1,t1,16 # 2010 <_tbss_end+0x2010>
    80001724:	911a                	add	sp,sp,t1

0000000080001726 <i0000000399>:
    80001726:	6d416803          	lwu	a6,1748(sp)

000000008000172a <i000000039a>:
    8000172a:	e2e10a23          	sb	a4,-460(sp)

000000008000172e <i000000039b>:
    8000172e:	0ff0000f          	fence

0000000080001732 <i000000039c>:
    80001732:	56813803          	ld	a6,1384(sp)

0000000080001736 <i000000039d>:
    80001736:	0227d813          	srli	a6,a5,0x22
    8000173a:	00090117          	auipc	sp,0x90
    8000173e:	8c610113          	addi	sp,sp,-1850 # 80091000 <begin_signature>
    80001742:	6309                	lui	t1,0x2
    80001744:	9c83031b          	addiw	t1,t1,-1592 # 19c8 <_tbss_end+0x19c8>
    80001748:	911a                	add	sp,sp,t1

000000008000174a <i000000039e>:
    8000174a:	85813283          	ld	t0,-1960(sp)

000000008000174e <i000000039f>:
    8000174e:	50016703          	lwu	a4,1280(sp)

0000000080001752 <i00000003a0>:
    80001752:	8ab12e23          	sw	a1,-1860(sp)

0000000080001756 <i00000003a1>:
    80001756:	93eb071b          	addiw	a4,s6,-1730

000000008000175a <i00000003a2>:
    8000175a:	0ff0000f          	fence

000000008000175e <i00000003a3>:
    8000175e:	78da                	ld	a7,432(sp)

0000000080001760 <i00000003a4>:
    80001760:	2ab11723          	sh	a1,686(sp)

0000000080001764 <i00000003a5>:
    80001764:	6b814783          	lbu	a5,1720(sp)

0000000080001768 <i00000003a6>:
    80001768:	ce011c23          	sh	zero,-776(sp)

000000008000176c <i00000003a7>:
    8000176c:	feba                	sd	a4,376(sp)

000000008000176e <i00000003a8>:
    8000176e:	bb713423          	sd	s7,-1112(sp)

0000000080001772 <i00000003a9>:
    80001772:	0ff0000f          	fence

0000000080001776 <i00000003aa>:
    80001776:	0000100f          	fence.i

000000008000177a <i00000003ab>:
    8000177a:	03675c13          	srli	s8,a4,0x36

000000008000177e <i00000003ac>:
    8000177e:	40d7d013          	srai	zero,a5,0xd

0000000080001782 <i00000003ad>:
    80001782:	070108a3          	sb	a6,113(sp)

0000000080001786 <i00000003ae>:
    80001786:	ba415883          	lhu	a7,-1116(sp)

000000008000178a <i00000003af>:
    8000178a:	00f78a3b          	addw	s4,a5,a5

000000008000178e <i00000003b0>:
    8000178e:	f4f10823          	sb	a5,-176(sp)

0000000080001792 <i00000003b1>:
    80001792:	e4f13823          	sd	a5,-432(sp)

0000000080001796 <i00000003b2>:
    80001796:	0000100f          	fence.i

000000008000179a <i00000003b3>:
    8000179a:	66f11f23          	sh	a5,1662(sp)

000000008000179e <i00000003b4>:
    8000179e:	0000100f          	fence.i

00000000800017a2 <i00000003b5>:
    800017a2:	0000100f          	fence.i

00000000800017a6 <i00000003b6>:
    800017a6:	fe816903          	lwu	s2,-24(sp)

00000000800017aa <i00000003b7>:
    800017aa:	02e05813          	srli	a6,zero,0x2e

00000000800017ae <i00000003b8>:
    800017ae:	0000100f          	fence.i

00000000800017b2 <i00000003b9>:
    800017b2:	0107973b          	sllw	a4,a5,a6
    800017b6:	00090117          	auipc	sp,0x90
    800017ba:	84a10113          	addi	sp,sp,-1974 # 80091000 <begin_signature>
    800017be:	6305                	lui	t1,0x1
    800017c0:	2803031b          	addiw	t1,t1,640 # 1280 <_tbss_end+0x1280>
    800017c4:	911a                	add	sp,sp,t1

00000000800017c6 <i00000003ba>:
    800017c6:	7e016703          	lwu	a4,2016(sp)

00000000800017ca <i00000003bb>:
    800017ca:	0ff0000f          	fence

00000000800017ce <i00000003bc>:
    800017ce:	03805793          	srli	a5,zero,0x38

00000000800017d2 <i00000003bd>:
    800017d2:	35b13c23          	sd	s11,856(sp)

00000000800017d6 <i00000003be>:
    800017d6:	0ff0000f          	fence

00000000800017da <i00000003bf>:
    800017da:	00171013          	slli	zero,a4,0x1

00000000800017de <i00000003c0>:
    800017de:	0ff0000f          	fence
    800017e2:	00090117          	auipc	sp,0x90
    800017e6:	81e10113          	addi	sp,sp,-2018 # 80091000 <begin_signature>
    800017ea:	6305                	lui	t1,0x1
    800017ec:	9b03031b          	addiw	t1,t1,-1616 # 9b0 <_tbss_end+0x9b0>
    800017f0:	911a                	add	sp,sp,t1

00000000800017f2 <i00000003c1>:
    800017f2:	21013423          	sd	a6,520(sp)

00000000800017f6 <i00000003c2>:
    800017f6:	400dd793          	srai	a5,s11,0x0

00000000800017fa <i00000003c3>:
    800017fa:	0ff0000f          	fence

00000000800017fe <i00000003c4>:
    800017fe:	54211803          	lh	a6,1346(sp)

0000000080001802 <i00000003c5>:
    80001802:	2d012703          	lw	a4,720(sp)

0000000080001806 <i00000003c6>:
    80001806:	00c4571b          	srliw	a4,s0,0xc

000000008000180a <i00000003c7>:
    8000180a:	0ff0000f          	fence
    8000180e:	0008f117          	auipc	sp,0x8f
    80001812:	7f210113          	addi	sp,sp,2034 # 80091000 <begin_signature>
    80001816:	6305                	lui	t1,0x1
    80001818:	5a03031b          	addiw	t1,t1,1440 # 15a0 <_tbss_end+0x15a0>
    8000181c:	911a                	add	sp,sp,t1

000000008000181e <i00000003c8>:
    8000181e:	46b13423          	sd	a1,1128(sp)

0000000080001822 <i00000003c9>:
    80001822:	52d13023          	sd	a3,1312(sp)

0000000080001826 <i00000003ca>:
    80001826:	0ff0000f          	fence

000000008000182a <i00000003cb>:
    8000182a:	9db13c23          	sd	s11,-1576(sp)

000000008000182e <i00000003cc>:
    8000182e:	7c813b03          	ld	s6,1992(sp)

0000000080001832 <i00000003cd>:
    80001832:	0ff0000f          	fence

0000000080001836 <i00000003ce>:
    80001836:	0ff0000f          	fence

000000008000183a <i00000003cf>:
    8000183a:	0017181b          	slliw	a6,a4,0x1

000000008000183e <i00000003d0>:
    8000183e:	00e78ebb          	addw	t4,a5,a4
    80001842:	0008f117          	auipc	sp,0x8f
    80001846:	7be10113          	addi	sp,sp,1982 # 80091000 <begin_signature>
    8000184a:	6305                	lui	t1,0x1
    8000184c:	e403031b          	addiw	t1,t1,-448 # e40 <_tbss_end+0xe40>
    80001850:	911a                	add	sp,sp,t1

0000000080001852 <i00000003d1>:
    80001852:	ea016783          	lwu	a5,-352(sp)

0000000080001856 <i00000003d2>:
    80001856:	7ba15783          	lhu	a5,1978(sp)

000000008000185a <i00000003d3>:
    8000185a:	51214d83          	lbu	s11,1298(sp)

000000008000185e <i00000003d4>:
    8000185e:	02d7dd13          	srli	s10,a5,0x2d

0000000080001862 <i00000003d5>:
    80001862:	38f12c23          	sw	a5,920(sp)

0000000080001866 <i00000003d6>:
    80001866:	69911323          	sh	s9,1670(sp)

000000008000186a <i00000003d7>:
    8000186a:	6742                	ld	a4,16(sp)
    8000186c:	0008f117          	auipc	sp,0x8f
    80001870:	79410113          	addi	sp,sp,1940 # 80091000 <begin_signature>
    80001874:	630d                	lui	t1,0x3
    80001876:	c883031b          	addiw	t1,t1,-888 # 2c88 <_tbss_end+0x2c88>
    8000187a:	911a                	add	sp,sp,t1

000000008000187c <i00000003d8>:
    8000187c:	1ce11c23          	sh	a4,472(sp)

0000000080001880 <i00000003d9>:
    80001880:	b6914703          	lbu	a4,-1175(sp)

0000000080001884 <i00000003da>:
    80001884:	01775d9b          	srliw	s11,a4,0x17
    80001888:	0008f117          	auipc	sp,0x8f
    8000188c:	77810113          	addi	sp,sp,1912 # 80091000 <begin_signature>
    80001890:	6305                	lui	t1,0x1
    80001892:	4103031b          	addiw	t1,t1,1040 # 1410 <_tbss_end+0x1410>
    80001896:	911a                	add	sp,sp,t1

0000000080001898 <i00000003db>:
    80001898:	86c16a83          	lwu	s5,-1940(sp)

000000008000189c <i00000003dc>:
    8000189c:	006f9a1b          	slliw	s4,t6,0x6

00000000800018a0 <i00000003dd>:
    800018a0:	018dd7bb          	srlw	a5,s11,s8

00000000800018a4 <i00000003de>:
    800018a4:	cb815383          	lhu	t2,-840(sp)

00000000800018a8 <i00000003df>:
    800018a8:	fc52                	sd	s4,56(sp)

00000000800018aa <i00000003e0>:
    800018aa:	0ff0000f          	fence

00000000800018ae <i00000003e1>:
    800018ae:	87013e83          	ld	t4,-1936(sp)

00000000800018b2 <i00000003e2>:
    800018b2:	0000100f          	fence.i

00000000800018b6 <i00000003e3>:
    800018b6:	006a873b          	addw	a4,s5,t1

00000000800018ba <i00000003e4>:
    800018ba:	0ff0000f          	fence

00000000800018be <i00000003e5>:
    800018be:	0ff0000f          	fence

00000000800018c2 <i00000003e6>:
    800018c2:	0000100f          	fence.i

00000000800018c6 <i00000003e7>:
    800018c6:	30e11023          	sh	a4,768(sp)

00000000800018ca <i00000003e8>:
    800018ca:	c3816783          	lwu	a5,-968(sp)

00000000800018ce <i00000003e9>:
    800018ce:	b5f11323          	sh	t6,-1210(sp)

00000000800018d2 <i00000003ea>:
    800018d2:	0ff0000f          	fence
    800018d6:	0008f117          	auipc	sp,0x8f
    800018da:	72a10113          	addi	sp,sp,1834 # 80091000 <begin_signature>
    800018de:	630d                	lui	t1,0x3
    800018e0:	5103031b          	addiw	t1,t1,1296 # 3510 <_tbss_end+0x3510>
    800018e4:	911a                	add	sp,sp,t1

00000000800018e6 <i00000003eb>:
    800018e6:	2bc11483          	lh	s1,700(sp)

00000000800018ea <i00000003ec>:
    800018ea:	a9313423          	sd	s3,-1400(sp)

00000000800018ee <i00000003ed>:
    800018ee:	00f7973b          	sllw	a4,a5,a5
    800018f2:	0008f117          	auipc	sp,0x8f
    800018f6:	70e10113          	addi	sp,sp,1806 # 80091000 <begin_signature>
    800018fa:	630d                	lui	t1,0x3
    800018fc:	8683031b          	addiw	t1,t1,-1944 # 2868 <_tbss_end+0x2868>
    80001900:	911a                	add	sp,sp,t1

0000000080001902 <i00000003ee>:
    80001902:	f0813a03          	ld	s4,-248(sp)

0000000080001906 <i00000003ef>:
    80001906:	0000100f          	fence.i

000000008000190a <i00000003f0>:
    8000190a:	01af1ebb          	sllw	t4,t5,s10

000000008000190e <i00000003f1>:
    8000190e:	0000100f          	fence.i

0000000080001912 <i00000003f2>:
    80001912:	0ff0000f          	fence

0000000080001916 <i00000003f3>:
    80001916:	0000100f          	fence.i

000000008000191a <i00000003f4>:
    8000191a:	71015703          	lhu	a4,1808(sp)

000000008000191e <i00000003f5>:
    8000191e:	0000100f          	fence.i

0000000080001922 <i00000003f6>:
    80001922:	9cd13c23          	sd	a3,-1576(sp)

0000000080001926 <i00000003f7>:
    80001926:	0000100f          	fence.i

000000008000192a <i00000003f8>:
    8000192a:	57013803          	ld	a6,1392(sp)

000000008000192e <i00000003f9>:
    8000192e:	0ff0000f          	fence

0000000080001932 <i00000003fa>:
    80001932:	41013783          	ld	a5,1040(sp)

0000000080001936 <i00000003fb>:
    80001936:	cd911823          	sh	s9,-816(sp)

000000008000193a <i00000003fc>:
    8000193a:	43b85713          	srai	a4,a6,0x3b

000000008000193e <i00000003fd>:
    8000193e:	00079c1b          	slliw	s8,a5,0x0

0000000080001942 <i00000003fe>:
    80001942:	01a75c93          	srli	s9,a4,0x1a

0000000080001946 <i00000003ff>:
    80001946:	fbb10783          	lb	a5,-69(sp)

000000008000194a <i0000000400>:
    8000194a:	6dc16803          	lwu	a6,1756(sp)
    8000194e:	0008f117          	auipc	sp,0x8f
    80001952:	6b210113          	addi	sp,sp,1714 # 80091000 <begin_signature>
    80001956:	6309                	lui	t1,0x2
    80001958:	a603031b          	addiw	t1,t1,-1440 # 1a60 <_tbss_end+0x1a60>
    8000195c:	911a                	add	sp,sp,t1

000000008000195e <i0000000401>:
    8000195e:	ccc16703          	lwu	a4,-820(sp)
    80001962:	0008f117          	auipc	sp,0x8f
    80001966:	69e10113          	addi	sp,sp,1694 # 80091000 <begin_signature>
    8000196a:	6305                	lui	t1,0x1
    8000196c:	e203031b          	addiw	t1,t1,-480 # e20 <_tbss_end+0xe20>
    80001970:	911a                	add	sp,sp,t1

0000000080001972 <i0000000402>:
    80001972:	b3013703          	ld	a4,-1232(sp)

0000000080001976 <i0000000403>:
    80001976:	a187021b          	addiw	tp,a4,-1512

000000008000197a <i0000000404>:
    8000197a:	4153dd3b          	sraw	s10,t2,s5

000000008000197e <i0000000405>:
    8000197e:	40e7d73b          	sraw	a4,a5,a4

0000000080001982 <i0000000406>:
    80001982:	0ff0000f          	fence

0000000080001986 <i0000000407>:
    80001986:	0081d83b          	srlw	a6,gp,s0

000000008000198a <i0000000408>:
    8000198a:	0000100f          	fence.i

000000008000198e <i0000000409>:
    8000198e:	76813803          	ld	a6,1896(sp)

0000000080001992 <i000000040a>:
    80001992:	31013883          	ld	a7,784(sp)

0000000080001996 <i000000040b>:
    80001996:	012adf3b          	srlw	t5,s5,s2

000000008000199a <i000000040c>:
    8000199a:	ae812c83          	lw	s9,-1304(sp)

000000008000199e <i000000040d>:
    8000199e:	85913423          	sd	s9,-1976(sp)

00000000800019a2 <i000000040e>:
    800019a2:	e43e                	sd	a5,8(sp)

00000000800019a4 <i000000040f>:
    800019a4:	d2c16703          	lwu	a4,-724(sp)

00000000800019a8 <i0000000410>:
    800019a8:	c98b041b          	addiw	s0,s6,-872

00000000800019ac <i0000000411>:
    800019ac:	61816b83          	lwu	s7,1560(sp)

00000000800019b0 <i0000000412>:
    800019b0:	0ff0000f          	fence

00000000800019b4 <i0000000413>:
    800019b4:	20816e83          	lwu	t4,520(sp)
    800019b8:	0008f117          	auipc	sp,0x8f
    800019bc:	64810113          	addi	sp,sp,1608 # 80091000 <begin_signature>
    800019c0:	6305                	lui	t1,0x1
    800019c2:	3e83031b          	addiw	t1,t1,1000 # 13e8 <_tbss_end+0x13e8>
    800019c6:	911a                	add	sp,sp,t1

00000000800019c8 <i0000000414>:
    800019c8:	aaf13023          	sd	a5,-1376(sp)

00000000800019cc <i0000000415>:
    800019cc:	cb013823          	sd	a6,-848(sp)

00000000800019d0 <i0000000416>:
    800019d0:	8b416603          	lwu	a2,-1868(sp)

00000000800019d4 <i0000000417>:
    800019d4:	4f010623          	sb	a6,1260(sp)
    800019d8:	0008f117          	auipc	sp,0x8f
    800019dc:	62810113          	addi	sp,sp,1576 # 80091000 <begin_signature>
    800019e0:	6309                	lui	t1,0x2
    800019e2:	fd03031b          	addiw	t1,t1,-48 # 1fd0 <_tbss_end+0x1fd0>
    800019e6:	911a                	add	sp,sp,t1

00000000800019e8 <i0000000418>:
    800019e8:	2c816803          	lwu	a6,712(sp)

00000000800019ec <i0000000419>:
    800019ec:	d6f10b83          	lb	s7,-657(sp)

00000000800019f0 <i000000041a>:
    800019f0:	0000100f          	fence.i

00000000800019f4 <i000000041b>:
    800019f4:	0000100f          	fence.i

00000000800019f8 <i000000041c>:
    800019f8:	4097d59b          	sraiw	a1,a5,0x9

00000000800019fc <i000000041d>:
    800019fc:	50c16703          	lwu	a4,1292(sp)

0000000080001a00 <i000000041e>:
    80001a00:	d8816803          	lwu	a6,-632(sp)

0000000080001a04 <i000000041f>:
    80001a04:	0ff0000f          	fence

0000000080001a08 <i0000000420>:
    80001a08:	56e13023          	sd	a4,1376(sp)

0000000080001a0c <i0000000421>:
    80001a0c:	eee11783          	lh	a5,-274(sp)

0000000080001a10 <i0000000422>:
    80001a10:	0000100f          	fence.i

0000000080001a14 <i0000000423>:
    80001a14:	0000100f          	fence.i

0000000080001a18 <i0000000424>:
    80001a18:	01ebd7bb          	srlw	a5,s7,t5

0000000080001a1c <i0000000425>:
    80001a1c:	9f816e03          	lwu	t3,-1544(sp)

0000000080001a20 <i0000000426>:
    80001a20:	26412783          	lw	a5,612(sp)

0000000080001a24 <i0000000427>:
    80001a24:	5c812703          	lw	a4,1480(sp)

0000000080001a28 <i0000000428>:
    80001a28:	0000100f          	fence.i

0000000080001a2c <i0000000429>:
    80001a2c:	9ec16883          	lwu	a7,-1556(sp)

0000000080001a30 <i000000042a>:
    80001a30:	5dc11703          	lh	a4,1500(sp)

0000000080001a34 <i000000042b>:
    80001a34:	ba611f03          	lh	t5,-1114(sp)

0000000080001a38 <i000000042c>:
    80001a38:	0000100f          	fence.i
    80001a3c:	0008f117          	auipc	sp,0x8f
    80001a40:	5c410113          	addi	sp,sp,1476 # 80091000 <begin_signature>
    80001a44:	630d                	lui	t1,0x3
    80001a46:	7203031b          	addiw	t1,t1,1824 # 3720 <_tbss_end+0x3720>
    80001a4a:	911a                	add	sp,sp,t1

0000000080001a4c <i000000042d>:
    80001a4c:	cf312423          	sw	s3,-792(sp)

0000000080001a50 <i000000042e>:
    80001a50:	5ab2871b          	addiw	a4,t0,1451

0000000080001a54 <i000000042f>:
    80001a54:	27011f23          	sh	a6,638(sp)

0000000080001a58 <i0000000430>:
    80001a58:	7ef13823          	sd	a5,2032(sp)

0000000080001a5c <i0000000431>:
    80001a5c:	0ff0000f          	fence

0000000080001a60 <i0000000432>:
    80001a60:	ec8a861b          	addiw	a2,s5,-312

0000000080001a64 <i0000000433>:
    80001a64:	0000100f          	fence.i

0000000080001a68 <i0000000434>:
    80001a68:	d4013a83          	ld	s5,-704(sp)

0000000080001a6c <i0000000435>:
    80001a6c:	15816703          	lwu	a4,344(sp)

0000000080001a70 <i0000000436>:
    80001a70:	01015803          	lhu	a6,16(sp)

0000000080001a74 <i0000000437>:
    80001a74:	0ff0000f          	fence

0000000080001a78 <i0000000438>:
    80001a78:	7b310b23          	sb	s3,1974(sp)

0000000080001a7c <i0000000439>:
    80001a7c:	012e11bb          	sllw	gp,t3,s2

0000000080001a80 <i000000043a>:
    80001a80:	0000100f          	fence.i

0000000080001a84 <i000000043b>:
    80001a84:	41295bbb          	sraw	s7,s2,s2

0000000080001a88 <i000000043c>:
    80001a88:	c1510803          	lb	a6,-1003(sp)

0000000080001a8c <i000000043d>:
    80001a8c:	39013983          	ld	s3,912(sp)

0000000080001a90 <i000000043e>:
    80001a90:	0000100f          	fence.i

0000000080001a94 <i000000043f>:
    80001a94:	675e                	ld	a4,464(sp)

0000000080001a96 <i0000000440>:
    80001a96:	51513823          	sd	s5,1296(sp)

0000000080001a9a <i0000000441>:
    80001a9a:	f1813783          	ld	a5,-232(sp)

0000000080001a9e <i0000000442>:
    80001a9e:	03dd5713          	srli	a4,s10,0x3d

0000000080001aa2 <i0000000443>:
    80001aa2:	dbb13823          	sd	s11,-592(sp)

0000000080001aa6 <i0000000444>:
    80001aa6:	0ff0000f          	fence

0000000080001aaa <i0000000445>:
    80001aaa:	4147d79b          	sraiw	a5,a5,0x14
    80001aae:	0008f117          	auipc	sp,0x8f
    80001ab2:	55210113          	addi	sp,sp,1362 # 80091000 <begin_signature>
    80001ab6:	6305                	lui	t1,0x1
    80001ab8:	1703031b          	addiw	t1,t1,368 # 1170 <_tbss_end+0x1170>
    80001abc:	911a                	add	sp,sp,t1

0000000080001abe <i0000000446>:
    80001abe:	87713023          	sd	s7,-1952(sp)

0000000080001ac2 <i0000000447>:
    80001ac2:	0000100f          	fence.i

0000000080001ac6 <i0000000448>:
    80001ac6:	84f104a3          	sb	a5,-1975(sp)

0000000080001aca <i0000000449>:
    80001aca:	1d411783          	lh	a5,468(sp)
    80001ace:	0008f117          	auipc	sp,0x8f
    80001ad2:	53210113          	addi	sp,sp,1330 # 80091000 <begin_signature>
    80001ad6:	6305                	lui	t1,0x1
    80001ad8:	2f03031b          	addiw	t1,t1,752 # 12f0 <_tbss_end+0x12f0>
    80001adc:	911a                	add	sp,sp,t1

0000000080001ade <i000000044a>:
    80001ade:	b9013423          	sd	a6,-1144(sp)

0000000080001ae2 <i000000044b>:
    80001ae2:	0ff0000f          	fence

0000000080001ae6 <i000000044c>:
    80001ae6:	01016783          	lwu	a5,16(sp)
    80001aea:	0008f117          	auipc	sp,0x8f
    80001aee:	51610113          	addi	sp,sp,1302 # 80091000 <begin_signature>
    80001af2:	6309                	lui	t1,0x2
    80001af4:	2383031b          	addiw	t1,t1,568 # 2238 <_tbss_end+0x2238>
    80001af8:	911a                	add	sp,sp,t1

0000000080001afa <i000000044d>:
    80001afa:	35013423          	sd	a6,840(sp)

0000000080001afe <i000000044e>:
    80001afe:	0000100f          	fence.i

0000000080001b02 <i000000044f>:
    80001b02:	0000100f          	fence.i

0000000080001b06 <i0000000450>:
    80001b06:	0000100f          	fence.i

0000000080001b0a <i0000000451>:
    80001b0a:	90511c23          	sh	t0,-1768(sp)

0000000080001b0e <i0000000452>:
    80001b0e:	0000100f          	fence.i

0000000080001b12 <i0000000453>:
    80001b12:	02c71813          	slli	a6,a4,0x2c

0000000080001b16 <i0000000454>:
    80001b16:	c1011e23          	sh	a6,-996(sp)

0000000080001b1a <i0000000455>:
    80001b1a:	0ff0000f          	fence

0000000080001b1e <i0000000456>:
    80001b1e:	0000100f          	fence.i

0000000080001b22 <i0000000457>:
    80001b22:	0000100f          	fence.i

0000000080001b26 <i0000000458>:
    80001b26:	cc013883          	ld	a7,-832(sp)

0000000080001b2a <i0000000459>:
    80001b2a:	92611703          	lh	a4,-1754(sp)

0000000080001b2e <i000000045a>:
    80001b2e:	a1015783          	lhu	a5,-1520(sp)

0000000080001b32 <i000000045b>:
    80001b32:	62e13423          	sd	a4,1576(sp)

0000000080001b36 <i000000045c>:
    80001b36:	38f13823          	sd	a5,912(sp)

0000000080001b3a <i000000045d>:
    80001b3a:	9399                	srli	a5,a5,0x26

0000000080001b3c <i000000045e>:
    80001b3c:	91c16803          	lwu	a6,-1764(sp)

0000000080001b40 <i000000045f>:
    80001b40:	7e013803          	ld	a6,2016(sp)

0000000080001b44 <i0000000460>:
    80001b44:	0000100f          	fence.i

0000000080001b48 <i0000000461>:
    80001b48:	66411e23          	sh	tp,1660(sp)

0000000080001b4c <i0000000462>:
    80001b4c:	0082d813          	srli	a6,t0,0x8

0000000080001b50 <i0000000463>:
    80001b50:	cf410703          	lb	a4,-780(sp)
    80001b54:	0008f117          	auipc	sp,0x8f
    80001b58:	4ac10113          	addi	sp,sp,1196 # 80091000 <begin_signature>
    80001b5c:	630d                	lui	t1,0x3
    80001b5e:	be03031b          	addiw	t1,t1,-1056 # 2be0 <_tbss_end+0x2be0>
    80001b62:	911a                	add	sp,sp,t1

0000000080001b64 <i0000000464>:
    80001b64:	fea12423          	sw	a0,-24(sp)

0000000080001b68 <i0000000465>:
    80001b68:	41175b9b          	sraiw	s7,a4,0x11

0000000080001b6c <i0000000466>:
    80001b6c:	10815583          	lhu	a1,264(sp)

0000000080001b70 <i0000000467>:
    80001b70:	a0c12803          	lw	a6,-1524(sp)

0000000080001b74 <i0000000468>:
    80001b74:	c7113423          	sd	a7,-920(sp)
    80001b78:	0008f117          	auipc	sp,0x8f
    80001b7c:	48810113          	addi	sp,sp,1160 # 80091000 <begin_signature>
    80001b80:	6305                	lui	t1,0x1
    80001b82:	1683031b          	addiw	t1,t1,360 # 1168 <_tbss_end+0x1168>
    80001b86:	911a                	add	sp,sp,t1

0000000080001b88 <i0000000469>:
    80001b88:	83813f03          	ld	t5,-1992(sp)

0000000080001b8c <i000000046a>:
    80001b8c:	b3813a03          	ld	s4,-1224(sp)
    80001b90:	0008f117          	auipc	sp,0x8f
    80001b94:	47010113          	addi	sp,sp,1136 # 80091000 <begin_signature>
    80001b98:	630d                	lui	t1,0x3
    80001b9a:	7283031b          	addiw	t1,t1,1832 # 3728 <_tbss_end+0x3728>
    80001b9e:	911a                	add	sp,sp,t1

0000000080001ba0 <i000000046b>:
    80001ba0:	1b816803          	lwu	a6,440(sp)

0000000080001ba4 <i000000046c>:
    80001ba4:	58416383          	lwu	t2,1412(sp)
    80001ba8:	0008f117          	auipc	sp,0x8f
    80001bac:	45810113          	addi	sp,sp,1112 # 80091000 <begin_signature>
    80001bb0:	6309                	lui	t1,0x2
    80001bb2:	e203031b          	addiw	t1,t1,-480 # 1e20 <_tbss_end+0x1e20>
    80001bb6:	911a                	add	sp,sp,t1

0000000080001bb8 <i000000046d>:
    80001bb8:	98816d03          	lwu	s10,-1656(sp)

0000000080001bbc <i000000046e>:
    80001bbc:	fd012803          	lw	a6,-48(sp)

0000000080001bc0 <i000000046f>:
    80001bc0:	fce13023          	sd	a4,-64(sp)
    80001bc4:	0008f117          	auipc	sp,0x8f
    80001bc8:	43c10113          	addi	sp,sp,1084 # 80091000 <begin_signature>
    80001bcc:	6305                	lui	t1,0x1
    80001bce:	2361                	addiw	t1,t1,24 # 1018 <_tbss_end+0x1018>
    80001bd0:	911a                	add	sp,sp,t1

0000000080001bd2 <i0000000470>:
    80001bd2:	88813003          	ld	zero,-1912(sp)

0000000080001bd6 <i0000000471>:
    80001bd6:	0000100f          	fence.i

0000000080001bda <i0000000472>:
    80001bda:	21016783          	lwu	a5,528(sp)
    80001bde:	0008f117          	auipc	sp,0x8f
    80001be2:	42210113          	addi	sp,sp,1058 # 80091000 <begin_signature>
    80001be6:	6305                	lui	t1,0x1
    80001be8:	9c83031b          	addiw	t1,t1,-1592 # 9c8 <_tbss_end+0x9c8>
    80001bec:	911a                	add	sp,sp,t1

0000000080001bee <i0000000473>:
    80001bee:	b0c11803          	lh	a6,-1268(sp)

0000000080001bf2 <i0000000474>:
    80001bf2:	0f016803          	lwu	a6,240(sp)

0000000080001bf6 <i0000000475>:
    80001bf6:	00e79abb          	sllw	s5,a5,a4

0000000080001bfa <i0000000476>:
    80001bfa:	02c99713          	slli	a4,s3,0x2c

0000000080001bfe <i0000000477>:
    80001bfe:	0000100f          	fence.i

0000000080001c02 <i0000000478>:
    80001c02:	00f791bb          	sllw	gp,a5,a5

0000000080001c06 <i0000000479>:
    80001c06:	4068571b          	sraiw	a4,a6,0x6

0000000080001c0a <i000000047a>:
    80001c0a:	b3416703          	lwu	a4,-1228(sp)

0000000080001c0e <i000000047b>:
    80001c0e:	7c510723          	sb	t0,1998(sp)

0000000080001c12 <i000000047c>:
    80001c12:	89e11783          	lh	a5,-1890(sp)
    80001c16:	0008f117          	auipc	sp,0x8f
    80001c1a:	3ea10113          	addi	sp,sp,1002 # 80091000 <begin_signature>
    80001c1e:	6305                	lui	t1,0x1
    80001c20:	9303031b          	addiw	t1,t1,-1744 # 930 <_tbss_end+0x930>
    80001c24:	911a                	add	sp,sp,t1

0000000080001c26 <i000000047d>:
    80001c26:	d3813603          	ld	a2,-712(sp)

0000000080001c2a <i000000047e>:
    80001c2a:	0ff0000f          	fence

0000000080001c2e <i000000047f>:
    80001c2e:	1e612423          	sw	t1,488(sp)

0000000080001c32 <i0000000480>:
    80001c32:	4067d01b          	sraiw	zero,a5,0x6

0000000080001c36 <i0000000481>:
    80001c36:	ef7e                	sd	t6,408(sp)

0000000080001c38 <i0000000482>:
    80001c38:	01816903          	lwu	s2,24(sp)
    80001c3c:	0008f117          	auipc	sp,0x8f
    80001c40:	3c410113          	addi	sp,sp,964 # 80091000 <begin_signature>
    80001c44:	6305                	lui	t1,0x1
    80001c46:	911a                	add	sp,sp,t1

0000000080001c48 <i0000000483>:
    80001c48:	16511323          	sh	t0,358(sp)

0000000080001c4c <i0000000484>:
    80001c4c:	45912823          	sw	s9,1104(sp)

0000000080001c50 <i0000000485>:
    80001c50:	546e861b          	addiw	a2,t4,1350
    80001c54:	0008f117          	auipc	sp,0x8f
    80001c58:	3ac10113          	addi	sp,sp,940 # 80091000 <begin_signature>
    80001c5c:	6305                	lui	t1,0x1
    80001c5e:	1f03031b          	addiw	t1,t1,496 # 11f0 <_tbss_end+0x11f0>
    80001c62:	911a                	add	sp,sp,t1

0000000080001c64 <i0000000486>:
    80001c64:	09615283          	lhu	t0,150(sp)

0000000080001c68 <i0000000487>:
    80001c68:	0000100f          	fence.i

0000000080001c6c <i0000000488>:
    80001c6c:	0000100f          	fence.i

0000000080001c70 <i0000000489>:
    80001c70:	47413823          	sd	s4,1136(sp)

0000000080001c74 <i000000048a>:
    80001c74:	003b59bb          	srlw	s3,s6,gp

0000000080001c78 <i000000048b>:
    80001c78:	45912c23          	sw	s9,1112(sp)

0000000080001c7c <i000000048c>:
    80001c7c:	4384d893          	srai	a7,s1,0x38

0000000080001c80 <i000000048d>:
    80001c80:	01741793          	slli	a5,s0,0x17

0000000080001c84 <i000000048e>:
    80001c84:	f4816803          	lwu	a6,-184(sp)
    80001c88:	0008f117          	auipc	sp,0x8f
    80001c8c:	37810113          	addi	sp,sp,888 # 80091000 <begin_signature>
    80001c90:	630d                	lui	t1,0x3
    80001c92:	8683031b          	addiw	t1,t1,-1944 # 2868 <_tbss_end+0x2868>
    80001c96:	911a                	add	sp,sp,t1

0000000080001c98 <i000000048f>:
    80001c98:	47013803          	ld	a6,1136(sp)

0000000080001c9c <i0000000490>:
    80001c9c:	4058579b          	sraiw	a5,a6,0x5

0000000080001ca0 <i0000000491>:
    80001ca0:	5ae11723          	sh	a4,1454(sp)

0000000080001ca4 <i0000000492>:
    80001ca4:	f8712223          	sw	t2,-124(sp)

0000000080001ca8 <i0000000493>:
    80001ca8:	b9013823          	sd	a6,-1136(sp)

0000000080001cac <i0000000494>:
    80001cac:	0000100f          	fence.i

0000000080001cb0 <i0000000495>:
    80001cb0:	57a2                	lw	a5,40(sp)

0000000080001cb2 <i0000000496>:
    80001cb2:	3ba7879b          	addiw	a5,a5,954

0000000080001cb6 <i0000000497>:
    80001cb6:	e8013303          	ld	t1,-384(sp)

0000000080001cba <i0000000498>:
    80001cba:	0000100f          	fence.i

0000000080001cbe <i0000000499>:
    80001cbe:	ea3e                	sd	a5,272(sp)

0000000080001cc0 <i000000049a>:
    80001cc0:	c2914583          	lbu	a1,-983(sp)

0000000080001cc4 <i000000049b>:
    80001cc4:	0ff0000f          	fence

0000000080001cc8 <i000000049c>:
    80001cc8:	0ff0000f          	fence
    80001ccc:	0008f117          	auipc	sp,0x8f
    80001cd0:	33410113          	addi	sp,sp,820 # 80091000 <begin_signature>
    80001cd4:	630d                	lui	t1,0x3
    80001cd6:	f883031b          	addiw	t1,t1,-120 # 2f88 <_tbss_end+0x2f88>
    80001cda:	911a                	add	sp,sp,t1

0000000080001cdc <i000000049d>:
    80001cdc:	e7416b83          	lwu	s7,-396(sp)
    80001ce0:	0008f117          	auipc	sp,0x8f
    80001ce4:	32010113          	addi	sp,sp,800 # 80091000 <begin_signature>
    80001ce8:	6309                	lui	t1,0x2
    80001cea:	9683031b          	addiw	t1,t1,-1688 # 1968 <_tbss_end+0x1968>
    80001cee:	911a                	add	sp,sp,t1

0000000080001cf0 <i000000049e>:
    80001cf0:	e6c16783          	lwu	a5,-404(sp)
    80001cf4:	0008f117          	auipc	sp,0x8f
    80001cf8:	30c10113          	addi	sp,sp,780 # 80091000 <begin_signature>
    80001cfc:	6309                	lui	t1,0x2
    80001cfe:	2303031b          	addiw	t1,t1,560 # 2230 <_tbss_end+0x2230>
    80001d02:	911a                	add	sp,sp,t1

0000000080001d04 <i000000049f>:
    80001d04:	ef013023          	sd	a6,-288(sp)

0000000080001d08 <i00000004a0>:
    80001d08:	00f8d813          	srli	a6,a7,0xf

0000000080001d0c <i00000004a1>:
    80001d0c:	d1013b83          	ld	s7,-752(sp)

0000000080001d10 <i00000004a2>:
    80001d10:	01705b93          	srli	s7,zero,0x17

0000000080001d14 <i00000004a3>:
    80001d14:	0ff0000f          	fence

0000000080001d18 <i00000004a4>:
    80001d18:	30815c83          	lhu	s9,776(sp)

0000000080001d1c <i00000004a5>:
    80001d1c:	dd814883          	lbu	a7,-552(sp)

0000000080001d20 <i00000004a6>:
    80001d20:	4a012803          	lw	a6,1184(sp)

0000000080001d24 <i00000004a7>:
    80001d24:	0134d01b          	srliw	zero,s1,0x13

0000000080001d28 <i00000004a8>:
    80001d28:	87713423          	sd	s7,-1944(sp)

0000000080001d2c <i00000004a9>:
    80001d2c:	00b81c13          	slli	s8,a6,0xb

0000000080001d30 <i00000004aa>:
    80001d30:	15a11d23          	sh	s10,346(sp)

0000000080001d34 <i00000004ab>:
    80001d34:	a8814703          	lbu	a4,-1400(sp)

0000000080001d38 <i00000004ac>:
    80001d38:	00081b9b          	slliw	s7,a6,0x0

0000000080001d3c <i00000004ad>:
    80001d3c:	014fdabb          	srlw	s5,t6,s4
    80001d40:	0008f117          	auipc	sp,0x8f
    80001d44:	2c010113          	addi	sp,sp,704 # 80091000 <begin_signature>
    80001d48:	6305                	lui	t1,0x1
    80001d4a:	5c03031b          	addiw	t1,t1,1472 # 15c0 <_tbss_end+0x15c0>
    80001d4e:	911a                	add	sp,sp,t1

0000000080001d50 <i00000004ae>:
    80001d50:	6c5108a3          	sb	t0,1745(sp)

0000000080001d54 <i00000004af>:
    80001d54:	aae13823          	sd	a4,-1360(sp)

0000000080001d58 <i00000004b0>:
    80001d58:	b3d14803          	lbu	a6,-1219(sp)

0000000080001d5c <i00000004b1>:
    80001d5c:	0000100f          	fence.i

0000000080001d60 <i00000004b2>:
    80001d60:	0000100f          	fence.i

0000000080001d64 <i00000004b3>:
    80001d64:	6ac16f83          	lwu	t6,1708(sp)

0000000080001d68 <i00000004b4>:
    80001d68:	fc010683          	lb	a3,-64(sp)

0000000080001d6c <i00000004b5>:
    80001d6c:	0ff0000f          	fence

0000000080001d70 <i00000004b6>:
    80001d70:	0ff0000f          	fence

0000000080001d74 <i00000004b7>:
    80001d74:	406a873b          	subw	a4,s5,t1

0000000080001d78 <i00000004b8>:
    80001d78:	8bf10623          	sb	t6,-1876(sp)
    80001d7c:	0008f117          	auipc	sp,0x8f
    80001d80:	28410113          	addi	sp,sp,644 # 80091000 <begin_signature>
    80001d84:	630d                	lui	t1,0x3
    80001d86:	b883031b          	addiw	t1,t1,-1144 # 2b88 <_tbss_end+0x2b88>
    80001d8a:	911a                	add	sp,sp,t1

0000000080001d8c <i00000004b9>:
    80001d8c:	9b813c23          	sd	s8,-1608(sp)

0000000080001d90 <i00000004ba>:
    80001d90:	0000100f          	fence.i

0000000080001d94 <i00000004bb>:
    80001d94:	3a812783          	lw	a5,936(sp)

0000000080001d98 <i00000004bc>:
    80001d98:	00a71813          	slli	a6,a4,0xa

0000000080001d9c <i00000004bd>:
    80001d9c:	03bed493          	srli	s1,t4,0x3b
    80001da0:	0008f117          	auipc	sp,0x8f
    80001da4:	26010113          	addi	sp,sp,608 # 80091000 <begin_signature>
    80001da8:	6305                	lui	t1,0x1
    80001daa:	cb83031b          	addiw	t1,t1,-840 # cb8 <_tbss_end+0xcb8>
    80001dae:	911a                	add	sp,sp,t1

0000000080001db0 <i00000004be>:
    80001db0:	d3016803          	lwu	a6,-720(sp)

0000000080001db4 <i00000004bf>:
    80001db4:	0000100f          	fence.i

0000000080001db8 <i00000004c0>:
    80001db8:	0000100f          	fence.i

0000000080001dbc <i00000004c1>:
    80001dbc:	02775213          	srli	tp,a4,0x27

0000000080001dc0 <i00000004c2>:
    80001dc0:	1739079b          	addiw	a5,s2,371 # ffffffffdc2ae9a5 <_end+0xffffffff5c215f41>

0000000080001dc4 <i00000004c3>:
    80001dc4:	0000100f          	fence.i

0000000080001dc8 <i00000004c4>:
    80001dc8:	4107d51b          	sraiw	a0,a5,0x10
    80001dcc:	0008f117          	auipc	sp,0x8f
    80001dd0:	23410113          	addi	sp,sp,564 # 80091000 <begin_signature>
    80001dd4:	6309                	lui	t1,0x2
    80001dd6:	f003031b          	addiw	t1,t1,-256 # 1f00 <_tbss_end+0x1f00>
    80001dda:	911a                	add	sp,sp,t1

0000000080001ddc <i00000004c5>:
    80001ddc:	7e015803          	lhu	a6,2016(sp)

0000000080001de0 <i00000004c6>:
    80001de0:	41075a3b          	sraw	s4,a4,a6

0000000080001de4 <i00000004c7>:
    80001de4:	0000100f          	fence.i

0000000080001de8 <i00000004c8>:
    80001de8:	00a81413          	slli	s0,a6,0xa

0000000080001dec <i00000004c9>:
    80001dec:	411a5b93          	srai	s7,s4,0x11

0000000080001df0 <i00000004ca>:
    80001df0:	0000100f          	fence.i

0000000080001df4 <i00000004cb>:
    80001df4:	e54a                	sd	s2,136(sp)

0000000080001df6 <i00000004cc>:
    80001df6:	40f7573b          	sraw	a4,a4,a5

0000000080001dfa <i00000004cd>:
    80001dfa:	4207d813          	srai	a6,a5,0x20

0000000080001dfe <i00000004ce>:
    80001dfe:	88e13823          	sd	a4,-1904(sp)

0000000080001e02 <i00000004cf>:
    80001e02:	0000100f          	fence.i

0000000080001e06 <i00000004d0>:
    80001e06:	0000100f          	fence.i

0000000080001e0a <i00000004d1>:
    80001e0a:	01175893          	srli	a7,a4,0x11

0000000080001e0e <i00000004d2>:
    80001e0e:	0000100f          	fence.i

0000000080001e12 <i00000004d3>:
    80001e12:	6ee14183          	lbu	gp,1774(sp)

0000000080001e16 <i00000004d4>:
    80001e16:	0000100f          	fence.i

0000000080001e1a <i00000004d5>:
    80001e1a:	40f857bb          	sraw	a5,a6,a5

0000000080001e1e <i00000004d6>:
    80001e1e:	fac12d03          	lw	s10,-84(sp)

0000000080001e22 <i00000004d7>:
    80001e22:	0ff0000f          	fence

0000000080001e26 <i00000004d8>:
    80001e26:	eff108a3          	sb	t6,-271(sp)

0000000080001e2a <i00000004d9>:
    80001e2a:	0000100f          	fence.i

0000000080001e2e <i00000004da>:
    80001e2e:	00c2083b          	addw	a6,tp,a2

0000000080001e32 <i00000004db>:
    80001e32:	01931813          	slli	a6,t1,0x19

0000000080001e36 <i00000004dc>:
    80001e36:	0ff0000f          	fence

0000000080001e3a <i00000004dd>:
    80001e3a:	40a457bb          	sraw	a5,s0,a0
    80001e3e:	0008f117          	auipc	sp,0x8f
    80001e42:	1c210113          	addi	sp,sp,450 # 80091000 <begin_signature>
    80001e46:	6305                	lui	t1,0x1
    80001e48:	e583031b          	addiw	t1,t1,-424 # e58 <_tbss_end+0xe58>
    80001e4c:	911a                	add	sp,sp,t1

0000000080001e4e <i00000004de>:
    80001e4e:	27e15803          	lhu	a6,638(sp)

0000000080001e52 <i00000004df>:
    80001e52:	1e812783          	lw	a5,488(sp)

0000000080001e56 <i00000004e0>:
    80001e56:	3c013803          	ld	a6,960(sp)

0000000080001e5a <i00000004e1>:
    80001e5a:	4f813423          	sd	s8,1256(sp)

0000000080001e5e <i00000004e2>:
    80001e5e:	0ff0000f          	fence
    80001e62:	0008f117          	auipc	sp,0x8f
    80001e66:	19e10113          	addi	sp,sp,414 # 80091000 <begin_signature>
    80001e6a:	630d                	lui	t1,0x3
    80001e6c:	5603031b          	addiw	t1,t1,1376 # 3560 <_tbss_end+0x3560>
    80001e70:	911a                	add	sp,sp,t1

0000000080001e72 <i00000004e3>:
    80001e72:	c6c16383          	lwu	t2,-916(sp)

0000000080001e76 <i00000004e4>:
    80001e76:	00e11823          	sh	a4,16(sp)

0000000080001e7a <i00000004e5>:
    80001e7a:	42585793          	srai	a5,a6,0x25
    80001e7e:	0008f117          	auipc	sp,0x8f
    80001e82:	18210113          	addi	sp,sp,386 # 80091000 <begin_signature>
    80001e86:	6309                	lui	t1,0x2
    80001e88:	ca03031b          	addiw	t1,t1,-864 # 1ca0 <_tbss_end+0x1ca0>
    80001e8c:	911a                	add	sp,sp,t1

0000000080001e8e <i00000004e6>:
    80001e8e:	7b82                	ld	s7,32(sp)

0000000080001e90 <i00000004e7>:
    80001e90:	00781793          	slli	a5,a6,0x7

0000000080001e94 <i00000004e8>:
    80001e94:	3268079b          	addiw	a5,a6,806

0000000080001e98 <i00000004e9>:
    80001e98:	0000100f          	fence.i

0000000080001e9c <i00000004ea>:
    80001e9c:	0000100f          	fence.i
    80001ea0:	0008f117          	auipc	sp,0x8f
    80001ea4:	16010113          	addi	sp,sp,352 # 80091000 <begin_signature>
    80001ea8:	630d                	lui	t1,0x3
    80001eaa:	5703031b          	addiw	t1,t1,1392 # 3570 <_tbss_end+0x3570>
    80001eae:	911a                	add	sp,sp,t1

0000000080001eb0 <i00000004eb>:
    80001eb0:	84e12e23          	sw	a4,-1956(sp)

0000000080001eb4 <i00000004ec>:
    80001eb4:	0107d7bb          	srlw	a5,a5,a6

0000000080001eb8 <i00000004ed>:
    80001eb8:	d3a12c23          	sw	s10,-712(sp)

0000000080001ebc <i00000004ee>:
    80001ebc:	0ff0000f          	fence

0000000080001ec0 <i00000004ef>:
    80001ec0:	28a11023          	sh	a0,640(sp)

0000000080001ec4 <i00000004f0>:
    80001ec4:	40d10783          	lb	a5,1037(sp)

0000000080001ec8 <i00000004f1>:
    80001ec8:	b3013783          	ld	a5,-1232(sp)

0000000080001ecc <i00000004f2>:
    80001ecc:	6daa                	ld	s11,136(sp)

0000000080001ece <i00000004f3>:
    80001ece:	ad013e03          	ld	t3,-1328(sp)

0000000080001ed2 <i00000004f4>:
    80001ed2:	0000100f          	fence.i

0000000080001ed6 <i00000004f5>:
    80001ed6:	0ff0000f          	fence

0000000080001eda <i00000004f6>:
    80001eda:	00e79a3b          	sllw	s4,a5,a4

0000000080001ede <i00000004f7>:
    80001ede:	a2412803          	lw	a6,-1500(sp)

0000000080001ee2 <i00000004f8>:
    80001ee2:	41dad71b          	sraiw	a4,s5,0x1d

0000000080001ee6 <i00000004f9>:
    80001ee6:	0ff0000f          	fence

0000000080001eea <i00000004fa>:
    80001eea:	0ff0000f          	fence

0000000080001eee <i00000004fb>:
    80001eee:	81710123          	sb	s7,-2046(sp)

0000000080001ef2 <i00000004fc>:
    80001ef2:	0000100f          	fence.i

0000000080001ef6 <i00000004fd>:
    80001ef6:	66511723          	sh	t0,1646(sp)

0000000080001efa <i00000004fe>:
    80001efa:	9e815303          	lhu	t1,-1560(sp)

0000000080001efe <i00000004ff>:
    80001efe:	00e7199b          	slliw	s3,a4,0xe
    80001f02:	0008f117          	auipc	sp,0x8f
    80001f06:	0fe10113          	addi	sp,sp,254 # 80091000 <begin_signature>
    80001f0a:	6309                	lui	t1,0x2
    80001f0c:	9683031b          	addiw	t1,t1,-1688 # 1968 <_tbss_end+0x1968>
    80001f10:	911a                	add	sp,sp,t1

0000000080001f12 <i0000000500>:
    80001f12:	f3013703          	ld	a4,-208(sp)

0000000080001f16 <i0000000501>:
    80001f16:	2ce12e23          	sw	a4,732(sp)
    80001f1a:	0008f117          	auipc	sp,0x8f
    80001f1e:	0e610113          	addi	sp,sp,230 # 80091000 <begin_signature>
    80001f22:	630d                	lui	t1,0x3
    80001f24:	ba83031b          	addiw	t1,t1,-1112 # 2ba8 <_tbss_end+0x2ba8>
    80001f28:	911a                	add	sp,sp,t1

0000000080001f2a <i0000000502>:
    80001f2a:	42813023          	sd	s0,1056(sp)

0000000080001f2e <i0000000503>:
    80001f2e:	f4016703          	lwu	a4,-192(sp)

0000000080001f32 <i0000000504>:
    80001f32:	8cc14d03          	lbu	s10,-1844(sp)

0000000080001f36 <i0000000505>:
    80001f36:	83013423          	sd	a6,-2008(sp)

0000000080001f3a <i0000000506>:
    80001f3a:	f5413c23          	sd	s4,-168(sp)

0000000080001f3e <i0000000507>:
    80001f3e:	00b6161b          	slliw	a2,a2,0xb

0000000080001f42 <i0000000508>:
    80001f42:	0ff0000f          	fence
    80001f46:	0008f117          	auipc	sp,0x8f
    80001f4a:	0ba10113          	addi	sp,sp,186 # 80091000 <begin_signature>
    80001f4e:	6305                	lui	t1,0x1
    80001f50:	ec03031b          	addiw	t1,t1,-320 # ec0 <_tbss_end+0xec0>
    80001f54:	911a                	add	sp,sp,t1

0000000080001f56 <i0000000509>:
    80001f56:	29013783          	ld	a5,656(sp)

0000000080001f5a <i000000050a>:
    80001f5a:	0ff0000f          	fence

0000000080001f5e <i000000050b>:
    80001f5e:	0ff0000f          	fence

0000000080001f62 <i000000050c>:
    80001f62:	03c16783          	lwu	a5,60(sp)
    80001f66:	0008f117          	auipc	sp,0x8f
    80001f6a:	09a10113          	addi	sp,sp,154 # 80091000 <begin_signature>
    80001f6e:	6305                	lui	t1,0x1
    80001f70:	ba83031b          	addiw	t1,t1,-1112 # ba8 <_tbss_end+0xba8>
    80001f74:	911a                	add	sp,sp,t1

0000000080001f76 <i000000050d>:
    80001f76:	14510d03          	lb	s10,325(sp)

0000000080001f7a <i000000050e>:
    80001f7a:	d1612023          	sw	s6,-768(sp)
    80001f7e:	0008f117          	auipc	sp,0x8f
    80001f82:	08210113          	addi	sp,sp,130 # 80091000 <begin_signature>
    80001f86:	6305                	lui	t1,0x1
    80001f88:	8003031b          	addiw	t1,t1,-2048 # 800 <_tbss_end+0x800>
    80001f8c:	911a                	add	sp,sp,t1

0000000080001f8e <i000000050f>:
    80001f8e:	23e15703          	lhu	a4,574(sp)

0000000080001f92 <i0000000510>:
    80001f92:	02629793          	slli	a5,t0,0x26

0000000080001f96 <i0000000511>:
    80001f96:	4cf10123          	sb	a5,1218(sp)

0000000080001f9a <i0000000512>:
    80001f9a:	85812703          	lw	a4,-1960(sp)

0000000080001f9e <i0000000513>:
    80001f9e:	66f13823          	sd	a5,1648(sp)

0000000080001fa2 <i0000000514>:
    80001fa2:	38f10ea3          	sb	a5,925(sp)

0000000080001fa6 <i0000000515>:
    80001fa6:	0000100f          	fence.i

0000000080001faa <i0000000516>:
    80001faa:	64c16803          	lwu	a6,1612(sp)

0000000080001fae <i0000000517>:
    80001fae:	98614783          	lbu	a5,-1658(sp)

0000000080001fb2 <i0000000518>:
    80001fb2:	40c8d793          	srai	a5,a7,0xc

0000000080001fb6 <i0000000519>:
    80001fb6:	0ff0000f          	fence

0000000080001fba <i000000051a>:
    80001fba:	0267d813          	srli	a6,a5,0x26

0000000080001fbe <i000000051b>:
    80001fbe:	7b016c03          	lwu	s8,1968(sp)

0000000080001fc2 <i000000051c>:
    80001fc2:	db615703          	lhu	a4,-586(sp)

0000000080001fc6 <i000000051d>:
    80001fc6:	b9810703          	lb	a4,-1128(sp)

0000000080001fca <i000000051e>:
    80001fca:	4327dd13          	srai	s10,a5,0x32

0000000080001fce <i000000051f>:
    80001fce:	0000100f          	fence.i

0000000080001fd2 <i0000000520>:
    80001fd2:	45010723          	sb	a6,1102(sp)
    80001fd6:	0008f117          	auipc	sp,0x8f
    80001fda:	02a10113          	addi	sp,sp,42 # 80091000 <begin_signature>
    80001fde:	6305                	lui	t1,0x1
    80001fe0:	3403031b          	addiw	t1,t1,832 # 1340 <_tbss_end+0x1340>
    80001fe4:	911a                	add	sp,sp,t1

0000000080001fe6 <i0000000521>:
    80001fe6:	84513023          	sd	t0,-1984(sp)

0000000080001fea <i0000000522>:
    80001fea:	ea411783          	lh	a5,-348(sp)

0000000080001fee <i0000000523>:
    80001fee:	61813783          	ld	a5,1560(sp)

0000000080001ff2 <i0000000524>:
    80001ff2:	01f7db9b          	srliw	s7,a5,0x1f

0000000080001ff6 <i0000000525>:
    80001ff6:	9c813b83          	ld	s7,-1592(sp)

0000000080001ffa <i0000000526>:
    80001ffa:	49f10483          	lb	s1,1183(sp)

0000000080001ffe <i0000000527>:
    80001ffe:	0fc16703          	lwu	a4,252(sp)

0000000080002002 <i0000000528>:
    80002002:	0ff0000f          	fence

0000000080002006 <i0000000529>:
    80002006:	27013783          	ld	a5,624(sp)

000000008000200a <i000000052a>:
    8000200a:	67d2                	ld	a5,272(sp)

000000008000200c <i000000052b>:
    8000200c:	0ff0000f          	fence

0000000080002010 <i000000052c>:
    80002010:	00e714bb          	sllw	s1,a4,a4

0000000080002014 <i000000052d>:
    80002014:	b6f13c23          	sd	a5,-1160(sp)

0000000080002018 <i000000052e>:
    80002018:	00071c1b          	slliw	s8,a4,0x0

000000008000201c <i000000052f>:
    8000201c:	41810ea3          	sb	s8,1053(sp)

0000000080002020 <i0000000530>:
    80002020:	96812583          	lw	a1,-1688(sp)

0000000080002024 <i0000000531>:
    80002024:	b1c16703          	lwu	a4,-1252(sp)

0000000080002028 <i0000000532>:
    80002028:	00a1943b          	sllw	s0,gp,a0

000000008000202c <i0000000533>:
    8000202c:	ba410c03          	lb	s8,-1116(sp)

0000000080002030 <i0000000534>:
    80002030:	0000100f          	fence.i

0000000080002034 <i0000000535>:
    80002034:	fe27029b          	addiw	t0,a4,-30

0000000080002038 <i0000000536>:
    80002038:	0ff0000f          	fence

000000008000203c <i0000000537>:
    8000203c:	cca11123          	sh	a0,-830(sp)
    80002040:	0008f117          	auipc	sp,0x8f
    80002044:	fc010113          	addi	sp,sp,-64 # 80091000 <begin_signature>
    80002048:	6309                	lui	t1,0x2
    8000204a:	ae83031b          	addiw	t1,t1,-1304 # 1ae8 <_tbss_end+0x1ae8>
    8000204e:	911a                	add	sp,sp,t1

0000000080002050 <i0000000538>:
    80002050:	5d512023          	sw	s5,1472(sp)

0000000080002054 <i0000000539>:
    80002054:	2e813803          	ld	a6,744(sp)

0000000080002058 <i000000053a>:
    80002058:	0000100f          	fence.i

000000008000205c <i000000053b>:
    8000205c:	03859813          	slli	a6,a1,0x38
    80002060:	0008f117          	auipc	sp,0x8f
    80002064:	fa010113          	addi	sp,sp,-96 # 80091000 <begin_signature>
    80002068:	6305                	lui	t1,0x1
    8000206a:	8583031b          	addiw	t1,t1,-1960 # 858 <_tbss_end+0x858>
    8000206e:	911a                	add	sp,sp,t1

0000000080002070 <i000000053c>:
    80002070:	f8813803          	ld	a6,-120(sp)

0000000080002074 <i000000053d>:
    80002074:	83c16b03          	lwu	s6,-1988(sp)

0000000080002078 <i000000053e>:
    80002078:	0ff0000f          	fence

000000008000207c <i000000053f>:
    8000207c:	0000100f          	fence.i

0000000080002080 <i0000000540>:
    80002080:	01078d3b          	addw	s10,a5,a6

0000000080002084 <i0000000541>:
    80002084:	0ff0000f          	fence

0000000080002088 <i0000000542>:
    80002088:	1ec16f03          	lwu	t5,492(sp)

000000008000208c <i0000000543>:
    8000208c:	0000100f          	fence.i

0000000080002090 <i0000000544>:
    80002090:	60813b03          	ld	s6,1544(sp)

0000000080002094 <i0000000545>:
    80002094:	70c10683          	lb	a3,1804(sp)

0000000080002098 <i0000000546>:
    80002098:	4f913423          	sd	s9,1256(sp)
    8000209c:	0008f117          	auipc	sp,0x8f
    800020a0:	f6410113          	addi	sp,sp,-156 # 80091000 <begin_signature>
    800020a4:	6305                	lui	t1,0x1
    800020a6:	b203031b          	addiw	t1,t1,-1248 # b20 <_tbss_end+0xb20>
    800020aa:	911a                	add	sp,sp,t1

00000000800020ac <i0000000547>:
    800020ac:	f0012803          	lw	a6,-256(sp)

00000000800020b0 <i0000000548>:
    800020b0:	01535013          	srli	zero,t1,0x15

00000000800020b4 <i0000000549>:
    800020b4:	0ff0000f          	fence

00000000800020b8 <i000000054a>:
    800020b8:	e4c12003          	lw	zero,-436(sp)

00000000800020bc <i000000054b>:
    800020bc:	e8911323          	sh	s1,-378(sp)

00000000800020c0 <i000000054c>:
    800020c0:	0000100f          	fence.i

00000000800020c4 <i000000054d>:
    800020c4:	4776                	lw	a4,92(sp)

00000000800020c6 <i000000054e>:
    800020c6:	39815503          	lhu	a0,920(sp)

00000000800020ca <i000000054f>:
    800020ca:	00ee989b          	slliw	a7,t4,0xe

00000000800020ce <i0000000550>:
    800020ce:	0000100f          	fence.i
    800020d2:	0008f117          	auipc	sp,0x8f
    800020d6:	f2e10113          	addi	sp,sp,-210 # 80091000 <begin_signature>
    800020da:	6305                	lui	t1,0x1
    800020dc:	4f83031b          	addiw	t1,t1,1272 # 14f8 <_tbss_end+0x14f8>
    800020e0:	911a                	add	sp,sp,t1

00000000800020e2 <i0000000551>:
    800020e2:	7a016883          	lwu	a7,1952(sp)

00000000800020e6 <i0000000552>:
    800020e6:	ca012383          	lw	t2,-864(sp)

00000000800020ea <i0000000553>:
    800020ea:	0ff0000f          	fence

00000000800020ee <i0000000554>:
    800020ee:	9f27071b          	addiw	a4,a4,-1550

00000000800020f2 <i0000000555>:
    800020f2:	29013423          	sd	a6,648(sp)
    800020f6:	0008f117          	auipc	sp,0x8f
    800020fa:	f0a10113          	addi	sp,sp,-246 # 80091000 <begin_signature>
    800020fe:	6309                	lui	t1,0x2
    80002100:	6d83031b          	addiw	t1,t1,1752 # 26d8 <_tbss_end+0x26d8>
    80002104:	911a                	add	sp,sp,t1

0000000080002106 <i0000000556>:
    80002106:	bcc16783          	lwu	a5,-1076(sp)

000000008000210a <i0000000557>:
    8000210a:	12411c83          	lh	s9,292(sp)

000000008000210e <i0000000558>:
    8000210e:	0ff0000f          	fence

0000000080002112 <i0000000559>:
    80002112:	ba38071b          	addiw	a4,a6,-1117
    80002116:	0008f117          	auipc	sp,0x8f
    8000211a:	eea10113          	addi	sp,sp,-278 # 80091000 <begin_signature>
    8000211e:	630d                	lui	t1,0x3
    80002120:	5103031b          	addiw	t1,t1,1296 # 3510 <_tbss_end+0x3510>
    80002124:	911a                	add	sp,sp,t1

0000000080002126 <i000000055a>:
    80002126:	3c015703          	lhu	a4,960(sp)

000000008000212a <i000000055b>:
    8000212a:	0ff0000f          	fence

000000008000212e <i000000055c>:
    8000212e:	21013e03          	ld	t3,528(sp)

0000000080002132 <i000000055d>:
    80002132:	8ac16703          	lwu	a4,-1876(sp)

0000000080002136 <i000000055e>:
    80002136:	a1310f23          	sb	s3,-1506(sp)

000000008000213a <i000000055f>:
    8000213a:	0ff0000f          	fence

000000008000213e <i0000000560>:
    8000213e:	c2f13423          	sd	a5,-984(sp)

0000000080002142 <i0000000561>:
    80002142:	01d8551b          	srliw	a0,a6,0x1d

0000000080002146 <i0000000562>:
    80002146:	004e5793          	srli	a5,t3,0x4

000000008000214a <i0000000563>:
    8000214a:	13e11b03          	lh	s6,318(sp)

000000008000214e <i0000000564>:
    8000214e:	01da5d1b          	srliw	s10,s4,0x1d

0000000080002152 <i0000000565>:
    80002152:	9be11483          	lh	s1,-1602(sp)

0000000080002156 <i0000000566>:
    80002156:	b8e100a3          	sb	a4,-1151(sp)

000000008000215a <i0000000567>:
    8000215a:	4359d213          	srai	tp,s3,0x35

000000008000215e <i0000000568>:
    8000215e:	e0812703          	lw	a4,-504(sp)

0000000080002162 <i0000000569>:
    80002162:	4af11b23          	sh	a5,1206(sp)

0000000080002166 <i000000056a>:
    80002166:	aa816783          	lwu	a5,-1368(sp)

000000008000216a <i000000056b>:
    8000216a:	be013803          	ld	a6,-1056(sp)

000000008000216e <i000000056c>:
    8000216e:	0000100f          	fence.i

0000000080002172 <i000000056d>:
    80002172:	01db17bb          	sllw	a5,s6,t4

0000000080002176 <i000000056e>:
    80002176:	0ff0000f          	fence

000000008000217a <i000000056f>:
    8000217a:	47a11803          	lh	a6,1146(sp)

000000008000217e <i0000000570>:
    8000217e:	16816703          	lwu	a4,360(sp)

0000000080002182 <i0000000571>:
    80002182:	8b5109a3          	sb	s5,-1869(sp)

0000000080002186 <i0000000572>:
    80002186:	43175e13          	srai	t3,a4,0x31

000000008000218a <i0000000573>:
    8000218a:	9eb11b23          	sh	a1,-1546(sp)

000000008000218e <i0000000574>:
    8000218e:	40a1d73b          	sraw	a4,gp,a0

0000000080002192 <i0000000575>:
    80002192:	c5c10e03          	lb	t3,-932(sp)

0000000080002196 <i0000000576>:
    80002196:	72416703          	lwu	a4,1828(sp)

000000008000219a <i0000000577>:
    8000219a:	0000100f          	fence.i

000000008000219e <i0000000578>:
    8000219e:	73013803          	ld	a6,1840(sp)

00000000800021a2 <i0000000579>:
    800021a2:	a0813303          	ld	t1,-1528(sp)

00000000800021a6 <i000000057a>:
    800021a6:	93013b03          	ld	s6,-1744(sp)

00000000800021aa <i000000057b>:
    800021aa:	30816d03          	lwu	s10,776(sp)
    800021ae:	0008f117          	auipc	sp,0x8f
    800021b2:	e5210113          	addi	sp,sp,-430 # 80091000 <begin_signature>
    800021b6:	630d                	lui	t1,0x3
    800021b8:	4503031b          	addiw	t1,t1,1104 # 3450 <_tbss_end+0x3450>
    800021bc:	911a                	add	sp,sp,t1

00000000800021be <i000000057c>:
    800021be:	17016b83          	lwu	s7,368(sp)

00000000800021c2 <i000000057d>:
    800021c2:	0ff0000f          	fence
    800021c6:	0008f117          	auipc	sp,0x8f
    800021ca:	e3a10113          	addi	sp,sp,-454 # 80091000 <begin_signature>
    800021ce:	6305                	lui	t1,0x1
    800021d0:	2303031b          	addiw	t1,t1,560 # 1230 <_tbss_end+0x1230>
    800021d4:	911a                	add	sp,sp,t1

00000000800021d6 <i000000057e>:
    800021d6:	fce13423          	sd	a4,-56(sp)

00000000800021da <i000000057f>:
    800021da:	0000100f          	fence.i
    800021de:	0008f117          	auipc	sp,0x8f
    800021e2:	e2210113          	addi	sp,sp,-478 # 80091000 <begin_signature>
    800021e6:	6309                	lui	t1,0x2
    800021e8:	7e03031b          	addiw	t1,t1,2016 # 27e0 <_tbss_end+0x27e0>
    800021ec:	911a                	add	sp,sp,t1

00000000800021ee <i0000000580>:
    800021ee:	e0f13423          	sd	a5,-504(sp)
    800021f2:	0008f117          	auipc	sp,0x8f
    800021f6:	e0e10113          	addi	sp,sp,-498 # 80091000 <begin_signature>
    800021fa:	630d                	lui	t1,0x3
    800021fc:	fd03031b          	addiw	t1,t1,-48 # 2fd0 <_tbss_end+0x2fd0>
    80002200:	911a                	add	sp,sp,t1

0000000080002202 <i0000000581>:
    80002202:	e5be                	sd	a5,200(sp)

0000000080002204 <i0000000582>:
    80002204:	eef13423          	sd	a5,-280(sp)

0000000080002208 <i0000000583>:
    80002208:	ef416883          	lwu	a7,-268(sp)

000000008000220c <i0000000584>:
    8000220c:	4167581b          	sraiw	a6,a4,0x16

0000000080002210 <i0000000585>:
    80002210:	013a5c13          	srli	s8,s4,0x13

0000000080002214 <i0000000586>:
    80002214:	8bc12b83          	lw	s7,-1860(sp)

0000000080002218 <i0000000587>:
    80002218:	9d013683          	ld	a3,-1584(sp)

000000008000221c <i0000000588>:
    8000221c:	00185793          	srli	a5,a6,0x1

0000000080002220 <i0000000589>:
    80002220:	48e13823          	sd	a4,1168(sp)

0000000080002224 <i000000058a>:
    80002224:	0000100f          	fence.i
    80002228:	0008f117          	auipc	sp,0x8f
    8000222c:	dd810113          	addi	sp,sp,-552 # 80091000 <begin_signature>
    80002230:	6309                	lui	t1,0x2
    80002232:	1603031b          	addiw	t1,t1,352 # 2160 <_tbss_end+0x2160>
    80002236:	911a                	add	sp,sp,t1

0000000080002238 <i000000058b>:
    80002238:	6fa6                	ld	t6,72(sp)

000000008000223a <i000000058c>:
    8000223a:	0d511e23          	sh	s5,220(sp)

000000008000223e <i000000058d>:
    8000223e:	0000100f          	fence.i

0000000080002242 <i000000058e>:
    80002242:	0ff0000f          	fence

0000000080002246 <i000000058f>:
    80002246:	4147d393          	srai	t2,a5,0x14

000000008000224a <i0000000590>:
    8000224a:	be016583          	lwu	a1,-1056(sp)
    8000224e:	0008f117          	auipc	sp,0x8f
    80002252:	db210113          	addi	sp,sp,-590 # 80091000 <begin_signature>
    80002256:	630d                	lui	t1,0x3
    80002258:	9703031b          	addiw	t1,t1,-1680 # 2970 <_tbss_end+0x2970>
    8000225c:	911a                	add	sp,sp,t1

000000008000225e <i0000000591>:
    8000225e:	e7f11e23          	sh	t6,-388(sp)

0000000080002262 <i0000000592>:
    80002262:	9d412703          	lw	a4,-1580(sp)

0000000080002266 <i0000000593>:
    80002266:	fd6107a3          	sb	s6,-49(sp)

000000008000226a <i0000000594>:
    8000226a:	80416283          	lwu	t0,-2044(sp)

000000008000226e <i0000000595>:
    8000226e:	0000100f          	fence.i

0000000080002272 <i0000000596>:
    80002272:	0ff0000f          	fence

0000000080002276 <i0000000597>:
    80002276:	4040571b          	sraiw	a4,zero,0x4

000000008000227a <i0000000598>:
    8000227a:	0000100f          	fence.i
    8000227e:	0008f117          	auipc	sp,0x8f
    80002282:	d8210113          	addi	sp,sp,-638 # 80091000 <begin_signature>
    80002286:	6305                	lui	t1,0x1
    80002288:	d003031b          	addiw	t1,t1,-768 # d00 <_tbss_end+0xd00>
    8000228c:	911a                	add	sp,sp,t1

000000008000228e <i0000000599>:
    8000228e:	0a614d03          	lbu	s10,166(sp)

0000000080002292 <i000000059a>:
    80002292:	0000100f          	fence.i

0000000080002296 <i000000059b>:
    80002296:	b9d10d23          	sb	t4,-1126(sp)

000000008000229a <i000000059c>:
    8000229a:	0000100f          	fence.i

000000008000229e <i000000059d>:
    8000229e:	0005093b          	addw	s2,a0,zero

00000000800022a2 <i000000059e>:
    800022a2:	35416803          	lwu	a6,852(sp)

00000000800022a6 <i000000059f>:
    800022a6:	b0e12a23          	sw	a4,-1260(sp)
    800022aa:	0008f117          	auipc	sp,0x8f
    800022ae:	d5610113          	addi	sp,sp,-682 # 80091000 <begin_signature>
    800022b2:	6305                	lui	t1,0x1
    800022b4:	fd03031b          	addiw	t1,t1,-48 # fd0 <_tbss_end+0xfd0>
    800022b8:	911a                	add	sp,sp,t1

00000000800022ba <i00000005a0>:
    800022ba:	7736                	ld	a4,360(sp)

00000000800022bc <i00000005a1>:
    800022bc:	d8f100a3          	sb	a5,-639(sp)

00000000800022c0 <i00000005a2>:
    800022c0:	67816803          	lwu	a6,1656(sp)

00000000800022c4 <i00000005a3>:
    800022c4:	0000100f          	fence.i

00000000800022c8 <i00000005a4>:
    800022c8:	0ff0000f          	fence

00000000800022cc <i00000005a5>:
    800022cc:	0af14e03          	lbu	t3,175(sp)
    800022d0:	0008f117          	auipc	sp,0x8f
    800022d4:	d3010113          	addi	sp,sp,-720 # 80091000 <begin_signature>
    800022d8:	6309                	lui	t1,0x2
    800022da:	db03031b          	addiw	t1,t1,-592 # 1db0 <_tbss_end+0x1db0>
    800022de:	911a                	add	sp,sp,t1

00000000800022e0 <i00000005a6>:
    800022e0:	feba                	sd	a4,376(sp)

00000000800022e2 <i00000005a7>:
    800022e2:	def13423          	sd	a5,-536(sp)
    800022e6:	0008f117          	auipc	sp,0x8f
    800022ea:	d1a10113          	addi	sp,sp,-742 # 80091000 <begin_signature>
    800022ee:	6309                	lui	t1,0x2
    800022f0:	6383031b          	addiw	t1,t1,1592 # 2638 <_tbss_end+0x2638>
    800022f4:	911a                	add	sp,sp,t1

00000000800022f6 <i00000005a8>:
    800022f6:	22416303          	lwu	t1,548(sp)

00000000800022fa <i00000005a9>:
    800022fa:	42d11f23          	sh	a3,1086(sp)

00000000800022fe <i00000005aa>:
    800022fe:	e4b14503          	lbu	a0,-437(sp)

0000000080002302 <i00000005ab>:
    80002302:	0000100f          	fence.i

0000000080002306 <i00000005ac>:
    80002306:	0051863b          	addw	a2,gp,t0

000000008000230a <i00000005ad>:
    8000230a:	c5313c23          	sd	s3,-936(sp)

000000008000230e <i00000005ae>:
    8000230e:	40c7519b          	sraiw	gp,a4,0xc

0000000080002312 <i00000005af>:
    80002312:	0ff0000f          	fence

0000000080002316 <i00000005b0>:
    80002316:	80012283          	lw	t0,-2048(sp)

000000008000231a <i00000005b1>:
    8000231a:	00cb88bb          	addw	a7,s7,a2

000000008000231e <i00000005b2>:
    8000231e:	0000100f          	fence.i
    80002322:	0008f117          	auipc	sp,0x8f
    80002326:	cde10113          	addi	sp,sp,-802 # 80091000 <begin_signature>
    8000232a:	630d                	lui	t1,0x3
    8000232c:	d683031b          	addiw	t1,t1,-664 # 2d68 <_tbss_end+0x2d68>
    80002330:	911a                	add	sp,sp,t1

0000000080002332 <i00000005b3>:
    80002332:	4c713823          	sd	t2,1232(sp)

0000000080002336 <i00000005b4>:
    80002336:	2e012803          	lw	a6,736(sp)

000000008000233a <i00000005b5>:
    8000233a:	00a51813          	slli	a6,a0,0xa

000000008000233e <i00000005b6>:
    8000233e:	b9a11703          	lh	a4,-1126(sp)

0000000080002342 <i00000005b7>:
    80002342:	c5013423          	sd	a6,-952(sp)

0000000080002346 <i00000005b8>:
    80002346:	0000100f          	fence.i

000000008000234a <i00000005b9>:
    8000234a:	00cc983b          	sllw	a6,s9,a2

000000008000234e <i00000005ba>:
    8000234e:	026b5813          	srli	a6,s6,0x26

0000000080002352 <i00000005bb>:
    80002352:	51411303          	lh	t1,1300(sp)

0000000080002356 <i00000005bc>:
    80002356:	e19107a3          	sb	s9,-497(sp)

000000008000235a <i00000005bd>:
    8000235a:	99c16883          	lwu	a7,-1636(sp)
    8000235e:	0008f117          	auipc	sp,0x8f
    80002362:	ca210113          	addi	sp,sp,-862 # 80091000 <begin_signature>
    80002366:	6305                	lui	t1,0x1
    80002368:	7c83031b          	addiw	t1,t1,1992 # 17c8 <_tbss_end+0x17c8>
    8000236c:	911a                	add	sp,sp,t1

000000008000236e <i00000005be>:
    8000236e:	e0813703          	ld	a4,-504(sp)

0000000080002372 <i00000005bf>:
    80002372:	0ff0000f          	fence

0000000080002376 <i00000005c0>:
    80002376:	e5b13423          	sd	s11,-440(sp)

000000008000237a <i00000005c1>:
    8000237a:	0000100f          	fence.i

000000008000237e <i00000005c2>:
    8000237e:	f3814303          	lbu	t1,-200(sp)

0000000080002382 <i00000005c3>:
    80002382:	0000100f          	fence.i

0000000080002386 <i00000005c4>:
    80002386:	010757bb          	srlw	a5,a4,a6

000000008000238a <i00000005c5>:
    8000238a:	0ff0000f          	fence
    8000238e:	0008f117          	auipc	sp,0x8f
    80002392:	c7210113          	addi	sp,sp,-910 # 80091000 <begin_signature>
    80002396:	630d                	lui	t1,0x3
    80002398:	4003031b          	addiw	t1,t1,1024 # 3400 <_tbss_end+0x3400>
    8000239c:	911a                	add	sp,sp,t1

000000008000239e <i00000005c6>:
    8000239e:	f6813f83          	ld	t6,-152(sp)

00000000800023a2 <i00000005c7>:
    800023a2:	0144971b          	slliw	a4,s1,0x14
    800023a6:	0008f117          	auipc	sp,0x8f
    800023aa:	c5a10113          	addi	sp,sp,-934 # 80091000 <begin_signature>
    800023ae:	6305                	lui	t1,0x1
    800023b0:	fc03031b          	addiw	t1,t1,-64 # fc0 <_tbss_end+0xfc0>
    800023b4:	911a                	add	sp,sp,t1

00000000800023b6 <i00000005c8>:
    800023b6:	56c16483          	lwu	s1,1388(sp)

00000000800023ba <i00000005c9>:
    800023ba:	22812883          	lw	a7,552(sp)

00000000800023be <i00000005ca>:
    800023be:	02071813          	slli	a6,a4,0x20

00000000800023c2 <i00000005cb>:
    800023c2:	c6e11f03          	lh	t5,-914(sp)

00000000800023c6 <i00000005cc>:
    800023c6:	e9815783          	lhu	a5,-360(sp)

00000000800023ca <i00000005cd>:
    800023ca:	0000100f          	fence.i

00000000800023ce <i00000005ce>:
    800023ce:	b6414803          	lbu	a6,-1180(sp)

00000000800023d2 <i00000005cf>:
    800023d2:	01f3973b          	sllw	a4,t2,t6

00000000800023d6 <i00000005d0>:
    800023d6:	3a813e03          	ld	t3,936(sp)

00000000800023da <i00000005d1>:
    800023da:	24114883          	lbu	a7,577(sp)

00000000800023de <i00000005d2>:
    800023de:	0ff0000f          	fence

00000000800023e2 <i00000005d3>:
    800023e2:	416f82bb          	subw	t0,t6,s6

00000000800023e6 <i00000005d4>:
    800023e6:	016e933b          	sllw	t1,t4,s6
    800023ea:	0008f117          	auipc	sp,0x8f
    800023ee:	c1610113          	addi	sp,sp,-1002 # 80091000 <begin_signature>
    800023f2:	6305                	lui	t1,0x1
    800023f4:	5903031b          	addiw	t1,t1,1424 # 1590 <_tbss_end+0x1590>
    800023f8:	911a                	add	sp,sp,t1

00000000800023fa <i00000005d5>:
    800023fa:	675a                	ld	a4,400(sp)

00000000800023fc <i00000005d6>:
    800023fc:	23411023          	sh	s4,544(sp)

0000000080002400 <i00000005d7>:
    80002400:	43f8d893          	srai	a7,a7,0x3f

0000000080002404 <i00000005d8>:
    80002404:	00421e3b          	sllw	t3,tp,tp
    80002408:	0008f117          	auipc	sp,0x8f
    8000240c:	bf810113          	addi	sp,sp,-1032 # 80091000 <begin_signature>
    80002410:	6305                	lui	t1,0x1
    80002412:	5083031b          	addiw	t1,t1,1288 # 1508 <_tbss_end+0x1508>
    80002416:	911a                	add	sp,sp,t1

0000000080002418 <i00000005d9>:
    80002418:	97013803          	ld	a6,-1680(sp)

000000008000241c <i00000005da>:
    8000241c:	0000100f          	fence.i

0000000080002420 <i00000005db>:
    80002420:	50e11323          	sh	a4,1286(sp)

0000000080002424 <i00000005dc>:
    80002424:	0ff0000f          	fence

0000000080002428 <i00000005dd>:
    80002428:	7b012023          	sw	a6,1952(sp)

000000008000242c <i00000005de>:
    8000242c:	0ff0000f          	fence

0000000080002430 <i00000005df>:
    80002430:	17c16803          	lwu	a6,380(sp)

0000000080002434 <i00000005e0>:
    80002434:	0ff0000f          	fence

0000000080002438 <i00000005e1>:
    80002438:	0000100f          	fence.i

000000008000243c <i00000005e2>:
    8000243c:	0ff0000f          	fence

0000000080002440 <i00000005e3>:
    80002440:	06810e03          	lb	t3,104(sp)

0000000080002444 <i00000005e4>:
    80002444:	0ff0000f          	fence

0000000080002448 <i00000005e5>:
    80002448:	017a579b          	srliw	a5,s4,0x17

000000008000244c <i00000005e6>:
    8000244c:	9e8100a3          	sb	s0,-1567(sp)

0000000080002450 <i00000005e7>:
    80002450:	0000100f          	fence.i

0000000080002454 <i00000005e8>:
    80002454:	15c8071b          	addiw	a4,a6,348

0000000080002458 <i00000005e9>:
    80002458:	02c35713          	srli	a4,t1,0x2c

000000008000245c <i00000005ea>:
    8000245c:	0000100f          	fence.i

0000000080002460 <i00000005eb>:
    80002460:	86f13c23          	sd	a5,-1928(sp)

0000000080002464 <i00000005ec>:
    80002464:	84013783          	ld	a5,-1984(sp)

0000000080002468 <i00000005ed>:
    80002468:	6b013b83          	ld	s7,1712(sp)

000000008000246c <i00000005ee>:
    8000246c:	5f415f83          	lhu	t6,1524(sp)

0000000080002470 <i00000005ef>:
    80002470:	ee514783          	lbu	a5,-283(sp)
    80002474:	0008f117          	auipc	sp,0x8f
    80002478:	b8c10113          	addi	sp,sp,-1140 # 80091000 <begin_signature>
    8000247c:	630d                	lui	t1,0x3
    8000247e:	f883031b          	addiw	t1,t1,-120 # 2f88 <_tbss_end+0x2f88>
    80002482:	911a                	add	sp,sp,t1

0000000080002484 <i00000005f0>:
    80002484:	aaf13023          	sd	a5,-1376(sp)

0000000080002488 <i00000005f1>:
    80002488:	7ae11c23          	sh	a4,1976(sp)

000000008000248c <i00000005f2>:
    8000248c:	0000100f          	fence.i

0000000080002490 <i00000005f3>:
    80002490:	94e15483          	lhu	s1,-1714(sp)

0000000080002494 <i00000005f4>:
    80002494:	4dc12203          	lw	tp,1244(sp)
    80002498:	0008f117          	auipc	sp,0x8f
    8000249c:	b6810113          	addi	sp,sp,-1176 # 80091000 <begin_signature>
    800024a0:	630d                	lui	t1,0x3
    800024a2:	6e03031b          	addiw	t1,t1,1760 # 36e0 <_tbss_end+0x36e0>
    800024a6:	911a                	add	sp,sp,t1

00000000800024a8 <i00000005f5>:
    800024a8:	a3714783          	lbu	a5,-1481(sp)

00000000800024ac <i00000005f6>:
    800024ac:	0ff0000f          	fence

00000000800024b0 <i00000005f7>:
    800024b0:	e3be                	sd	a5,448(sp)

00000000800024b2 <i00000005f8>:
    800024b2:	63813703          	ld	a4,1592(sp)

00000000800024b6 <i00000005f9>:
    800024b6:	40f80c3b          	subw	s8,a6,a5

00000000800024ba <i00000005fa>:
    800024ba:	fd013883          	ld	a7,-48(sp)

00000000800024be <i00000005fb>:
    800024be:	0ff0000f          	fence

00000000800024c2 <i00000005fc>:
    800024c2:	4ae70c1b          	addiw	s8,a4,1198

00000000800024c6 <i00000005fd>:
    800024c6:	0000100f          	fence.i

00000000800024ca <i00000005fe>:
    800024ca:	56c12d03          	lw	s10,1388(sp)

00000000800024ce <i00000005ff>:
    800024ce:	0000100f          	fence.i

00000000800024d2 <i0000000600>:
    800024d2:	96c16703          	lwu	a4,-1684(sp)

00000000800024d6 <i0000000601>:
    800024d6:	74f13823          	sd	a5,1872(sp)

00000000800024da <i0000000602>:
    800024da:	00e8073b          	addw	a4,a6,a4

00000000800024de <i0000000603>:
    800024de:	00e7573b          	srlw	a4,a4,a4

00000000800024e2 <i0000000604>:
    800024e2:	cf016e03          	lwu	t3,-784(sp)

00000000800024e6 <i0000000605>:
    800024e6:	0ff0000f          	fence

00000000800024ea <i0000000606>:
    800024ea:	0187149b          	slliw	s1,a4,0x18

00000000800024ee <i0000000607>:
    800024ee:	45a11483          	lh	s1,1114(sp)

00000000800024f2 <i0000000608>:
    800024f2:	0000100f          	fence.i

00000000800024f6 <i0000000609>:
    800024f6:	6ae13423          	sd	a4,1704(sp)

00000000800024fa <i000000060a>:
    800024fa:	59111023          	sh	a7,1408(sp)

00000000800024fe <i000000060b>:
    800024fe:	0ff0000f          	fence

0000000080002502 <i000000060c>:
    80002502:	00e8073b          	addw	a4,a6,a4

0000000080002506 <i000000060d>:
    80002506:	43785793          	srai	a5,a6,0x37

000000008000250a <i000000060e>:
    8000250a:	0ff0000f          	fence

000000008000250e <i000000060f>:
    8000250e:	0ff0000f          	fence

0000000080002512 <i0000000610>:
    80002512:	00e11823          	sh	a4,16(sp)

0000000080002516 <i0000000611>:
    80002516:	50f11123          	sh	a5,1282(sp)

000000008000251a <i0000000612>:
    8000251a:	0ff0000f          	fence

000000008000251e <i0000000613>:
    8000251e:	24f13423          	sd	a5,584(sp)

0000000080002522 <i0000000614>:
    80002522:	ca016a83          	lwu	s5,-864(sp)

0000000080002526 <i0000000615>:
    80002526:	22f12c23          	sw	a5,568(sp)

000000008000252a <i0000000616>:
    8000252a:	40e9d71b          	sraiw	a4,s3,0xe

000000008000252e <i0000000617>:
    8000252e:	9c412783          	lw	a5,-1596(sp)

0000000080002532 <i0000000618>:
    80002532:	ef013823          	sd	a6,-272(sp)

0000000080002536 <i0000000619>:
    80002536:	0000100f          	fence.i

000000008000253a <i000000061a>:
    8000253a:	36013783          	ld	a5,864(sp)

000000008000253e <i000000061b>:
    8000253e:	bec13823          	sd	a2,-1040(sp)

0000000080002542 <i000000061c>:
    80002542:	40c9d19b          	sraiw	gp,s3,0xc

0000000080002546 <i000000061d>:
    80002546:	4c013803          	ld	a6,1216(sp)

000000008000254a <i000000061e>:
    8000254a:	02d39713          	slli	a4,t2,0x2d

000000008000254e <i000000061f>:
    8000254e:	0107d5bb          	srlw	a1,a5,a6

0000000080002552 <i0000000620>:
    80002552:	4107573b          	sraw	a4,a4,a6

0000000080002556 <i0000000621>:
    80002556:	71814c83          	lbu	s9,1816(sp)

000000008000255a <i0000000622>:
    8000255a:	f0d10423          	sb	a3,-248(sp)

000000008000255e <i0000000623>:
    8000255e:	4e813703          	ld	a4,1256(sp)
    80002562:	0008f117          	auipc	sp,0x8f
    80002566:	a9e10113          	addi	sp,sp,-1378 # 80091000 <begin_signature>
    8000256a:	630d                	lui	t1,0x3
    8000256c:	ea83031b          	addiw	t1,t1,-344 # 2ea8 <_tbss_end+0x2ea8>
    80002570:	911a                	add	sp,sp,t1

0000000080002572 <i0000000624>:
    80002572:	0c410503          	lb	a0,196(sp)

0000000080002576 <i0000000625>:
    80002576:	86012e03          	lw	t3,-1952(sp)

000000008000257a <i0000000626>:
    8000257a:	c4b12023          	sw	a1,-960(sp)

000000008000257e <i0000000627>:
    8000257e:	41dbdb9b          	sraiw	s7,s7,0x1d

0000000080002582 <i0000000628>:
    80002582:	aac16d83          	lwu	s11,-1364(sp)

0000000080002586 <i0000000629>:
    80002586:	0000100f          	fence.i

000000008000258a <i000000062a>:
    8000258a:	b42b871b          	addiw	a4,s7,-1214

000000008000258e <i000000062b>:
    8000258e:	9f57881b          	addiw	a6,a5,-1547

0000000080002592 <i000000062c>:
    80002592:	be013703          	ld	a4,-1056(sp)

0000000080002596 <i000000062d>:
    80002596:	0000100f          	fence.i

000000008000259a <i000000062e>:
    8000259a:	0000100f          	fence.i

000000008000259e <i000000062f>:
    8000259e:	0000100f          	fence.i

00000000800025a2 <i0000000630>:
    800025a2:	40e756bb          	sraw	a3,a4,a4

00000000800025a6 <i0000000631>:
    800025a6:	0000100f          	fence.i

00000000800025aa <i0000000632>:
    800025aa:	0ff0000f          	fence

00000000800025ae <i0000000633>:
    800025ae:	40f7873b          	subw	a4,a5,a5

00000000800025b2 <i0000000634>:
    800025b2:	ff1e                	sd	t2,440(sp)

00000000800025b4 <i0000000635>:
    800025b4:	40f75abb          	sraw	s5,a4,a5

00000000800025b8 <i0000000636>:
    800025b8:	411356bb          	sraw	a3,t1,a7

00000000800025bc <i0000000637>:
    800025bc:	0ff0000f          	fence

00000000800025c0 <i0000000638>:
    800025c0:	0000100f          	fence.i

00000000800025c4 <i0000000639>:
    800025c4:	0000100f          	fence.i

00000000800025c8 <i000000063a>:
    800025c8:	00b7db9b          	srliw	s7,a5,0xb

00000000800025cc <i000000063b>:
    800025cc:	010791bb          	sllw	gp,a5,a6
    800025d0:	0008f117          	auipc	sp,0x8f
    800025d4:	a3010113          	addi	sp,sp,-1488 # 80091000 <begin_signature>
    800025d8:	630d                	lui	t1,0x3
    800025da:	9c83031b          	addiw	t1,t1,-1592 # 29c8 <_tbss_end+0x29c8>
    800025de:	911a                	add	sp,sp,t1

00000000800025e0 <i000000063c>:
    800025e0:	70c16783          	lwu	a5,1804(sp)

00000000800025e4 <i000000063d>:
    800025e4:	402b5793          	srai	a5,s6,0x2

00000000800025e8 <i000000063e>:
    800025e8:	69f10fa3          	sb	t6,1695(sp)

00000000800025ec <i000000063f>:
    800025ec:	a1b13023          	sd	s11,-1536(sp)
    800025f0:	0008f117          	auipc	sp,0x8f
    800025f4:	a1010113          	addi	sp,sp,-1520 # 80091000 <begin_signature>
    800025f8:	6309                	lui	t1,0x2
    800025fa:	5903031b          	addiw	t1,t1,1424 # 2590 <_tbss_end+0x2590>
    800025fe:	911a                	add	sp,sp,t1

0000000080002600 <i0000000640>:
    80002600:	1df10ba3          	sb	t6,471(sp)

0000000080002604 <i0000000641>:
    80002604:	43415783          	lhu	a5,1076(sp)

0000000080002608 <i0000000642>:
    80002608:	0ff0000f          	fence
    8000260c:	0008f117          	auipc	sp,0x8f
    80002610:	9f410113          	addi	sp,sp,-1548 # 80091000 <begin_signature>
    80002614:	6305                	lui	t1,0x1
    80002616:	b183031b          	addiw	t1,t1,-1256 # b18 <_tbss_end+0xb18>
    8000261a:	911a                	add	sp,sp,t1

000000008000261c <i0000000643>:
    8000261c:	80014a83          	lbu	s5,-2048(sp)

0000000080002620 <i0000000644>:
    80002620:	0ff0000f          	fence

0000000080002624 <i0000000645>:
    80002624:	0142983b          	sllw	a6,t0,s4

0000000080002628 <i0000000646>:
    80002628:	0107183b          	sllw	a6,a4,a6

000000008000262c <i0000000647>:
    8000262c:	e9013b83          	ld	s7,-368(sp)

0000000080002630 <i0000000648>:
    80002630:	7f211803          	lh	a6,2034(sp)

0000000080002634 <i0000000649>:
    80002634:	01bbde9b          	srliw	t4,s7,0x1b

0000000080002638 <i000000064a>:
    80002638:	003b103b          	sllw	zero,s6,gp

000000008000263c <i000000064b>:
    8000263c:	0000100f          	fence.i
    80002640:	0008f117          	auipc	sp,0x8f
    80002644:	9c010113          	addi	sp,sp,-1600 # 80091000 <begin_signature>
    80002648:	6305                	lui	t1,0x1
    8000264a:	f383031b          	addiw	t1,t1,-200 # f38 <_tbss_end+0xf38>
    8000264e:	911a                	add	sp,sp,t1

0000000080002650 <i000000064c>:
    80002650:	d8015583          	lhu	a1,-640(sp)

0000000080002654 <i000000064d>:
    80002654:	ae8a079b          	addiw	a5,s4,-1304

0000000080002658 <i000000064e>:
    80002658:	0000100f          	fence.i

000000008000265c <i000000064f>:
    8000265c:	f0e13423          	sd	a4,-248(sp)

0000000080002660 <i0000000650>:
    80002660:	0ff0000f          	fence

0000000080002664 <i0000000651>:
    80002664:	fb013a03          	ld	s4,-80(sp)

0000000080002668 <i0000000652>:
    80002668:	8e513023          	sd	t0,-1824(sp)

000000008000266c <i0000000653>:
    8000266c:	00d7179b          	slliw	a5,a4,0xd

0000000080002670 <i0000000654>:
    80002670:	41ef57bb          	sraw	a5,t5,t5

0000000080002674 <i0000000655>:
    80002674:	011a5d1b          	srliw	s10,s4,0x11

0000000080002678 <i0000000656>:
    80002678:	0000100f          	fence.i

000000008000267c <i0000000657>:
    8000267c:	00621d9b          	slliw	s11,tp,0x6

0000000080002680 <i0000000658>:
    80002680:	0108133b          	sllw	t1,a6,a6
    80002684:	0008f117          	auipc	sp,0x8f
    80002688:	97c10113          	addi	sp,sp,-1668 # 80091000 <begin_signature>
    8000268c:	6309                	lui	t1,0x2
    8000268e:	3321                	addiw	t1,t1,-24 # 1fe8 <_tbss_end+0x1fe8>
    80002690:	911a                	add	sp,sp,t1

0000000080002692 <i0000000659>:
    80002692:	84a15783          	lhu	a5,-1974(sp)

0000000080002696 <i000000065a>:
    80002696:	002d9913          	slli	s2,s11,0x2

000000008000269a <i000000065b>:
    8000269a:	0ff0000f          	fence

000000008000269e <i000000065c>:
    8000269e:	44816783          	lwu	a5,1096(sp)

00000000800026a2 <i000000065d>:
    800026a2:	0000100f          	fence.i

00000000800026a6 <i000000065e>:
    800026a6:	fbba                	sd	a4,496(sp)

00000000800026a8 <i000000065f>:
    800026a8:	1cf12c23          	sw	a5,472(sp)

00000000800026ac <i0000000660>:
    800026ac:	85314703          	lbu	a4,-1965(sp)

00000000800026b0 <i0000000661>:
    800026b0:	e02a                	sd	a0,0(sp)

00000000800026b2 <i0000000662>:
    800026b2:	0ff0000f          	fence
    800026b6:	0008f117          	auipc	sp,0x8f
    800026ba:	94a10113          	addi	sp,sp,-1718 # 80091000 <begin_signature>
    800026be:	6309                	lui	t1,0x2
    800026c0:	3e83031b          	addiw	t1,t1,1000 # 23e8 <_tbss_end+0x23e8>
    800026c4:	911a                	add	sp,sp,t1

00000000800026c6 <i0000000663>:
    800026c6:	5d016703          	lwu	a4,1488(sp)
    800026ca:	0008f117          	auipc	sp,0x8f
    800026ce:	93610113          	addi	sp,sp,-1738 # 80091000 <begin_signature>
    800026d2:	6305                	lui	t1,0x1
    800026d4:	aa03031b          	addiw	t1,t1,-1376 # aa0 <_tbss_end+0xaa0>
    800026d8:	911a                	add	sp,sp,t1

00000000800026da <i0000000664>:
    800026da:	e642                	sd	a6,264(sp)

00000000800026dc <i0000000665>:
    800026dc:	0ff0000f          	fence

00000000800026e0 <i0000000666>:
    800026e0:	11816803          	lwu	a6,280(sp)

00000000800026e4 <i0000000667>:
    800026e4:	00f8093b          	addw	s2,a6,a5

00000000800026e8 <i0000000668>:
    800026e8:	00e75a3b          	srlw	s4,a4,a4

00000000800026ec <i0000000669>:
    800026ec:	0ff0000f          	fence

00000000800026f0 <i000000066a>:
    800026f0:	0000100f          	fence.i
    800026f4:	0008f117          	auipc	sp,0x8f
    800026f8:	90c10113          	addi	sp,sp,-1780 # 80091000 <begin_signature>
    800026fc:	630d                	lui	t1,0x3
    800026fe:	c003031b          	addiw	t1,t1,-1024 # 2c00 <_tbss_end+0x2c00>
    80002702:	911a                	add	sp,sp,t1

0000000080002704 <i000000066b>:
    80002704:	eae12223          	sw	a4,-348(sp)

0000000080002708 <i000000066c>:
    80002708:	0ff0000f          	fence

000000008000270c <i000000066d>:
    8000270c:	0000100f          	fence.i

0000000080002710 <i000000066e>:
    80002710:	0000100f          	fence.i
    80002714:	0008f117          	auipc	sp,0x8f
    80002718:	8ec10113          	addi	sp,sp,-1812 # 80091000 <begin_signature>
    8000271c:	6305                	lui	t1,0x1
    8000271e:	0383031b          	addiw	t1,t1,56 # 1038 <_tbss_end+0x1038>
    80002722:	911a                	add	sp,sp,t1

0000000080002724 <i000000066f>:
    80002724:	b2f107a3          	sb	a5,-1233(sp)

0000000080002728 <i0000000670>:
    80002728:	9ca13023          	sd	a0,-1600(sp)

000000008000272c <i0000000671>:
    8000272c:	72e13823          	sd	a4,1840(sp)

0000000080002730 <i0000000672>:
    80002730:	eca13823          	sd	a0,-304(sp)

0000000080002734 <i0000000673>:
    80002734:	0ff0000f          	fence

0000000080002738 <i0000000674>:
    80002738:	0ff0000f          	fence

000000008000273c <i0000000675>:
    8000273c:	76e15703          	lhu	a4,1902(sp)

0000000080002740 <i0000000676>:
    80002740:	0198181b          	slliw	a6,a6,0x19

0000000080002744 <i0000000677>:
    80002744:	40e80f3b          	subw	t5,a6,a4

0000000080002748 <i0000000678>:
    80002748:	11610423          	sb	s6,264(sp)

000000008000274c <i0000000679>:
    8000274c:	fee6                	sd	s9,376(sp)

000000008000274e <i000000067a>:
    8000274e:	bca13423          	sd	a0,-1080(sp)

0000000080002752 <i000000067b>:
    80002752:	a8c10703          	lb	a4,-1396(sp)

0000000080002756 <i000000067c>:
    80002756:	0ff0000f          	fence

000000008000275a <i000000067d>:
    8000275a:	019659bb          	srlw	s3,a2,s9

000000008000275e <i000000067e>:
    8000275e:	84812783          	lw	a5,-1976(sp)

0000000080002762 <i000000067f>:
    80002762:	88813803          	ld	a6,-1912(sp)

0000000080002766 <i0000000680>:
    80002766:	41075dbb          	sraw	s11,a4,a6

000000008000276a <i0000000681>:
    8000276a:	40e754bb          	sraw	s1,a4,a4

000000008000276e <i0000000682>:
    8000276e:	a3211783          	lh	a5,-1486(sp)

0000000080002772 <i0000000683>:
    80002772:	66c2                	ld	a3,16(sp)

0000000080002774 <i0000000684>:
    80002774:	0000100f          	fence.i

0000000080002778 <i0000000685>:
    80002778:	00ce873b          	addw	a4,t4,a2

000000008000277c <i0000000686>:
    8000277c:	785e                	ld	a6,496(sp)

000000008000277e <i0000000687>:
    8000277e:	29415803          	lhu	a6,660(sp)

0000000080002782 <i0000000688>:
    80002782:	65112623          	sw	a7,1612(sp)

0000000080002786 <i0000000689>:
    80002786:	b8c12c03          	lw	s8,-1140(sp)

000000008000278a <i000000068a>:
    8000278a:	43013003          	ld	zero,1072(sp)

000000008000278e <i000000068b>:
    8000278e:	49813783          	ld	a5,1176(sp)

0000000080002792 <i000000068c>:
    80002792:	53813783          	ld	a5,1336(sp)

0000000080002796 <i000000068d>:
    80002796:	0000100f          	fence.i

000000008000279a <i000000068e>:
    8000279a:	015ed73b          	srlw	a4,t4,s5

000000008000279e <i000000068f>:
    8000279e:	0000100f          	fence.i

00000000800027a2 <i0000000690>:
    800027a2:	007bd71b          	srliw	a4,s7,0x7

00000000800027a6 <i0000000691>:
    800027a6:	2f813803          	ld	a6,760(sp)

00000000800027aa <i0000000692>:
    800027aa:	0108183b          	sllw	a6,a6,a6

00000000800027ae <i0000000693>:
    800027ae:	60f106a3          	sb	a5,1549(sp)

00000000800027b2 <i0000000694>:
    800027b2:	40f8073b          	subw	a4,a6,a5

00000000800027b6 <i0000000695>:
    800027b6:	0ff0000f          	fence

00000000800027ba <i0000000696>:
    800027ba:	98013503          	ld	a0,-1664(sp)

00000000800027be <i0000000697>:
    800027be:	0197981b          	slliw	a6,a5,0x19

00000000800027c2 <i0000000698>:
    800027c2:	d3215603          	lhu	a2,-718(sp)

00000000800027c6 <i0000000699>:
    800027c6:	4087df13          	srai	t5,a5,0x8

00000000800027ca <i000000069a>:
    800027ca:	42475593          	srai	a1,a4,0x24

00000000800027ce <i000000069b>:
    800027ce:	41070dbb          	subw	s11,a4,a6

00000000800027d2 <i000000069c>:
    800027d2:	413d093b          	subw	s2,s10,s3

00000000800027d6 <i000000069d>:
    800027d6:	28016703          	lwu	a4,640(sp)
    800027da:	0008f117          	auipc	sp,0x8f
    800027de:	82610113          	addi	sp,sp,-2010 # 80091000 <begin_signature>
    800027e2:	6305                	lui	t1,0x1
    800027e4:	1183031b          	addiw	t1,t1,280 # 1118 <_tbss_end+0x1118>
    800027e8:	911a                	add	sp,sp,t1

00000000800027ea <i000000069e>:
    800027ea:	d4011703          	lh	a4,-704(sp)

00000000800027ee <i000000069f>:
    800027ee:	7b416e03          	lwu	t3,1972(sp)

00000000800027f2 <i00000006a0>:
    800027f2:	0ff0000f          	fence

00000000800027f6 <i00000006a1>:
    800027f6:	1af11323          	sh	a5,422(sp)
    800027fa:	0008f117          	auipc	sp,0x8f
    800027fe:	80610113          	addi	sp,sp,-2042 # 80091000 <begin_signature>
    80002802:	6309                	lui	t1,0x2
    80002804:	6483031b          	addiw	t1,t1,1608 # 2648 <_tbss_end+0x2648>
    80002808:	911a                	add	sp,sp,t1

000000008000280a <i00000006a2>:
    8000280a:	b4014883          	lbu	a7,-1216(sp)
    8000280e:	0008e117          	auipc	sp,0x8e
    80002812:	7f210113          	addi	sp,sp,2034 # 80091000 <begin_signature>
    80002816:	630d                	lui	t1,0x3
    80002818:	d783031b          	addiw	t1,t1,-648 # 2d78 <_tbss_end+0x2d78>
    8000281c:	911a                	add	sp,sp,t1

000000008000281e <i00000006a3>:
    8000281e:	e9c10803          	lb	a6,-356(sp)

0000000080002822 <i00000006a4>:
    80002822:	e6013703          	ld	a4,-416(sp)

0000000080002826 <i00000006a5>:
    80002826:	0000100f          	fence.i

000000008000282a <i00000006a6>:
    8000282a:	0000100f          	fence.i

000000008000282e <i00000006a7>:
    8000282e:	e6816483          	lwu	s1,-408(sp)
    80002832:	0008e117          	auipc	sp,0x8e
    80002836:	7ce10113          	addi	sp,sp,1998 # 80091000 <begin_signature>
    8000283a:	630d                	lui	t1,0x3
    8000283c:	c403031b          	addiw	t1,t1,-960 # 2c40 <_tbss_end+0x2c40>
    80002840:	911a                	add	sp,sp,t1

0000000080002842 <i00000006a8>:
    80002842:	2a813783          	ld	a5,680(sp)

0000000080002846 <i00000006a9>:
    80002846:	00e7173b          	sllw	a4,a4,a4

000000008000284a <i00000006aa>:
    8000284a:	0000100f          	fence.i
    8000284e:	0008e117          	auipc	sp,0x8e
    80002852:	7b210113          	addi	sp,sp,1970 # 80091000 <begin_signature>
    80002856:	630d                	lui	t1,0x3
    80002858:	b203031b          	addiw	t1,t1,-1248 # 2b20 <_tbss_end+0x2b20>
    8000285c:	911a                	add	sp,sp,t1

000000008000285e <i00000006ab>:
    8000285e:	e7a13c23          	sd	s10,-392(sp)

0000000080002862 <i00000006ac>:
    80002862:	7f416803          	lwu	a6,2036(sp)

0000000080002866 <i00000006ad>:
    80002866:	0000100f          	fence.i

000000008000286a <i00000006ae>:
    8000286a:	0000100f          	fence.i

000000008000286e <i00000006af>:
    8000286e:	50013f03          	ld	t5,1280(sp)
    80002872:	0008e117          	auipc	sp,0x8e
    80002876:	78e10113          	addi	sp,sp,1934 # 80091000 <begin_signature>
    8000287a:	6305                	lui	t1,0x1
    8000287c:	1f83031b          	addiw	t1,t1,504 # 11f8 <_tbss_end+0x11f8>
    80002880:	911a                	add	sp,sp,t1

0000000080002882 <i00000006b0>:
    80002882:	74214003          	lbu	zero,1858(sp)

0000000080002886 <i00000006b1>:
    80002886:	f2a15583          	lhu	a1,-214(sp)
    8000288a:	0008e117          	auipc	sp,0x8e
    8000288e:	77610113          	addi	sp,sp,1910 # 80091000 <begin_signature>
    80002892:	6309                	lui	t1,0x2
    80002894:	4f83031b          	addiw	t1,t1,1272 # 24f8 <_tbss_end+0x24f8>
    80002898:	911a                	add	sp,sp,t1

000000008000289a <i00000006b2>:
    8000289a:	ee016683          	lwu	a3,-288(sp)

000000008000289e <i00000006b3>:
    8000289e:	0ff0000f          	fence

00000000800028a2 <i00000006b4>:
    800028a2:	30816703          	lwu	a4,776(sp)

00000000800028a6 <i00000006b5>:
    800028a6:	ed511023          	sh	s5,-320(sp)

00000000800028aa <i00000006b6>:
    800028aa:	010796bb          	sllw	a3,a5,a6

00000000800028ae <i00000006b7>:
    800028ae:	0000100f          	fence.i

00000000800028b2 <i00000006b8>:
    800028b2:	82e12c23          	sw	a4,-1992(sp)

00000000800028b6 <i00000006b9>:
    800028b6:	0ff0000f          	fence

00000000800028ba <i00000006ba>:
    800028ba:	7cf13c23          	sd	a5,2008(sp)

00000000800028be <i00000006bb>:
    800028be:	0ff0000f          	fence

00000000800028c2 <i00000006bc>:
    800028c2:	00dbd83b          	srlw	a6,s7,a3

00000000800028c6 <i00000006bd>:
    800028c6:	75c12203          	lw	tp,1884(sp)

00000000800028ca <i00000006be>:
    800028ca:	b4013c03          	ld	s8,-1216(sp)

00000000800028ce <i00000006bf>:
    800028ce:	0067121b          	slliw	tp,a4,0x6

00000000800028d2 <i00000006c0>:
    800028d2:	0000100f          	fence.i

00000000800028d6 <i00000006c1>:
    800028d6:	41ee5713          	srai	a4,t3,0x1e

00000000800028da <i00000006c2>:
    800028da:	0000100f          	fence.i

00000000800028de <i00000006c3>:
    800028de:	0000100f          	fence.i

00000000800028e2 <i00000006c4>:
    800028e2:	0ff0000f          	fence

00000000800028e6 <i00000006c5>:
    800028e6:	40975793          	srai	a5,a4,0x9

00000000800028ea <i00000006c6>:
    800028ea:	61816803          	lwu	a6,1560(sp)

00000000800028ee <i00000006c7>:
    800028ee:	8fd12e23          	sw	t4,-1796(sp)

00000000800028f2 <i00000006c8>:
    800028f2:	0000100f          	fence.i

00000000800028f6 <i00000006c9>:
    800028f6:	93010423          	sb	a6,-1752(sp)

00000000800028fa <i00000006ca>:
    800028fa:	01cfd81b          	srliw	a6,t6,0x1c

00000000800028fe <i00000006cb>:
    800028fe:	01185b93          	srli	s7,a6,0x11

0000000080002902 <i00000006cc>:
    80002902:	0000100f          	fence.i

0000000080002906 <i00000006cd>:
    80002906:	4186853b          	subw	a0,a3,s8

000000008000290a <i00000006ce>:
    8000290a:	0000100f          	fence.i

000000008000290e <i00000006cf>:
    8000290e:	ecf11723          	sh	a5,-306(sp)

0000000080002912 <i00000006d0>:
    80002912:	2ee13423          	sd	a4,744(sp)

0000000080002916 <i00000006d1>:
    80002916:	0000100f          	fence.i

000000008000291a <i00000006d2>:
    8000291a:	2ec15703          	lhu	a4,748(sp)

000000008000291e <i00000006d3>:
    8000291e:	0007979b          	slliw	a5,a5,0x0

0000000080002922 <i00000006d4>:
    80002922:	430b5c13          	srai	s8,s6,0x30

0000000080002926 <i00000006d5>:
    80002926:	e8012703          	lw	a4,-384(sp)

000000008000292a <i00000006d6>:
    8000292a:	38813d83          	ld	s11,904(sp)

000000008000292e <i00000006d7>:
    8000292e:	fca13823          	sd	a0,-48(sp)

0000000080002932 <i00000006d8>:
    80002932:	e3c2                	sd	a6,448(sp)

0000000080002934 <i00000006d9>:
    80002934:	0ff0000f          	fence

0000000080002938 <i00000006da>:
    80002938:	0193903b          	sllw	zero,t2,s9

000000008000293c <i00000006db>:
    8000293c:	4107d23b          	sraw	tp,a5,a6

0000000080002940 <i00000006dc>:
    80002940:	79c15383          	lhu	t2,1948(sp)

0000000080002944 <i00000006dd>:
    80002944:	4098579b          	sraiw	a5,a6,0x9

0000000080002948 <i00000006de>:
    80002948:	0000100f          	fence.i

000000008000294c <i00000006df>:
    8000294c:	de813383          	ld	t2,-536(sp)

0000000080002950 <i00000006e0>:
    80002950:	9fc16803          	lwu	a6,-1540(sp)
    80002954:	0008e117          	auipc	sp,0x8e
    80002958:	6ac10113          	addi	sp,sp,1708 # 80091000 <begin_signature>
    8000295c:	6305                	lui	t1,0x1
    8000295e:	7d83031b          	addiw	t1,t1,2008 # 17d8 <_tbss_end+0x17d8>
    80002962:	911a                	add	sp,sp,t1

0000000080002964 <i00000006e1>:
    80002964:	6f411303          	lh	t1,1780(sp)
    80002968:	0008e117          	auipc	sp,0x8e
    8000296c:	69810113          	addi	sp,sp,1688 # 80091000 <begin_signature>
    80002970:	6305                	lui	t1,0x1
    80002972:	3e03031b          	addiw	t1,t1,992 # 13e0 <_tbss_end+0x13e0>
    80002976:	911a                	add	sp,sp,t1

0000000080002978 <i00000006e2>:
    80002978:	b8013783          	ld	a5,-1152(sp)

000000008000297c <i00000006e3>:
    8000297c:	40e7d7bb          	sraw	a5,a5,a4

0000000080002980 <i00000006e4>:
    80002980:	0ff0000f          	fence

0000000080002984 <i00000006e5>:
    80002984:	0117de1b          	srliw	t3,a5,0x11

0000000080002988 <i00000006e6>:
    80002988:	0d011323          	sh	a6,198(sp)

000000008000298c <i00000006e7>:
    8000298c:	ca012803          	lw	a6,-864(sp)

0000000080002990 <i00000006e8>:
    80002990:	0000100f          	fence.i

0000000080002994 <i00000006e9>:
    80002994:	00af989b          	slliw	a7,t6,0xa
    80002998:	0008e117          	auipc	sp,0x8e
    8000299c:	66810113          	addi	sp,sp,1640 # 80091000 <begin_signature>
    800029a0:	630d                	lui	t1,0x3
    800029a2:	e783031b          	addiw	t1,t1,-392 # 2e78 <_tbss_end+0x2e78>
    800029a6:	911a                	add	sp,sp,t1

00000000800029a8 <i00000006ea>:
    800029a8:	47013303          	ld	t1,1136(sp)

00000000800029ac <i00000006eb>:
    800029ac:	93013d03          	ld	s10,-1744(sp)

00000000800029b0 <i00000006ec>:
    800029b0:	68c11803          	lh	a6,1676(sp)

00000000800029b4 <i00000006ed>:
    800029b4:	e9010fa3          	sb	a6,-353(sp)
    800029b8:	0008e117          	auipc	sp,0x8e
    800029bc:	64810113          	addi	sp,sp,1608 # 80091000 <begin_signature>
    800029c0:	6305                	lui	t1,0x1
    800029c2:	8003031b          	addiw	t1,t1,-2048 # 800 <_tbss_end+0x800>
    800029c6:	911a                	add	sp,sp,t1

00000000800029c8 <i00000006ee>:
    800029c8:	7ba13823          	sd	s10,1968(sp)

00000000800029cc <i00000006ef>:
    800029cc:	bcc16983          	lwu	s3,-1076(sp)

00000000800029d0 <i00000006f0>:
    800029d0:	df212623          	sw	s2,-532(sp)

00000000800029d4 <i00000006f1>:
    800029d4:	baf13423          	sd	a5,-1112(sp)

00000000800029d8 <i00000006f2>:
    800029d8:	33016703          	lwu	a4,816(sp)

00000000800029dc <i00000006f3>:
    800029dc:	0000100f          	fence.i

00000000800029e0 <i00000006f4>:
    800029e0:	4347d813          	srai	a6,a5,0x34

00000000800029e4 <i00000006f5>:
    800029e4:	414908bb          	subw	a7,s2,s4

00000000800029e8 <i00000006f6>:
    800029e8:	e1710703          	lb	a4,-489(sp)

00000000800029ec <i00000006f7>:
    800029ec:	409c0f3b          	subw	t5,s8,s1

00000000800029f0 <i00000006f8>:
    800029f0:	0ff0000f          	fence

00000000800029f4 <i00000006f9>:
    800029f4:	00a1873b          	addw	a4,gp,a0

00000000800029f8 <i00000006fa>:
    800029f8:	0ff0000f          	fence

00000000800029fc <i00000006fb>:
    800029fc:	e8416703          	lwu	a4,-380(sp)

0000000080002a00 <i00000006fc>:
    80002a00:	0ff0000f          	fence

0000000080002a04 <i00000006fd>:
    80002a04:	eec16883          	lwu	a7,-276(sp)

0000000080002a08 <i00000006fe>:
    80002a08:	64415483          	lhu	s1,1604(sp)

0000000080002a0c <i00000006ff>:
    80002a0c:	0000100f          	fence.i

0000000080002a10 <i0000000700>:
    80002a10:	0ff0000f          	fence

0000000080002a14 <i0000000701>:
    80002a14:	94c16803          	lwu	a6,-1716(sp)

0000000080002a18 <i0000000702>:
    80002a18:	0ff0000f          	fence

0000000080002a1c <i0000000703>:
    80002a1c:	0000100f          	fence.i

0000000080002a20 <i0000000704>:
    80002a20:	0000100f          	fence.i

0000000080002a24 <i0000000705>:
    80002a24:	17a11883          	lh	a7,378(sp)

0000000080002a28 <i0000000706>:
    80002a28:	0000100f          	fence.i

0000000080002a2c <i0000000707>:
    80002a2c:	b0210783          	lb	a5,-1278(sp)

0000000080002a30 <i0000000708>:
    80002a30:	90412703          	lw	a4,-1788(sp)

0000000080002a34 <i0000000709>:
    80002a34:	03379d13          	slli	s10,a5,0x33
    80002a38:	0008e117          	auipc	sp,0x8e
    80002a3c:	5c810113          	addi	sp,sp,1480 # 80091000 <begin_signature>
    80002a40:	6309                	lui	t1,0x2
    80002a42:	da83031b          	addiw	t1,t1,-600 # 1da8 <_tbss_end+0x1da8>
    80002a46:	911a                	add	sp,sp,t1

0000000080002a48 <i000000070a>:
    80002a48:	db010f23          	sb	a6,-578(sp)
    80002a4c:	0008e117          	auipc	sp,0x8e
    80002a50:	5b410113          	addi	sp,sp,1460 # 80091000 <begin_signature>
    80002a54:	6305                	lui	t1,0x1
    80002a56:	4a03031b          	addiw	t1,t1,1184 # 14a0 <_tbss_end+0x14a0>
    80002a5a:	911a                	add	sp,sp,t1

0000000080002a5c <i000000070b>:
    80002a5c:	b7013703          	ld	a4,-1168(sp)

0000000080002a60 <i000000070c>:
    80002a60:	0f211323          	sh	s2,230(sp)
    80002a64:	0008e117          	auipc	sp,0x8e
    80002a68:	59c10113          	addi	sp,sp,1436 # 80091000 <begin_signature>
    80002a6c:	630d                	lui	t1,0x3
    80002a6e:	6783031b          	addiw	t1,t1,1656 # 3678 <_tbss_end+0x3678>
    80002a72:	911a                	add	sp,sp,t1

0000000080002a74 <i000000070d>:
    80002a74:	de914883          	lbu	a7,-535(sp)

0000000080002a78 <i000000070e>:
    80002a78:	0ff0000f          	fence

0000000080002a7c <i000000070f>:
    80002a7c:	23813803          	ld	a6,568(sp)

0000000080002a80 <i0000000710>:
    80002a80:	bfe10783          	lb	a5,-1026(sp)

0000000080002a84 <i0000000711>:
    80002a84:	76f13823          	sd	a5,1904(sp)

0000000080002a88 <i0000000712>:
    80002a88:	0000100f          	fence.i

0000000080002a8c <i0000000713>:
    80002a8c:	13c11f23          	sh	t3,318(sp)

0000000080002a90 <i0000000714>:
    80002a90:	0000100f          	fence.i

0000000080002a94 <i0000000715>:
    80002a94:	2f415703          	lhu	a4,756(sp)
    80002a98:	0008e117          	auipc	sp,0x8e
    80002a9c:	56810113          	addi	sp,sp,1384 # 80091000 <begin_signature>
    80002aa0:	6305                	lui	t1,0x1
    80002aa2:	9503031b          	addiw	t1,t1,-1712 # 950 <_tbss_end+0x950>
    80002aa6:	911a                	add	sp,sp,t1

0000000080002aa8 <i0000000716>:
    80002aa8:	b6416f83          	lwu	t6,-1180(sp)

0000000080002aac <i0000000717>:
    80002aac:	1ffa079b          	addiw	a5,s4,511

0000000080002ab0 <i0000000718>:
    80002ab0:	100106a3          	sb	zero,269(sp)

0000000080002ab4 <i0000000719>:
    80002ab4:	8d816703          	lwu	a4,-1832(sp)

0000000080002ab8 <i000000071a>:
    80002ab8:	0277d813          	srli	a6,a5,0x27
    80002abc:	0008e117          	auipc	sp,0x8e
    80002ac0:	54410113          	addi	sp,sp,1348 # 80091000 <begin_signature>
    80002ac4:	6305                	lui	t1,0x1
    80002ac6:	9883031b          	addiw	t1,t1,-1656 # 988 <_tbss_end+0x988>
    80002aca:	911a                	add	sp,sp,t1

0000000080002acc <i000000071b>:
    80002acc:	b6013183          	ld	gp,-1184(sp)

0000000080002ad0 <i000000071c>:
    80002ad0:	fcc16483          	lwu	s1,-52(sp)

0000000080002ad4 <i000000071d>:
    80002ad4:	59013a03          	ld	s4,1424(sp)
    80002ad8:	0008e117          	auipc	sp,0x8e
    80002adc:	52810113          	addi	sp,sp,1320 # 80091000 <begin_signature>
    80002ae0:	6309                	lui	t1,0x2
    80002ae2:	7f03031b          	addiw	t1,t1,2032 # 27f0 <_tbss_end+0x27f0>
    80002ae6:	911a                	add	sp,sp,t1

0000000080002ae8 <i000000071e>:
    80002ae8:	2a013f03          	ld	t5,672(sp)

0000000080002aec <i000000071f>:
    80002aec:	0000100f          	fence.i
    80002af0:	0008e117          	auipc	sp,0x8e
    80002af4:	51010113          	addi	sp,sp,1296 # 80091000 <begin_signature>
    80002af8:	630d                	lui	t1,0x3
    80002afa:	a103031b          	addiw	t1,t1,-1520 # 2a10 <_tbss_end+0x2a10>
    80002afe:	911a                	add	sp,sp,t1

0000000080002b00 <i0000000720>:
    80002b00:	44813703          	ld	a4,1096(sp)

0000000080002b04 <i0000000721>:
    80002b04:	5e813583          	ld	a1,1512(sp)

0000000080002b08 <i0000000722>:
    80002b08:	0000100f          	fence.i
    80002b0c:	0008e117          	auipc	sp,0x8e
    80002b10:	4f410113          	addi	sp,sp,1268 # 80091000 <begin_signature>
    80002b14:	6305                	lui	t1,0x1
    80002b16:	9883031b          	addiw	t1,t1,-1656 # 988 <_tbss_end+0x988>
    80002b1a:	911a                	add	sp,sp,t1

0000000080002b1c <i0000000723>:
    80002b1c:	95416a03          	lwu	s4,-1708(sp)

0000000080002b20 <i0000000724>:
    80002b20:	41bcd83b          	sraw	a6,s9,s11

0000000080002b24 <i0000000725>:
    80002b24:	0000100f          	fence.i

0000000080002b28 <i0000000726>:
    80002b28:	0ff0000f          	fence

0000000080002b2c <i0000000727>:
    80002b2c:	d7215783          	lhu	a5,-654(sp)

0000000080002b30 <i0000000728>:
    80002b30:	013019bb          	sllw	s3,zero,s3

0000000080002b34 <i0000000729>:
    80002b34:	8731                	srai	a4,a4,0xc

0000000080002b36 <i000000072a>:
    80002b36:	b407801b          	addiw	zero,a5,-1216

0000000080002b3a <i000000072b>:
    80002b3a:	0000100f          	fence.i
    80002b3e:	0008e117          	auipc	sp,0x8e
    80002b42:	4c210113          	addi	sp,sp,1218 # 80091000 <begin_signature>
    80002b46:	6309                	lui	t1,0x2
    80002b48:	8403031b          	addiw	t1,t1,-1984 # 1840 <_tbss_end+0x1840>
    80002b4c:	911a                	add	sp,sp,t1

0000000080002b4e <i000000072c>:
    80002b4e:	89813c03          	ld	s8,-1896(sp)

0000000080002b52 <i000000072d>:
    80002b52:	0000100f          	fence.i

0000000080002b56 <i000000072e>:
    80002b56:	0ff0000f          	fence

0000000080002b5a <i000000072f>:
    80002b5a:	007d083b          	addw	a6,s10,t2

0000000080002b5e <i0000000730>:
    80002b5e:	0000100f          	fence.i

0000000080002b62 <i0000000731>:
    80002b62:	ee48071b          	addiw	a4,a6,-284
    80002b66:	0008e117          	auipc	sp,0x8e
    80002b6a:	49a10113          	addi	sp,sp,1178 # 80091000 <begin_signature>
    80002b6e:	630d                	lui	t1,0x3
    80002b70:	c203031b          	addiw	t1,t1,-992 # 2c20 <_tbss_end+0x2c20>
    80002b74:	911a                	add	sp,sp,t1

0000000080002b76 <i0000000732>:
    80002b76:	4e416703          	lwu	a4,1252(sp)

0000000080002b7a <i0000000733>:
    80002b7a:	72416e83          	lwu	t4,1828(sp)

0000000080002b7e <i0000000734>:
    80002b7e:	fa813d83          	ld	s11,-88(sp)

0000000080002b82 <i0000000735>:
    80002b82:	9529071b          	addiw	a4,s2,-1710

0000000080002b86 <i0000000736>:
    80002b86:	41016a83          	lwu	s5,1040(sp)

0000000080002b8a <i0000000737>:
    80002b8a:	4fc16d83          	lwu	s11,1276(sp)

0000000080002b8e <i0000000738>:
    80002b8e:	8c816803          	lwu	a6,-1848(sp)

0000000080002b92 <i0000000739>:
    80002b92:	0000100f          	fence.i

0000000080002b96 <i000000073a>:
    80002b96:	62510803          	lb	a6,1573(sp)

0000000080002b9a <i000000073b>:
    80002b9a:	0000100f          	fence.i

0000000080002b9e <i000000073c>:
    80002b9e:	41aad63b          	sraw	a2,s5,s10

0000000080002ba2 <i000000073d>:
    80002ba2:	01c88cbb          	addw	s9,a7,t3

0000000080002ba6 <i000000073e>:
    80002ba6:	023fde93          	srli	t4,t6,0x23

0000000080002baa <i000000073f>:
    80002baa:	93015b83          	lhu	s7,-1744(sp)

0000000080002bae <i0000000740>:
    80002bae:	0000100f          	fence.i
    80002bb2:	0008e117          	auipc	sp,0x8e
    80002bb6:	44e10113          	addi	sp,sp,1102 # 80091000 <begin_signature>
    80002bba:	6309                	lui	t1,0x2
    80002bbc:	c783031b          	addiw	t1,t1,-904 # 1c78 <_tbss_end+0x1c78>
    80002bc0:	911a                	add	sp,sp,t1

0000000080002bc2 <i0000000741>:
    80002bc2:	29012023          	sw	a6,640(sp)

0000000080002bc6 <i0000000742>:
    80002bc6:	def11723          	sh	a5,-530(sp)

0000000080002bca <i0000000743>:
    80002bca:	a6678f9b          	addiw	t6,a5,-1434

0000000080002bce <i0000000744>:
    80002bce:	0ff0000f          	fence

0000000080002bd2 <i0000000745>:
    80002bd2:	43816803          	lwu	a6,1080(sp)

0000000080002bd6 <i0000000746>:
    80002bd6:	0ff0000f          	fence

0000000080002bda <i0000000747>:
    80002bda:	ca816a03          	lwu	s4,-856(sp)

0000000080002bde <i0000000748>:
    80002bde:	a4513423          	sd	t0,-1464(sp)

0000000080002be2 <i0000000749>:
    80002be2:	b7013423          	sd	a6,-1176(sp)

0000000080002be6 <i000000074a>:
    80002be6:	8791                	srai	a5,a5,0x4

0000000080002be8 <i000000074b>:
    80002be8:	0257d393          	srli	t2,a5,0x25

0000000080002bec <i000000074c>:
    80002bec:	ef510a03          	lb	s4,-267(sp)

0000000080002bf0 <i000000074d>:
    80002bf0:	0000100f          	fence.i

0000000080002bf4 <i000000074e>:
    80002bf4:	0ff0000f          	fence

0000000080002bf8 <i000000074f>:
    80002bf8:	0068169b          	slliw	a3,a6,0x6

0000000080002bfc <i0000000750>:
    80002bfc:	0ff0000f          	fence
    80002c00:	0008e117          	auipc	sp,0x8e
    80002c04:	40010113          	addi	sp,sp,1024 # 80091000 <begin_signature>
    80002c08:	630d                	lui	t1,0x3
    80002c0a:	c103031b          	addiw	t1,t1,-1008 # 2c10 <_tbss_end+0x2c10>
    80002c0e:	911a                	add	sp,sp,t1

0000000080002c10 <i0000000751>:
    80002c10:	63c16883          	lwu	a7,1596(sp)

0000000080002c14 <i0000000752>:
    80002c14:	db013803          	ld	a6,-592(sp)

0000000080002c18 <i0000000753>:
    80002c18:	01914783          	lbu	a5,25(sp)

0000000080002c1c <i0000000754>:
    80002c1c:	0000100f          	fence.i

0000000080002c20 <i0000000755>:
    80002c20:	0000100f          	fence.i

0000000080002c24 <i0000000756>:
    80002c24:	33416783          	lwu	a5,820(sp)

0000000080002c28 <i0000000757>:
    80002c28:	46811503          	lh	a0,1128(sp)

0000000080002c2c <i0000000758>:
    80002c2c:	f0f12223          	sw	a5,-252(sp)

0000000080002c30 <i0000000759>:
    80002c30:	4c611a23          	sh	t1,1236(sp)

0000000080002c34 <i000000075a>:
    80002c34:	a2416983          	lwu	s3,-1500(sp)

0000000080002c38 <i000000075b>:
    80002c38:	c5416283          	lwu	t0,-940(sp)

0000000080002c3c <i000000075c>:
    80002c3c:	ec813023          	sd	s0,-320(sp)

0000000080002c40 <i000000075d>:
    80002c40:	3d012e83          	lw	t4,976(sp)

0000000080002c44 <i000000075e>:
    80002c44:	4a86                	lw	s5,64(sp)

0000000080002c46 <i000000075f>:
    80002c46:	c4f104a3          	sb	a5,-951(sp)

0000000080002c4a <i0000000760>:
    80002c4a:	2d214903          	lbu	s2,722(sp)

0000000080002c4e <i0000000761>:
    80002c4e:	be412883          	lw	a7,-1052(sp)

0000000080002c52 <i0000000762>:
    80002c52:	0317db93          	srli	s7,a5,0x31

0000000080002c56 <i0000000763>:
    80002c56:	02fe5413          	srli	s0,t3,0x2f

0000000080002c5a <i0000000764>:
    80002c5a:	0ff0000f          	fence

0000000080002c5e <i0000000765>:
    80002c5e:	3e416803          	lwu	a6,996(sp)
    80002c62:	0008e117          	auipc	sp,0x8e
    80002c66:	39e10113          	addi	sp,sp,926 # 80091000 <begin_signature>
    80002c6a:	630d                	lui	t1,0x3
    80002c6c:	eb83031b          	addiw	t1,t1,-328 # 2eb8 <_tbss_end+0x2eb8>
    80002c70:	911a                	add	sp,sp,t1

0000000080002c72 <i0000000766>:
    80002c72:	22f105a3          	sb	a5,555(sp)

0000000080002c76 <i0000000767>:
    80002c76:	ac813503          	ld	a0,-1336(sp)

0000000080002c7a <i0000000768>:
    80002c7a:	68a12e23          	sw	a0,1692(sp)

0000000080002c7e <i0000000769>:
    80002c7e:	40f8533b          	sraw	t1,a6,a5

0000000080002c82 <i000000076a>:
    80002c82:	2e012803          	lw	a6,736(sp)

0000000080002c86 <i000000076b>:
    80002c86:	d0416703          	lwu	a4,-764(sp)

0000000080002c8a <i000000076c>:
    80002c8a:	db013803          	ld	a6,-592(sp)

0000000080002c8e <i000000076d>:
    80002c8e:	b5811783          	lh	a5,-1192(sp)

0000000080002c92 <i000000076e>:
    80002c92:	05714d83          	lbu	s11,87(sp)

0000000080002c96 <i000000076f>:
    80002c96:	0000100f          	fence.i

0000000080002c9a <i0000000770>:
    80002c9a:	0ff0000f          	fence

0000000080002c9e <i0000000771>:
    80002c9e:	76c16703          	lwu	a4,1900(sp)

0000000080002ca2 <i0000000772>:
    80002ca2:	0000100f          	fence.i

0000000080002ca6 <i0000000773>:
    80002ca6:	b8d14783          	lbu	a5,-1139(sp)

0000000080002caa <i0000000774>:
    80002caa:	03171b13          	slli	s6,a4,0x31

0000000080002cae <i0000000775>:
    80002cae:	4124073b          	subw	a4,s0,s2

0000000080002cb2 <i0000000776>:
    80002cb2:	41198cbb          	subw	s9,s3,a7

0000000080002cb6 <i0000000777>:
    80002cb6:	0000100f          	fence.i

0000000080002cba <i0000000778>:
    80002cba:	839d                	srli	a5,a5,0x7

0000000080002cbc <i0000000779>:
    80002cbc:	0ff0000f          	fence
    80002cc0:	0008e117          	auipc	sp,0x8e
    80002cc4:	34010113          	addi	sp,sp,832 # 80091000 <begin_signature>
    80002cc8:	6305                	lui	t1,0x1
    80002cca:	7783031b          	addiw	t1,t1,1912 # 1778 <_tbss_end+0x1778>
    80002cce:	911a                	add	sp,sp,t1

0000000080002cd0 <i000000077a>:
    80002cd0:	ff016583          	lwu	a1,-16(sp)
    80002cd4:	0008e117          	auipc	sp,0x8e
    80002cd8:	32c10113          	addi	sp,sp,812 # 80091000 <begin_signature>
    80002cdc:	6305                	lui	t1,0x1
    80002cde:	d103031b          	addiw	t1,t1,-752 # d10 <_tbss_end+0xd10>
    80002ce2:	911a                	add	sp,sp,t1

0000000080002ce4 <i000000077b>:
    80002ce4:	a1215003          	lhu	zero,-1518(sp)

0000000080002ce8 <i000000077c>:
    80002ce8:	67480c9b          	addiw	s9,a6,1652
    80002cec:	0008e117          	auipc	sp,0x8e
    80002cf0:	31410113          	addi	sp,sp,788 # 80091000 <begin_signature>
    80002cf4:	6309                	lui	t1,0x2
    80002cf6:	b603031b          	addiw	t1,t1,-1184 # 1b60 <_tbss_end+0x1b60>
    80002cfa:	911a                	add	sp,sp,t1

0000000080002cfc <i000000077d>:
    80002cfc:	73aa                	ld	t2,168(sp)

0000000080002cfe <i000000077e>:
    80002cfe:	7c9e                	ld	s9,480(sp)

0000000080002d00 <i000000077f>:
    80002d00:	0ff0000f          	fence

0000000080002d04 <i0000000780>:
    80002d04:	0000100f          	fence.i

0000000080002d08 <i0000000781>:
    80002d08:	b4a15803          	lhu	a6,-1206(sp)

0000000080002d0c <i0000000782>:
    80002d0c:	20013703          	ld	a4,512(sp)

0000000080002d10 <i0000000783>:
    80002d10:	aca13c23          	sd	a0,-1320(sp)

0000000080002d14 <i0000000784>:
    80002d14:	0000100f          	fence.i

0000000080002d18 <i0000000785>:
    80002d18:	00e8083b          	addw	a6,a6,a4

0000000080002d1c <i0000000786>:
    80002d1c:	0ff0000f          	fence

0000000080002d20 <i0000000787>:
    80002d20:	43813783          	ld	a5,1080(sp)

0000000080002d24 <i0000000788>:
    80002d24:	4d310a03          	lb	s4,1235(sp)

0000000080002d28 <i0000000789>:
    80002d28:	43611723          	sh	s6,1070(sp)

0000000080002d2c <i000000078a>:
    80002d2c:	c3811d03          	lh	s10,-968(sp)

0000000080002d30 <i000000078b>:
    80002d30:	0ff0000f          	fence

0000000080002d34 <i000000078c>:
    80002d34:	008dd993          	srli	s3,s11,0x8

0000000080002d38 <i000000078d>:
    80002d38:	00f7983b          	sllw	a6,a5,a5

0000000080002d3c <i000000078e>:
    80002d3c:	02d85713          	srli	a4,a6,0x2d

0000000080002d40 <i000000078f>:
    80002d40:	95012783          	lw	a5,-1712(sp)

0000000080002d44 <i0000000790>:
    80002d44:	01f7579b          	srliw	a5,a4,0x1f
    80002d48:	0008e117          	auipc	sp,0x8e
    80002d4c:	2b810113          	addi	sp,sp,696 # 80091000 <begin_signature>
    80002d50:	630d                	lui	t1,0x3
    80002d52:	1e03031b          	addiw	t1,t1,480 # 31e0 <_tbss_end+0x31e0>
    80002d56:	911a                	add	sp,sp,t1

0000000080002d58 <i0000000791>:
    80002d58:	81013e03          	ld	t3,-2032(sp)

0000000080002d5c <i0000000792>:
    80002d5c:	0ff0000f          	fence

0000000080002d60 <i0000000793>:
    80002d60:	0096939b          	slliw	t2,a3,0x9

0000000080002d64 <i0000000794>:
    80002d64:	00e7173b          	sllw	a4,a4,a4

0000000080002d68 <i0000000795>:
    80002d68:	0ff0000f          	fence

0000000080002d6c <i0000000796>:
    80002d6c:	57010423          	sb	a6,1384(sp)

0000000080002d70 <i0000000797>:
    80002d70:	43475593          	srai	a1,a4,0x34

0000000080002d74 <i0000000798>:
    80002d74:	23711e23          	sh	s7,572(sp)

0000000080002d78 <i0000000799>:
    80002d78:	0ff0000f          	fence

0000000080002d7c <i000000079a>:
    80002d7c:	0000100f          	fence.i

0000000080002d80 <i000000079b>:
    80002d80:	00b55c3b          	srlw	s8,a0,a1

0000000080002d84 <i000000079c>:
    80002d84:	7bb104a3          	sb	s11,1961(sp)

0000000080002d88 <i000000079d>:
    80002d88:	77513823          	sd	s5,1904(sp)

0000000080002d8c <i000000079e>:
    80002d8c:	2cc12703          	lw	a4,716(sp)

0000000080002d90 <i000000079f>:
    80002d90:	0000100f          	fence.i
    80002d94:	0008e117          	auipc	sp,0x8e
    80002d98:	26c10113          	addi	sp,sp,620 # 80091000 <begin_signature>
    80002d9c:	630d                	lui	t1,0x3
    80002d9e:	9f83031b          	addiw	t1,t1,-1544 # 29f8 <_tbss_end+0x29f8>
    80002da2:	911a                	add	sp,sp,t1

0000000080002da4 <i00000007a0>:
    80002da4:	b7013703          	ld	a4,-1168(sp)

0000000080002da8 <i00000007a1>:
    80002da8:	dce13c23          	sd	a4,-552(sp)

0000000080002dac <i00000007a2>:
    80002dac:	02414703          	lbu	a4,36(sp)

0000000080002db0 <i00000007a3>:
    80002db0:	0000100f          	fence.i

0000000080002db4 <i00000007a4>:
    80002db4:	f2214683          	lbu	a3,-222(sp)

0000000080002db8 <i00000007a5>:
    80002db8:	33d11723          	sh	t4,814(sp)
    80002dbc:	0008e117          	auipc	sp,0x8e
    80002dc0:	24410113          	addi	sp,sp,580 # 80091000 <begin_signature>
    80002dc4:	630d                	lui	t1,0x3
    80002dc6:	7703031b          	addiw	t1,t1,1904 # 3770 <_tbss_end+0x3770>
    80002dca:	911a                	add	sp,sp,t1

0000000080002dcc <i00000007a6>:
    80002dcc:	85c16b03          	lwu	s6,-1956(sp)

0000000080002dd0 <i00000007a7>:
    80002dd0:	011b03bb          	addw	t2,s6,a7

0000000080002dd4 <i00000007a8>:
    80002dd4:	01c6d7bb          	srlw	a5,a3,t3

0000000080002dd8 <i00000007a9>:
    80002dd8:	03f85793          	srli	a5,a6,0x3f

0000000080002ddc <i00000007aa>:
    80002ddc:	0ff0000f          	fence

0000000080002de0 <i00000007ab>:
    80002de0:	49910803          	lb	a6,1177(sp)

0000000080002de4 <i00000007ac>:
    80002de4:	0000100f          	fence.i
    80002de8:	0008e117          	auipc	sp,0x8e
    80002dec:	21810113          	addi	sp,sp,536 # 80091000 <begin_signature>
    80002df0:	6309                	lui	t1,0x2
    80002df2:	9703031b          	addiw	t1,t1,-1680 # 1970 <_tbss_end+0x1970>
    80002df6:	911a                	add	sp,sp,t1

0000000080002df8 <i00000007ad>:
    80002df8:	b3813423          	sd	s8,-1240(sp)

0000000080002dfc <i00000007ae>:
    80002dfc:	0000100f          	fence.i

0000000080002e00 <i00000007af>:
    80002e00:	0ff0000f          	fence

0000000080002e04 <i00000007b0>:
    80002e04:	81e9081b          	addiw	a6,s2,-2018

0000000080002e08 <i00000007b1>:
    80002e08:	0000100f          	fence.i

0000000080002e0c <i00000007b2>:
    80002e0c:	0000100f          	fence.i

0000000080002e10 <i00000007b3>:
    80002e10:	0000100f          	fence.i

0000000080002e14 <i00000007b4>:
    80002e14:	00181493          	slli	s1,a6,0x1

0000000080002e18 <i00000007b5>:
    80002e18:	68c16803          	lwu	a6,1676(sp)
    80002e1c:	0008e117          	auipc	sp,0x8e
    80002e20:	1e410113          	addi	sp,sp,484 # 80091000 <begin_signature>
    80002e24:	6305                	lui	t1,0x1
    80002e26:	f003031b          	addiw	t1,t1,-256 # f00 <_tbss_end+0xf00>
    80002e2a:	911a                	add	sp,sp,t1

0000000080002e2c <i00000007b6>:
    80002e2c:	f4013f03          	ld	t5,-192(sp)

0000000080002e30 <i00000007b7>:
    80002e30:	0ff0000f          	fence

0000000080002e34 <i00000007b8>:
    80002e34:	0000100f          	fence.i

0000000080002e38 <i00000007b9>:
    80002e38:	9d411703          	lh	a4,-1580(sp)

0000000080002e3c <i00000007ba>:
    80002e3c:	04816783          	lwu	a5,72(sp)

0000000080002e40 <i00000007bb>:
    80002e40:	01981793          	slli	a5,a6,0x19

0000000080002e44 <i00000007bc>:
    80002e44:	4148d79b          	sraiw	a5,a7,0x14

0000000080002e48 <i00000007bd>:
    80002e48:	e6914403          	lbu	s0,-407(sp)

0000000080002e4c <i00000007be>:
    80002e4c:	4075df1b          	sraiw	t5,a1,0x7

0000000080002e50 <i00000007bf>:
    80002e50:	4087d81b          	sraiw	a6,a5,0x8

0000000080002e54 <i00000007c0>:
    80002e54:	0000100f          	fence.i

0000000080002e58 <i00000007c1>:
    80002e58:	0000100f          	fence.i

0000000080002e5c <i00000007c2>:
    80002e5c:	02b2                	slli	t0,t0,0xc

0000000080002e5e <i00000007c3>:
    80002e5e:	91416803          	lwu	a6,-1772(sp)
    80002e62:	0008e117          	auipc	sp,0x8e
    80002e66:	19e10113          	addi	sp,sp,414 # 80091000 <begin_signature>
    80002e6a:	6309                	lui	t1,0x2
    80002e6c:	e883031b          	addiw	t1,t1,-376 # 1e88 <_tbss_end+0x1e88>
    80002e70:	911a                	add	sp,sp,t1

0000000080002e72 <i00000007c4>:
    80002e72:	5c914703          	lbu	a4,1481(sp)

0000000080002e76 <i00000007c5>:
    80002e76:	0ff0000f          	fence

0000000080002e7a <i00000007c6>:
    80002e7a:	05816803          	lwu	a6,88(sp)

0000000080002e7e <i00000007c7>:
    80002e7e:	e1ba                	sd	a4,192(sp)

0000000080002e80 <i00000007c8>:
    80002e80:	30411703          	lh	a4,772(sp)

0000000080002e84 <i00000007c9>:
    80002e84:	40816b03          	lwu	s6,1032(sp)

0000000080002e88 <i00000007ca>:
    80002e88:	410807bb          	subw	a5,a6,a6

0000000080002e8c <i00000007cb>:
    80002e8c:	407d5d9b          	sraiw	s11,s10,0x7

0000000080002e90 <i00000007cc>:
    80002e90:	90411703          	lh	a4,-1788(sp)

0000000080002e94 <i00000007cd>:
    80002e94:	417e87bb          	subw	a5,t4,s7

0000000080002e98 <i00000007ce>:
    80002e98:	01be863b          	addw	a2,t4,s11
    80002e9c:	0008e117          	auipc	sp,0x8e
    80002ea0:	16410113          	addi	sp,sp,356 # 80091000 <begin_signature>
    80002ea4:	6305                	lui	t1,0x1
    80002ea6:	3303031b          	addiw	t1,t1,816 # 1330 <_tbss_end+0x1330>
    80002eaa:	911a                	add	sp,sp,t1

0000000080002eac <i00000007cf>:
    80002eac:	88411c03          	lh	s8,-1916(sp)

0000000080002eb0 <i00000007d0>:
    80002eb0:	44e11723          	sh	a4,1102(sp)

0000000080002eb4 <i00000007d1>:
    80002eb4:	0048d713          	srli	a4,a7,0x4
    80002eb8:	0008e117          	auipc	sp,0x8e
    80002ebc:	14810113          	addi	sp,sp,328 # 80091000 <begin_signature>
    80002ec0:	630d                	lui	t1,0x3
    80002ec2:	e283031b          	addiw	t1,t1,-472 # 2e28 <_tbss_end+0x2e28>
    80002ec6:	911a                	add	sp,sp,t1

0000000080002ec8 <i00000007d2>:
    80002ec8:	a6f13023          	sd	a5,-1440(sp)

0000000080002ecc <i00000007d3>:
    80002ecc:	0000100f          	fence.i

0000000080002ed0 <i00000007d4>:
    80002ed0:	0000100f          	fence.i

0000000080002ed4 <i00000007d5>:
    80002ed4:	01769793          	slli	a5,a3,0x17

0000000080002ed8 <i00000007d6>:
    80002ed8:	97815603          	lhu	a2,-1672(sp)

0000000080002edc <i00000007d7>:
    80002edc:	eb416403          	lwu	s0,-332(sp)

0000000080002ee0 <i00000007d8>:
    80002ee0:	eec15983          	lhu	s3,-276(sp)

0000000080002ee4 <i00000007d9>:
    80002ee4:	0000100f          	fence.i

0000000080002ee8 <i00000007da>:
    80002ee8:	0ff0000f          	fence

0000000080002eec <i00000007db>:
    80002eec:	47813903          	ld	s2,1144(sp)

0000000080002ef0 <i00000007dc>:
    80002ef0:	00d85713          	srli	a4,a6,0xd

0000000080002ef4 <i00000007dd>:
    80002ef4:	0000100f          	fence.i

0000000080002ef8 <i00000007de>:
    80002ef8:	0000100f          	fence.i

0000000080002efc <i00000007df>:
    80002efc:	408884bb          	subw	s1,a7,s0

0000000080002f00 <i00000007e0>:
    80002f00:	43d45813          	srai	a6,s0,0x3d

0000000080002f04 <i00000007e1>:
    80002f04:	0ff0000f          	fence

0000000080002f08 <i00000007e2>:
    80002f08:	17012a23          	sw	a6,372(sp)

0000000080002f0c <i00000007e3>:
    80002f0c:	01365c1b          	srliw	s8,a2,0x13

0000000080002f10 <i00000007e4>:
    80002f10:	f0410ba3          	sb	tp,-233(sp)

0000000080002f14 <i00000007e5>:
    80002f14:	91011823          	sh	a6,-1776(sp)

0000000080002f18 <i00000007e6>:
    80002f18:	67011123          	sh	a6,1634(sp)

0000000080002f1c <i00000007e7>:
    80002f1c:	81813d83          	ld	s11,-2024(sp)

0000000080002f20 <i00000007e8>:
    80002f20:	fc514803          	lbu	a6,-59(sp)

0000000080002f24 <i00000007e9>:
    80002f24:	c6013403          	ld	s0,-928(sp)

0000000080002f28 <i00000007ea>:
    80002f28:	41f8d31b          	sraiw	t1,a7,0x1f

0000000080002f2c <i00000007eb>:
    80002f2c:	0ff0000f          	fence

0000000080002f30 <i00000007ec>:
    80002f30:	4167579b          	sraiw	a5,a4,0x16

0000000080002f34 <i00000007ed>:
    80002f34:	f93e                	sd	a5,176(sp)

0000000080002f36 <i00000007ee>:
    80002f36:	0ff0000f          	fence

0000000080002f3a <i00000007ef>:
    80002f3a:	4098599b          	sraiw	s3,a6,0x9

0000000080002f3e <i00000007f0>:
    80002f3e:	0000100f          	fence.i

0000000080002f42 <i00000007f1>:
    80002f42:	0000100f          	fence.i

0000000080002f46 <i00000007f2>:
    80002f46:	01079abb          	sllw	s5,a5,a6
    80002f4a:	0008e117          	auipc	sp,0x8e
    80002f4e:	0b610113          	addi	sp,sp,182 # 80091000 <begin_signature>
    80002f52:	6309                	lui	t1,0x2
    80002f54:	fb83031b          	addiw	t1,t1,-72 # 1fb8 <_tbss_end+0x1fb8>
    80002f58:	911a                	add	sp,sp,t1

0000000080002f5a <i00000007f3>:
    80002f5a:	c5611323          	sh	s6,-954(sp)

0000000080002f5e <i00000007f4>:
    80002f5e:	0ff0000f          	fence

0000000080002f62 <i00000007f5>:
    80002f62:	014cd713          	srli	a4,s9,0x14

0000000080002f66 <i00000007f6>:
    80002f66:	41a407bb          	subw	a5,s0,s10

0000000080002f6a <i00000007f7>:
    80002f6a:	00c4503b          	srlw	zero,s0,a2

0000000080002f6e <i00000007f8>:
    80002f6e:	01379d1b          	slliw	s10,a5,0x13

0000000080002f72 <i00000007f9>:
    80002f72:	0ff0000f          	fence

0000000080002f76 <i00000007fa>:
    80002f76:	0000100f          	fence.i

0000000080002f7a <i00000007fb>:
    80002f7a:	c2e13823          	sd	a4,-976(sp)

0000000080002f7e <i00000007fc>:
    80002f7e:	0ff0000f          	fence

0000000080002f82 <i00000007fd>:
    80002f82:	95c16703          	lwu	a4,-1700(sp)

0000000080002f86 <i00000007fe>:
    80002f86:	61610423          	sb	s6,1544(sp)

0000000080002f8a <i00000007ff>:
    80002f8a:	01c79013          	slli	zero,a5,0x1c

0000000080002f8e <i0000000800>:
    80002f8e:	95416703          	lwu	a4,-1708(sp)

0000000080002f92 <i0000000801>:
    80002f92:	0ff0000f          	fence
    80002f96:	0008e117          	auipc	sp,0x8e
    80002f9a:	06a10113          	addi	sp,sp,106 # 80091000 <begin_signature>
    80002f9e:	6305                	lui	t1,0x1
    80002fa0:	a003031b          	addiw	t1,t1,-1536 # a00 <_tbss_end+0xa00>
    80002fa4:	911a                	add	sp,sp,t1

0000000080002fa6 <i0000000802>:
    80002fa6:	f9813783          	ld	a5,-104(sp)

0000000080002faa <i0000000803>:
    80002faa:	010817bb          	sllw	a5,a6,a6

0000000080002fae <i0000000804>:
    80002fae:	17016803          	lwu	a6,368(sp)
    80002fb2:	0008e117          	auipc	sp,0x8e
    80002fb6:	04e10113          	addi	sp,sp,78 # 80091000 <begin_signature>
    80002fba:	6309                	lui	t1,0x2
    80002fbc:	2203031b          	addiw	t1,t1,544 # 2220 <_tbss_end+0x2220>
    80002fc0:	911a                	add	sp,sp,t1

0000000080002fc2 <i0000000805>:
    80002fc2:	ffc16803          	lwu	a6,-4(sp)

0000000080002fc6 <i0000000806>:
    80002fc6:	0000100f          	fence.i

0000000080002fca <i0000000807>:
    80002fca:	df110b23          	sb	a7,-522(sp)

0000000080002fce <i0000000808>:
    80002fce:	0ff0000f          	fence

0000000080002fd2 <i0000000809>:
    80002fd2:	418bd83b          	sraw	a6,s7,s8

0000000080002fd6 <i000000080a>:
    80002fd6:	4198d79b          	sraiw	a5,a7,0x19

0000000080002fda <i000000080b>:
    80002fda:	0000100f          	fence.i

0000000080002fde <i000000080c>:
    80002fde:	4156dfbb          	sraw	t6,a3,s5
    80002fe2:	0008e117          	auipc	sp,0x8e
    80002fe6:	01e10113          	addi	sp,sp,30 # 80091000 <begin_signature>
    80002fea:	6305                	lui	t1,0x1
    80002fec:	1d03031b          	addiw	t1,t1,464 # 11d0 <_tbss_end+0x11d0>
    80002ff0:	911a                	add	sp,sp,t1

0000000080002ff2 <i000000080d>:
    80002ff2:	7862                	ld	a6,56(sp)

0000000080002ff4 <i000000080e>:
    80002ff4:	bf813983          	ld	s3,-1032(sp)

0000000080002ff8 <i000000080f>:
    80002ff8:	0ec10883          	lb	a7,236(sp)

0000000080002ffc <i0000000810>:
    80002ffc:	0ff0000f          	fence

0000000080003000 <i0000000811>:
    80003000:	70815f03          	lhu	t5,1800(sp)

0000000080003004 <i0000000812>:
    80003004:	01a7971b          	slliw	a4,a5,0x1a
    80003008:	0008e117          	auipc	sp,0x8e
    8000300c:	ff810113          	addi	sp,sp,-8 # 80091000 <begin_signature>
    80003010:	6305                	lui	t1,0x1
    80003012:	d003031b          	addiw	t1,t1,-768 # d00 <_tbss_end+0xd00>
    80003016:	911a                	add	sp,sp,t1

0000000080003018 <i0000000813>:
    80003018:	12c16703          	lwu	a4,300(sp)

000000008000301c <i0000000814>:
    8000301c:	1786                	slli	a5,a5,0x21

000000008000301e <i0000000815>:
    8000301e:	71013823          	sd	a6,1808(sp)

0000000080003022 <i0000000816>:
    80003022:	0000100f          	fence.i

0000000080003026 <i0000000817>:
    80003026:	a6e10923          	sb	a4,-1422(sp)

000000008000302a <i0000000818>:
    8000302a:	04a14a83          	lbu	s5,74(sp)

000000008000302e <i0000000819>:
    8000302e:	4047581b          	sraiw	a6,a4,0x4

0000000080003032 <i000000081a>:
    80003032:	22a14883          	lbu	a7,554(sp)

0000000080003036 <i000000081b>:
    80003036:	0ff0000f          	fence

000000008000303a <i000000081c>:
    8000303a:	0ff0000f          	fence
    8000303e:	0008e117          	auipc	sp,0x8e
    80003042:	fc210113          	addi	sp,sp,-62 # 80091000 <begin_signature>
    80003046:	6305                	lui	t1,0x1
    80003048:	8503031b          	addiw	t1,t1,-1968 # 850 <_tbss_end+0x850>
    8000304c:	911a                	add	sp,sp,t1

000000008000304e <i000000081d>:
    8000304e:	e2910803          	lb	a6,-471(sp)

0000000080003052 <i000000081e>:
    80003052:	bd813b83          	ld	s7,-1064(sp)

0000000080003056 <i000000081f>:
    80003056:	00e816bb          	sllw	a3,a6,a4

000000008000305a <i0000000820>:
    8000305a:	0ff0000f          	fence
    8000305e:	0008e117          	auipc	sp,0x8e
    80003062:	fa210113          	addi	sp,sp,-94 # 80091000 <begin_signature>
    80003066:	6309                	lui	t1,0x2
    80003068:	1d83031b          	addiw	t1,t1,472 # 21d8 <_tbss_end+0x21d8>
    8000306c:	911a                	add	sp,sp,t1

000000008000306e <i0000000821>:
    8000306e:	d7015a83          	lhu	s5,-656(sp)

0000000080003072 <i0000000822>:
    80003072:	41d4d81b          	sraiw	a6,s1,0x1d

0000000080003076 <i0000000823>:
    80003076:	ed813703          	ld	a4,-296(sp)

000000008000307a <i0000000824>:
    8000307a:	9f9d                	subw	a5,a5,a5

000000008000307c <i0000000825>:
    8000307c:	01b85b1b          	srliw	s6,a6,0x1b

0000000080003080 <i0000000826>:
    80003080:	64e13823          	sd	a4,1616(sp)
    80003084:	0008e117          	auipc	sp,0x8e
    80003088:	f7c10113          	addi	sp,sp,-132 # 80091000 <begin_signature>
    8000308c:	630d                	lui	t1,0x3
    8000308e:	9f83031b          	addiw	t1,t1,-1544 # 29f8 <_tbss_end+0x29f8>
    80003092:	911a                	add	sp,sp,t1

0000000080003094 <i0000000827>:
    80003094:	24816e03          	lwu	t3,584(sp)
    80003098:	0008e117          	auipc	sp,0x8e
    8000309c:	f6810113          	addi	sp,sp,-152 # 80091000 <begin_signature>
    800030a0:	6305                	lui	t1,0x1
    800030a2:	2f03031b          	addiw	t1,t1,752 # 12f0 <_tbss_end+0x12f0>
    800030a6:	911a                	add	sp,sp,t1

00000000800030a8 <i0000000828>:
    800030a8:	27010003          	lb	zero,624(sp)

00000000800030ac <i0000000829>:
    800030ac:	8d313c23          	sd	s3,-1832(sp)

00000000800030b0 <i000000082a>:
    800030b0:	85416703          	lwu	a4,-1964(sp)

00000000800030b4 <i000000082b>:
    800030b4:	41012f03          	lw	t5,1040(sp)

00000000800030b8 <i000000082c>:
    800030b8:	0ff0000f          	fence

00000000800030bc <i000000082d>:
    800030bc:	0000100f          	fence.i

00000000800030c0 <i000000082e>:
    800030c0:	40e857bb          	sraw	a5,a6,a4

00000000800030c4 <i000000082f>:
    800030c4:	0000100f          	fence.i

00000000800030c8 <i0000000830>:
    800030c8:	0000100f          	fence.i

00000000800030cc <i0000000831>:
    800030cc:	cdbe                	sw	a5,216(sp)

00000000800030ce <i0000000832>:
    800030ce:	0000100f          	fence.i

00000000800030d2 <i0000000833>:
    800030d2:	0ff0000f          	fence

00000000800030d6 <i0000000834>:
    800030d6:	40ded83b          	sraw	a6,t4,a3

00000000800030da <i0000000835>:
    800030da:	9fa10803          	lb	a6,-1542(sp)
    800030de:	0008e117          	auipc	sp,0x8e
    800030e2:	f2210113          	addi	sp,sp,-222 # 80091000 <begin_signature>
    800030e6:	630d                	lui	t1,0x3
    800030e8:	ec03031b          	addiw	t1,t1,-320 # 2ec0 <_tbss_end+0x2ec0>
    800030ec:	911a                	add	sp,sp,t1

00000000800030ee <i0000000836>:
    800030ee:	dc012703          	lw	a4,-576(sp)

00000000800030f2 <i0000000837>:
    800030f2:	a7013783          	ld	a5,-1424(sp)

00000000800030f6 <i0000000838>:
    800030f6:	0ff0000f          	fence

00000000800030fa <i0000000839>:
    800030fa:	0ff0000f          	fence

00000000800030fe <i000000083a>:
    800030fe:	70512823          	sw	t0,1808(sp)

0000000080003102 <i000000083b>:
    80003102:	1e114703          	lbu	a4,481(sp)
    80003106:	0008e117          	auipc	sp,0x8e
    8000310a:	efa10113          	addi	sp,sp,-262 # 80091000 <begin_signature>
    8000310e:	630d                	lui	t1,0x3
    80003110:	fd83031b          	addiw	t1,t1,-40 # 2fd8 <_tbss_end+0x2fd8>
    80003114:	911a                	add	sp,sp,t1

0000000080003116 <i000000083c>:
    80003116:	92110183          	lb	gp,-1759(sp)

000000008000311a <i000000083d>:
    8000311a:	0ff0000f          	fence

000000008000311e <i000000083e>:
    8000311e:	ba016703          	lwu	a4,-1120(sp)

0000000080003122 <i000000083f>:
    80003122:	c6f12e23          	sw	a5,-900(sp)

0000000080003126 <i0000000840>:
    80003126:	0000100f          	fence.i

000000008000312a <i0000000841>:
    8000312a:	6d811703          	lh	a4,1752(sp)

000000008000312e <i0000000842>:
    8000312e:	daa11803          	lh	a6,-598(sp)

0000000080003132 <i0000000843>:
    80003132:	0ff0000f          	fence

0000000080003136 <i0000000844>:
    80003136:	01a289bb          	addw	s3,t0,s10

000000008000313a <i0000000845>:
    8000313a:	41c5571b          	sraiw	a4,a0,0x1c

000000008000313e <i0000000846>:
    8000313e:	405f573b          	sraw	a4,t5,t0

0000000080003142 <i0000000847>:
    80003142:	0ff0000f          	fence

0000000080003146 <i0000000848>:
    80003146:	4103dd13          	srai	s10,t2,0x10

000000008000314a <i0000000849>:
    8000314a:	0000100f          	fence.i

000000008000314e <i000000084a>:
    8000314e:	41c05a9b          	sraiw	s5,zero,0x1c

0000000080003152 <i000000084b>:
    80003152:	3ae11783          	lh	a5,942(sp)

0000000080003156 <i000000084c>:
    80003156:	0ff0000f          	fence

000000008000315a <i000000084d>:
    8000315a:	bd611823          	sh	s6,-1072(sp)

000000008000315e <i000000084e>:
    8000315e:	38f13423          	sd	a5,904(sp)

0000000080003162 <i000000084f>:
    80003162:	0ff0000f          	fence

0000000080003166 <i0000000850>:
    80003166:	0ff0000f          	fence

000000008000316a <i0000000851>:
    8000316a:	0000100f          	fence.i

000000008000316e <i0000000852>:
    8000316e:	0000100f          	fence.i

0000000080003172 <i0000000853>:
    80003172:	00385793          	srli	a5,a6,0x3

0000000080003176 <i0000000854>:
    80003176:	e1f8081b          	addiw	a6,a6,-481

000000008000317a <i0000000855>:
    8000317a:	018d951b          	slliw	a0,s11,0x18

000000008000317e <i0000000856>:
    8000317e:	0107873b          	addw	a4,a5,a6

0000000080003182 <i0000000857>:
    80003182:	46f13823          	sd	a5,1136(sp)

0000000080003186 <i0000000858>:
    80003186:	fe99851b          	addiw	a0,s3,-23

000000008000318a <i0000000859>:
    8000318a:	0ff0000f          	fence

000000008000318e <i000000085a>:
    8000318e:	f0013a03          	ld	s4,-256(sp)

0000000080003192 <i000000085b>:
    80003192:	ff013483          	ld	s1,-16(sp)

0000000080003196 <i000000085c>:
    80003196:	f3611383          	lh	t2,-202(sp)

000000008000319a <i000000085d>:
    8000319a:	0ff0000f          	fence
    8000319e:	0008e117          	auipc	sp,0x8e
    800031a2:	e6210113          	addi	sp,sp,-414 # 80091000 <begin_signature>
    800031a6:	630d                	lui	t1,0x3
    800031a8:	a483031b          	addiw	t1,t1,-1464 # 2a48 <_tbss_end+0x2a48>
    800031ac:	911a                	add	sp,sp,t1

00000000800031ae <i000000085e>:
    800031ae:	c8a15703          	lhu	a4,-886(sp)

00000000800031b2 <i000000085f>:
    800031b2:	0ff0000f          	fence

00000000800031b6 <i0000000860>:
    800031b6:	97813823          	sd	s8,-1680(sp)

00000000800031ba <i0000000861>:
    800031ba:	0ff0000f          	fence

00000000800031be <i0000000862>:
    800031be:	0000100f          	fence.i

00000000800031c2 <i0000000863>:
    800031c2:	0000100f          	fence.i

00000000800031c6 <i0000000864>:
    800031c6:	41c7d81b          	sraiw	a6,a5,0x1c

00000000800031ca <i0000000865>:
    800031ca:	0ff0000f          	fence

00000000800031ce <i0000000866>:
    800031ce:	0ff0000f          	fence
    800031d2:	0008e117          	auipc	sp,0x8e
    800031d6:	e2e10113          	addi	sp,sp,-466 # 80091000 <begin_signature>
    800031da:	630d                	lui	t1,0x3
    800031dc:	9103031b          	addiw	t1,t1,-1776 # 2910 <_tbss_end+0x2910>
    800031e0:	911a                	add	sp,sp,t1

00000000800031e2 <i0000000867>:
    800031e2:	2ec12003          	lw	zero,748(sp)
    800031e6:	0008e117          	auipc	sp,0x8e
    800031ea:	e1a10113          	addi	sp,sp,-486 # 80091000 <begin_signature>
    800031ee:	6305                	lui	t1,0x1
    800031f0:	b503031b          	addiw	t1,t1,-1200 # b50 <_tbss_end+0xb50>
    800031f4:	911a                	add	sp,sp,t1

00000000800031f6 <i0000000868>:
    800031f6:	9b413c23          	sd	s4,-1608(sp)

00000000800031fa <i0000000869>:
    800031fa:	0000100f          	fence.i

00000000800031fe <i000000086a>:
    800031fe:	41b7d19b          	sraiw	gp,a5,0x1b

0000000080003202 <i000000086b>:
    80003202:	00e8173b          	sllw	a4,a6,a4

0000000080003206 <i000000086c>:
    80003206:	008cd213          	srli	tp,s9,0x8

000000008000320a <i000000086d>:
    8000320a:	00079f1b          	slliw	t5,a5,0x0

000000008000320e <i000000086e>:
    8000320e:	a5b13423          	sd	s11,-1464(sp)

0000000080003212 <i000000086f>:
    80003212:	b8e11523          	sh	a4,-1142(sp)

0000000080003216 <i0000000870>:
    80003216:	0000100f          	fence.i

000000008000321a <i0000000871>:
    8000321a:	98016b83          	lwu	s7,-1664(sp)

000000008000321e <i0000000872>:
    8000321e:	0ff0000f          	fence

0000000080003222 <i0000000873>:
    80003222:	0ff0000f          	fence
    80003226:	0008e117          	auipc	sp,0x8e
    8000322a:	dda10113          	addi	sp,sp,-550 # 80091000 <begin_signature>
    8000322e:	6309                	lui	t1,0x2
    80003230:	1283031b          	addiw	t1,t1,296 # 2128 <_tbss_end+0x2128>
    80003234:	911a                	add	sp,sp,t1

0000000080003236 <i0000000874>:
    80003236:	f216                	sd	t0,288(sp)

0000000080003238 <i0000000875>:
    80003238:	cd013423          	sd	a6,-824(sp)

000000008000323c <i0000000876>:
    8000323c:	014d8f3b          	addw	t5,s11,s4

0000000080003240 <i0000000877>:
    80003240:	0ff0000f          	fence

0000000080003244 <i0000000878>:
    80003244:	01d9171b          	slliw	a4,s2,0x1d

0000000080003248 <i0000000879>:
    80003248:	ec813a03          	ld	s4,-312(sp)

000000008000324c <i000000087a>:
    8000324c:	95013c23          	sd	a6,-1704(sp)

0000000080003250 <i000000087b>:
    80003250:	00b2d29b          	srliw	t0,t0,0xb

0000000080003254 <i000000087c>:
    80003254:	96f13c23          	sd	a5,-1672(sp)

0000000080003258 <i000000087d>:
    80003258:	f4914403          	lbu	s0,-183(sp)

000000008000325c <i000000087e>:
    8000325c:	01585c9b          	srliw	s9,a6,0x15

0000000080003260 <i000000087f>:
    80003260:	fce10523          	sb	a4,-54(sp)

0000000080003264 <i0000000880>:
    80003264:	03555713          	srli	a4,a0,0x35
    80003268:	0008e117          	auipc	sp,0x8e
    8000326c:	d9810113          	addi	sp,sp,-616 # 80091000 <begin_signature>
    80003270:	6309                	lui	t1,0x2
    80003272:	2f03031b          	addiw	t1,t1,752 # 22f0 <_tbss_end+0x22f0>
    80003276:	911a                	add	sp,sp,t1

0000000080003278 <i0000000881>:
    80003278:	29016703          	lwu	a4,656(sp)

000000008000327c <i0000000882>:
    8000327c:	406e581b          	sraiw	a6,t3,0x6

0000000080003280 <i0000000883>:
    80003280:	86012b83          	lw	s7,-1952(sp)

0000000080003284 <i0000000884>:
    80003284:	0ff0000f          	fence

0000000080003288 <i0000000885>:
    80003288:	02479c93          	slli	s9,a5,0x24

000000008000328c <i0000000886>:
    8000328c:	0ff0000f          	fence

0000000080003290 <i0000000887>:
    80003290:	0ff0000f          	fence

0000000080003294 <i0000000888>:
    80003294:	03579713          	slli	a4,a5,0x35

0000000080003298 <i0000000889>:
    80003298:	4181d7bb          	sraw	a5,gp,s8

000000008000329c <i000000088a>:
    8000329c:	e2c16803          	lwu	a6,-468(sp)

00000000800032a0 <i000000088b>:
    800032a0:	40bad81b          	sraiw	a6,s5,0xb
    800032a4:	0008e117          	auipc	sp,0x8e
    800032a8:	d5c10113          	addi	sp,sp,-676 # 80091000 <begin_signature>
    800032ac:	6305                	lui	t1,0x1
    800032ae:	6c03031b          	addiw	t1,t1,1728 # 16c0 <_tbss_end+0x16c0>
    800032b2:	911a                	add	sp,sp,t1

00000000800032b4 <i000000088c>:
    800032b4:	e6814c83          	lbu	s9,-408(sp)

00000000800032b8 <i000000088d>:
    800032b8:	7b67049b          	addiw	s1,a4,1974

00000000800032bc <i000000088e>:
    800032bc:	25e13823          	sd	t5,592(sp)

00000000800032c0 <i000000088f>:
    800032c0:	e00107a3          	sb	zero,-497(sp)

00000000800032c4 <i0000000890>:
    800032c4:	0000100f          	fence.i

00000000800032c8 <i0000000891>:
    800032c8:	0191dbbb          	srlw	s7,gp,s9

00000000800032cc <i0000000892>:
    800032cc:	4107823b          	subw	tp,a5,a6

00000000800032d0 <i0000000893>:
    800032d0:	00b7d813          	srli	a6,a5,0xb

00000000800032d4 <i0000000894>:
    800032d4:	0ff0000f          	fence

00000000800032d8 <i0000000895>:
    800032d8:	83ed                	srli	a5,a5,0x1b
    800032da:	0008e117          	auipc	sp,0x8e
    800032de:	d2610113          	addi	sp,sp,-730 # 80091000 <begin_signature>
    800032e2:	6309                	lui	t1,0x2
    800032e4:	5383031b          	addiw	t1,t1,1336 # 2538 <_tbss_end+0x2538>
    800032e8:	911a                	add	sp,sp,t1

00000000800032ea <i0000000896>:
    800032ea:	12c16803          	lwu	a6,300(sp)

00000000800032ee <i0000000897>:
    800032ee:	40e709bb          	subw	s3,a4,a4

00000000800032f2 <i0000000898>:
    800032f2:	01a71493          	slli	s1,a4,0x1a

00000000800032f6 <i0000000899>:
    800032f6:	2cf104a3          	sb	a5,713(sp)

00000000800032fa <i000000089a>:
    800032fa:	ca215383          	lhu	t2,-862(sp)

00000000800032fe <i000000089b>:
    800032fe:	19cf0c9b          	addiw	s9,t5,412 # fffffffff2d57114 <_end+0xffffffff72cbe6b0>

0000000080003302 <i000000089c>:
    80003302:	01d9003b          	addw	zero,s2,t4

0000000080003306 <i000000089d>:
    80003306:	90013703          	ld	a4,-1792(sp)

000000008000330a <i000000089e>:
    8000330a:	cce13c23          	sd	a4,-808(sp)

000000008000330e <i000000089f>:
    8000330e:	d0e13423          	sd	a4,-760(sp)

0000000080003312 <i00000008a0>:
    80003312:	18e11c03          	lh	s8,398(sp)

0000000080003316 <i00000008a1>:
    80003316:	0ff0000f          	fence

000000008000331a <i00000008a2>:
    8000331a:	0000100f          	fence.i

000000008000331e <i00000008a3>:
    8000331e:	59016503          	lwu	a0,1424(sp)

0000000080003322 <i00000008a4>:
    80003322:	00f71d3b          	sllw	s10,a4,a5

0000000080003326 <i00000008a5>:
    80003326:	432e5913          	srai	s2,t3,0x32

000000008000332a <i00000008a6>:
    8000332a:	0ff0000f          	fence

000000008000332e <i00000008a7>:
    8000332e:	0ff0000f          	fence

0000000080003332 <i00000008a8>:
    80003332:	e9416603          	lwu	a2,-364(sp)

0000000080003336 <i00000008a9>:
    80003336:	27413c23          	sd	s4,632(sp)

000000008000333a <i00000008aa>:
    8000333a:	03e75813          	srli	a6,a4,0x3e

000000008000333e <i00000008ab>:
    8000333e:	010717bb          	sllw	a5,a4,a6

0000000080003342 <i00000008ac>:
    80003342:	3bc12e03          	lw	t3,956(sp)

0000000080003346 <i00000008ad>:
    80003346:	02acd913          	srli	s2,s9,0x2a

000000008000334a <i00000008ae>:
    8000334a:	0000100f          	fence.i

000000008000334e <i00000008af>:
    8000334e:	0000100f          	fence.i

0000000080003352 <i00000008b0>:
    80003352:	a7813903          	ld	s2,-1416(sp)

0000000080003356 <i00000008b1>:
    80003356:	40813283          	ld	t0,1032(sp)

000000008000335a <i00000008b2>:
    8000335a:	00f817bb          	sllw	a5,a6,a5

000000008000335e <i00000008b3>:
    8000335e:	96c16703          	lwu	a4,-1684(sp)

0000000080003362 <i00000008b4>:
    80003362:	cae13423          	sd	a4,-856(sp)

0000000080003366 <i00000008b5>:
    80003366:	7e012803          	lw	a6,2016(sp)

000000008000336a <i00000008b6>:
    8000336a:	0000100f          	fence.i

000000008000336e <i00000008b7>:
    8000336e:	0ff0000f          	fence

0000000080003372 <i00000008b8>:
    80003372:	0ff0000f          	fence

0000000080003376 <i00000008b9>:
    80003376:	0000100f          	fence.i

000000008000337a <i00000008ba>:
    8000337a:	41d1823b          	subw	tp,gp,t4

000000008000337e <i00000008bb>:
    8000337e:	a8013d83          	ld	s11,-1408(sp)

0000000080003382 <i00000008bc>:
    80003382:	dae12c23          	sw	a4,-584(sp)

0000000080003386 <i00000008bd>:
    80003386:	02275813          	srli	a6,a4,0x22

000000008000338a <i00000008be>:
    8000338a:	0000100f          	fence.i

000000008000338e <i00000008bf>:
    8000338e:	0ff0000f          	fence

0000000080003392 <i00000008c0>:
    80003392:	0ff0000f          	fence

0000000080003396 <i00000008c1>:
    80003396:	0ff0000f          	fence

000000008000339a <i00000008c2>:
    8000339a:	00f7583b          	srlw	a6,a4,a5

000000008000339e <i00000008c3>:
    8000339e:	cd013783          	ld	a5,-816(sp)

00000000800033a2 <i00000008c4>:
    800033a2:	01335a1b          	srliw	s4,t1,0x13

00000000800033a6 <i00000008c5>:
    800033a6:	bea13023          	sd	a0,-1056(sp)

00000000800033aa <i00000008c6>:
    800033aa:	92012783          	lw	a5,-1760(sp)

00000000800033ae <i00000008c7>:
    800033ae:	8a416783          	lwu	a5,-1884(sp)

00000000800033b2 <i00000008c8>:
    800033b2:	84812703          	lw	a4,-1976(sp)

00000000800033b6 <i00000008c9>:
    800033b6:	6822                	ld	a6,8(sp)

00000000800033b8 <i00000008ca>:
    800033b8:	b4e13c23          	sd	a4,-1192(sp)
    800033bc:	0008e117          	auipc	sp,0x8e
    800033c0:	c4410113          	addi	sp,sp,-956 # 80091000 <begin_signature>
    800033c4:	630d                	lui	t1,0x3
    800033c6:	6d83031b          	addiw	t1,t1,1752 # 36d8 <_tbss_end+0x36d8>
    800033ca:	911a                	add	sp,sp,t1

00000000800033cc <i00000008cb>:
    800033cc:	b2c16483          	lwu	s1,-1236(sp)

00000000800033d0 <i00000008cc>:
    800033d0:	77813483          	ld	s1,1912(sp)

00000000800033d4 <i00000008cd>:
    800033d4:	97813703          	ld	a4,-1672(sp)

00000000800033d8 <i00000008ce>:
    800033d8:	c1913823          	sd	s9,-1008(sp)

00000000800033dc <i00000008cf>:
    800033dc:	0000100f          	fence.i

00000000800033e0 <i00000008d0>:
    800033e0:	0ff0000f          	fence

00000000800033e4 <i00000008d1>:
    800033e4:	e2f12423          	sw	a5,-472(sp)

00000000800033e8 <i00000008d2>:
    800033e8:	aa013003          	ld	zero,-1376(sp)

00000000800033ec <i00000008d3>:
    800033ec:	d7011a23          	sh	a6,-652(sp)

00000000800033f0 <i00000008d4>:
    800033f0:	5f211803          	lh	a6,1522(sp)

00000000800033f4 <i00000008d5>:
    800033f4:	f1012e23          	sw	a6,-228(sp)

00000000800033f8 <i00000008d6>:
    800033f8:	46416903          	lwu	s2,1124(sp)

00000000800033fc <i00000008d7>:
    800033fc:	f7013023          	sd	a6,-160(sp)

0000000080003400 <i00000008d8>:
    80003400:	0ff0000f          	fence

0000000080003404 <i00000008d9>:
    80003404:	0000100f          	fence.i

0000000080003408 <i00000008da>:
    80003408:	02a15c03          	lhu	s8,42(sp)

000000008000340c <i00000008db>:
    8000340c:	0000100f          	fence.i

0000000080003410 <i00000008dc>:
    80003410:	0000100f          	fence.i
    80003414:	0008e117          	auipc	sp,0x8e
    80003418:	bec10113          	addi	sp,sp,-1044 # 80091000 <begin_signature>
    8000341c:	630d                	lui	t1,0x3
    8000341e:	6703031b          	addiw	t1,t1,1648 # 3670 <_tbss_end+0x3670>
    80003422:	911a                	add	sp,sp,t1

0000000080003424 <i00000008dd>:
    80003424:	5f610c23          	sb	s6,1528(sp)

0000000080003428 <i00000008de>:
    80003428:	d8012c83          	lw	s9,-640(sp)

000000008000342c <i00000008df>:
    8000342c:	bd013c23          	sd	a6,-1064(sp)

0000000080003430 <i00000008e0>:
    80003430:	0000100f          	fence.i

0000000080003434 <i00000008e1>:
    80003434:	0ff0000f          	fence

0000000080003438 <i00000008e2>:
    80003438:	74110803          	lb	a6,1857(sp)

000000008000343c <i00000008e3>:
    8000343c:	a3614983          	lbu	s3,-1482(sp)

0000000080003440 <i00000008e4>:
    80003440:	0000100f          	fence.i
    80003444:	0008e117          	auipc	sp,0x8e
    80003448:	bbc10113          	addi	sp,sp,-1092 # 80091000 <begin_signature>
    8000344c:	6305                	lui	t1,0x1
    8000344e:	dc03031b          	addiw	t1,t1,-576 # dc0 <_tbss_end+0xdc0>
    80003452:	911a                	add	sp,sp,t1

0000000080003454 <i00000008e5>:
    80003454:	0be10703          	lb	a4,190(sp)

0000000080003458 <i00000008e6>:
    80003458:	e1212223          	sw	s2,-508(sp)

000000008000345c <i00000008e7>:
    8000345c:	0000100f          	fence.i

0000000080003460 <i00000008e8>:
    80003460:	0000100f          	fence.i

0000000080003464 <i00000008e9>:
    80003464:	b0416403          	lwu	s0,-1276(sp)

0000000080003468 <i00000008ea>:
    80003468:	0000100f          	fence.i

000000008000346c <i00000008eb>:
    8000346c:	c0810983          	lb	s3,-1016(sp)

0000000080003470 <i00000008ec>:
    80003470:	b2013783          	ld	a5,-1248(sp)

0000000080003474 <i00000008ed>:
    80003474:	66f10923          	sb	a5,1650(sp)

0000000080003478 <i00000008ee>:
    80003478:	0ff0000f          	fence

000000008000347c <i00000008ef>:
    8000347c:	4ee13423          	sd	a4,1256(sp)

0000000080003480 <i00000008f0>:
    80003480:	84816903          	lwu	s2,-1976(sp)

0000000080003484 <i00000008f1>:
    80003484:	7ee13823          	sd	a4,2032(sp)

0000000080003488 <i00000008f2>:
    80003488:	e3c16783          	lwu	a5,-452(sp)
    8000348c:	0008e117          	auipc	sp,0x8e
    80003490:	b7410113          	addi	sp,sp,-1164 # 80091000 <begin_signature>
    80003494:	630d                	lui	t1,0x3
    80003496:	5c83031b          	addiw	t1,t1,1480 # 35c8 <_tbss_end+0x35c8>
    8000349a:	911a                	add	sp,sp,t1

000000008000349c <i00000008f3>:
    8000349c:	6ac13023          	sd	a2,1696(sp)

00000000800034a0 <i00000008f4>:
    800034a0:	0ff0000f          	fence

00000000800034a4 <i00000008f5>:
    800034a4:	fa015403          	lhu	s0,-96(sp)
    800034a8:	0008e117          	auipc	sp,0x8e
    800034ac:	b5810113          	addi	sp,sp,-1192 # 80091000 <begin_signature>
    800034b0:	6305                	lui	t1,0x1
    800034b2:	4283031b          	addiw	t1,t1,1064 # 1428 <_tbss_end+0x1428>
    800034b6:	911a                	add	sp,sp,t1

00000000800034b8 <i00000008f6>:
    800034b8:	39615203          	lhu	tp,918(sp)

00000000800034bc <i00000008f7>:
    800034bc:	72412183          	lw	gp,1828(sp)

00000000800034c0 <i00000008f8>:
    800034c0:	afb14583          	lbu	a1,-1285(sp)

00000000800034c4 <i00000008f9>:
    800034c4:	9f412683          	lw	a3,-1548(sp)

00000000800034c8 <i00000008fa>:
    800034c8:	0000100f          	fence.i

00000000800034cc <i00000008fb>:
    800034cc:	df414803          	lbu	a6,-524(sp)

00000000800034d0 <i00000008fc>:
    800034d0:	0000100f          	fence.i
    800034d4:	0008e117          	auipc	sp,0x8e
    800034d8:	b2c10113          	addi	sp,sp,-1236 # 80091000 <begin_signature>
    800034dc:	6309                	lui	t1,0x2
    800034de:	dc83031b          	addiw	t1,t1,-568 # 1dc8 <_tbss_end+0x1dc8>
    800034e2:	911a                	add	sp,sp,t1

00000000800034e4 <i00000008fd>:
    800034e4:	10f12623          	sw	a5,268(sp)
    800034e8:	0008e117          	auipc	sp,0x8e
    800034ec:	b1810113          	addi	sp,sp,-1256 # 80091000 <begin_signature>
    800034f0:	6305                	lui	t1,0x1
    800034f2:	a883031b          	addiw	t1,t1,-1400 # a88 <_tbss_end+0xa88>
    800034f6:	911a                	add	sp,sp,t1

00000000800034f8 <i00000008fe>:
    800034f8:	27013703          	ld	a4,624(sp)
    800034fc:	0008e117          	auipc	sp,0x8e
    80003500:	b0410113          	addi	sp,sp,-1276 # 80091000 <begin_signature>
    80003504:	6305                	lui	t1,0x1
    80003506:	4703031b          	addiw	t1,t1,1136 # 1470 <_tbss_end+0x1470>
    8000350a:	911a                	add	sp,sp,t1

000000008000350c <i00000008ff>:
    8000350c:	07816b83          	lwu	s7,120(sp)

0000000080003510 <i0000000900>:
    80003510:	0ff0000f          	fence

0000000080003514 <i0000000901>:
    80003514:	0ff0000f          	fence

0000000080003518 <i0000000902>:
    80003518:	0ff0000f          	fence

000000008000351c <i0000000903>:
    8000351c:	59e14803          	lbu	a6,1438(sp)

0000000080003520 <i0000000904>:
    80003520:	86f11c23          	sh	a5,-1928(sp)
    80003524:	0008e117          	auipc	sp,0x8e
    80003528:	adc10113          	addi	sp,sp,-1316 # 80091000 <begin_signature>
    8000352c:	6305                	lui	t1,0x1
    8000352e:	3883031b          	addiw	t1,t1,904 # 1388 <_tbss_end+0x1388>
    80003532:	911a                	add	sp,sp,t1

0000000080003534 <i0000000905>:
    80003534:	94015783          	lhu	a5,-1728(sp)

0000000080003538 <i0000000906>:
    80003538:	7c816783          	lwu	a5,1992(sp)

000000008000353c <i0000000907>:
    8000353c:	af413423          	sd	s4,-1304(sp)

0000000080003540 <i0000000908>:
    80003540:	d2215803          	lhu	a6,-734(sp)

0000000080003544 <i0000000909>:
    80003544:	10e10c03          	lb	s8,270(sp)

0000000080003548 <i000000090a>:
    80003548:	97c12c23          	sw	t3,-1672(sp)

000000008000354c <i000000090b>:
    8000354c:	cbc16e83          	lwu	t4,-836(sp)

0000000080003550 <i000000090c>:
    80003550:	0000100f          	fence.i

0000000080003554 <i000000090d>:
    80003554:	1c312e23          	sw	gp,476(sp)

0000000080003558 <i000000090e>:
    80003558:	0ff0000f          	fence

000000008000355c <i000000090f>:
    8000355c:	0ff0000f          	fence

0000000080003560 <i0000000910>:
    80003560:	48813423          	sd	s0,1160(sp)

0000000080003564 <i0000000911>:
    80003564:	0ff0000f          	fence

0000000080003568 <i0000000912>:
    80003568:	0000100f          	fence.i
    8000356c:	0008e117          	auipc	sp,0x8e
    80003570:	a9410113          	addi	sp,sp,-1388 # 80091000 <begin_signature>
    80003574:	630d                	lui	t1,0x3
    80003576:	6f03031b          	addiw	t1,t1,1776 # 36f0 <_tbss_end+0x36f0>
    8000357a:	911a                	add	sp,sp,t1

000000008000357c <i0000000913>:
    8000357c:	d8416283          	lwu	t0,-636(sp)

0000000080003580 <i0000000914>:
    80003580:	40813a83          	ld	s5,1032(sp)
    80003584:	0008e117          	auipc	sp,0x8e
    80003588:	a7c10113          	addi	sp,sp,-1412 # 80091000 <begin_signature>
    8000358c:	6309                	lui	t1,0x2
    8000358e:	be83031b          	addiw	t1,t1,-1048 # 1be8 <_tbss_end+0x1be8>
    80003592:	911a                	add	sp,sp,t1

0000000080003594 <i0000000915>:
    80003594:	19614983          	lbu	s3,406(sp)

0000000080003598 <i0000000916>:
    80003598:	0000100f          	fence.i

000000008000359c <i0000000917>:
    8000359c:	0000100f          	fence.i

00000000800035a0 <i0000000918>:
    800035a0:	48e13023          	sd	a4,1152(sp)
    800035a4:	0008e117          	auipc	sp,0x8e
    800035a8:	a5c10113          	addi	sp,sp,-1444 # 80091000 <begin_signature>
    800035ac:	6309                	lui	t1,0x2
    800035ae:	f003031b          	addiw	t1,t1,-256 # 1f00 <_tbss_end+0x1f00>
    800035b2:	911a                	add	sp,sp,t1

00000000800035b4 <i0000000919>:
    800035b4:	d2710803          	lb	a6,-729(sp)

00000000800035b8 <i000000091a>:
    800035b8:	d6013823          	sd	zero,-656(sp)

00000000800035bc <i000000091b>:
    800035bc:	31a15383          	lhu	t2,794(sp)

00000000800035c0 <i000000091c>:
    800035c0:	34013803          	ld	a6,832(sp)

00000000800035c4 <i000000091d>:
    800035c4:	a9010ca3          	sb	a6,-1383(sp)

00000000800035c8 <i000000091e>:
    800035c8:	13812c03          	lw	s8,312(sp)

00000000800035cc <i000000091f>:
    800035cc:	6876                	ld	a6,344(sp)
    800035ce:	0008e117          	auipc	sp,0x8e
    800035d2:	a3210113          	addi	sp,sp,-1486 # 80091000 <begin_signature>
    800035d6:	6305                	lui	t1,0x1
    800035d8:	6383031b          	addiw	t1,t1,1592 # 1638 <_tbss_end+0x1638>
    800035dc:	911a                	add	sp,sp,t1

00000000800035de <i0000000920>:
    800035de:	90711a23          	sh	t2,-1772(sp)

00000000800035e2 <i0000000921>:
    800035e2:	0000100f          	fence.i

00000000800035e6 <i0000000922>:
    800035e6:	f8314783          	lbu	a5,-125(sp)

00000000800035ea <i0000000923>:
    800035ea:	0ff0000f          	fence

00000000800035ee <i0000000924>:
    800035ee:	52815703          	lhu	a4,1320(sp)

00000000800035f2 <i0000000925>:
    800035f2:	3f412e23          	sw	s4,1020(sp)

00000000800035f6 <i0000000926>:
    800035f6:	e2013983          	ld	s3,-480(sp)
    800035fa:	0008e117          	auipc	sp,0x8e
    800035fe:	a0610113          	addi	sp,sp,-1530 # 80091000 <begin_signature>
    80003602:	6305                	lui	t1,0x1
    80003604:	ba03031b          	addiw	t1,t1,-1120 # ba0 <_tbss_end+0xba0>
    80003608:	911a                	add	sp,sp,t1

000000008000360a <i0000000927>:
    8000360a:	5b016e03          	lwu	t3,1456(sp)

000000008000360e <i0000000928>:
    8000360e:	56013c23          	sd	zero,1400(sp)

0000000080003612 <i0000000929>:
    80003612:	9ef12823          	sw	a5,-1552(sp)

0000000080003616 <i000000092a>:
    80003616:	0000100f          	fence.i

000000008000361a <i000000092b>:
    8000361a:	9e016503          	lwu	a0,-1568(sp)

000000008000361e <i000000092c>:
    8000361e:	f5814703          	lbu	a4,-168(sp)

0000000080003622 <i000000092d>:
    80003622:	0000100f          	fence.i

0000000080003626 <i000000092e>:
    80003626:	0000100f          	fence.i

000000008000362a <i000000092f>:
    8000362a:	6ec13823          	sd	a2,1776(sp)

000000008000362e <i0000000930>:
    8000362e:	0000100f          	fence.i

0000000080003632 <i0000000931>:
    80003632:	1eb10a23          	sb	a1,500(sp)
    80003636:	0008e117          	auipc	sp,0x8e
    8000363a:	9ca10113          	addi	sp,sp,-1590 # 80091000 <begin_signature>
    8000363e:	630d                	lui	t1,0x3
    80003640:	c703031b          	addiw	t1,t1,-912 # 2c70 <_tbss_end+0x2c70>
    80003644:	911a                	add	sp,sp,t1

0000000080003646 <i0000000932>:
    80003646:	f4013803          	ld	a6,-192(sp)

000000008000364a <i0000000933>:
    8000364a:	0ff0000f          	fence

000000008000364e <i0000000934>:
    8000364e:	4d813483          	ld	s1,1240(sp)

0000000080003652 <i0000000935>:
    80003652:	0000100f          	fence.i

0000000080003656 <i0000000936>:
    80003656:	75013783          	ld	a5,1872(sp)

000000008000365a <i0000000937>:
    8000365a:	0ff0000f          	fence

000000008000365e <i0000000938>:
    8000365e:	64c16783          	lwu	a5,1612(sp)

0000000080003662 <i0000000939>:
    80003662:	0ff0000f          	fence

0000000080003666 <i000000093a>:
    80003666:	0ff0000f          	fence

000000008000366a <i000000093b>:
    8000366a:	56f13423          	sd	a5,1384(sp)

000000008000366e <i000000093c>:
    8000366e:	b5013423          	sd	a6,-1208(sp)

0000000080003672 <i000000093d>:
    80003672:	a2416003          	lwu	zero,-1500(sp)

0000000080003676 <i000000093e>:
    80003676:	26813803          	ld	a6,616(sp)

000000008000367a <i000000093f>:
    8000367a:	ad215803          	lhu	a6,-1326(sp)

000000008000367e <i0000000940>:
    8000367e:	0ff0000f          	fence

0000000080003682 <i0000000941>:
    80003682:	52510623          	sb	t0,1324(sp)

0000000080003686 <i0000000942>:
    80003686:	c9412803          	lw	a6,-876(sp)

000000008000368a <i0000000943>:
    8000368a:	2bc11023          	sh	t3,672(sp)

000000008000368e <i0000000944>:
    8000368e:	47e13023          	sd	t5,1120(sp)

0000000080003692 <i0000000945>:
    80003692:	bce12823          	sw	a4,-1072(sp)

0000000080003696 <i0000000946>:
    80003696:	0000100f          	fence.i

000000008000369a <i0000000947>:
    8000369a:	3ea11623          	sh	a0,1004(sp)

000000008000369e <i0000000948>:
    8000369e:	4f215703          	lhu	a4,1266(sp)

00000000800036a2 <i0000000949>:
    800036a2:	24c16183          	lwu	gp,588(sp)

00000000800036a6 <i000000094a>:
    800036a6:	0ff0000f          	fence

00000000800036aa <i000000094b>:
    800036aa:	a7b12423          	sw	s11,-1432(sp)

00000000800036ae <i000000094c>:
    800036ae:	e0e10e23          	sb	a4,-484(sp)
    800036b2:	0008e117          	auipc	sp,0x8e
    800036b6:	94e10113          	addi	sp,sp,-1714 # 80091000 <begin_signature>
    800036ba:	6309                	lui	t1,0x2
    800036bc:	d603031b          	addiw	t1,t1,-672 # 1d60 <_tbss_end+0x1d60>
    800036c0:	911a                	add	sp,sp,t1

00000000800036c2 <i000000094d>:
    800036c2:	f0c15783          	lhu	a5,-244(sp)
    800036c6:	0008e117          	auipc	sp,0x8e
    800036ca:	93a10113          	addi	sp,sp,-1734 # 80091000 <begin_signature>
    800036ce:	6305                	lui	t1,0x1
    800036d0:	af03031b          	addiw	t1,t1,-1296 # af0 <_tbss_end+0xaf0>
    800036d4:	911a                	add	sp,sp,t1

00000000800036d6 <i000000094e>:
    800036d6:	5e812803          	lw	a6,1512(sp)

00000000800036da <i000000094f>:
    800036da:	15c11223          	sh	t3,324(sp)

00000000800036de <i0000000950>:
    800036de:	0000100f          	fence.i

00000000800036e2 <i0000000951>:
    800036e2:	0ff0000f          	fence

00000000800036e6 <i0000000952>:
    800036e6:	0000100f          	fence.i

00000000800036ea <i0000000953>:
    800036ea:	0ff0000f          	fence

00000000800036ee <i0000000954>:
    800036ee:	8e816803          	lwu	a6,-1816(sp)

00000000800036f2 <i0000000955>:
    800036f2:	0000100f          	fence.i

00000000800036f6 <i0000000956>:
    800036f6:	38416e83          	lwu	t4,900(sp)
    800036fa:	0008e117          	auipc	sp,0x8e
    800036fe:	90610113          	addi	sp,sp,-1786 # 80091000 <begin_signature>
    80003702:	630d                	lui	t1,0x3
    80003704:	3a03031b          	addiw	t1,t1,928 # 33a0 <_tbss_end+0x33a0>
    80003708:	911a                	add	sp,sp,t1

000000008000370a <i0000000957>:
    8000370a:	f6d14703          	lbu	a4,-147(sp)

000000008000370e <i0000000958>:
    8000370e:	24810803          	lb	a6,584(sp)

0000000080003712 <i0000000959>:
    80003712:	81813b83          	ld	s7,-2024(sp)

0000000080003716 <i000000095a>:
    80003716:	14412703          	lw	a4,324(sp)
    8000371a:	0008e117          	auipc	sp,0x8e
    8000371e:	8e610113          	addi	sp,sp,-1818 # 80091000 <begin_signature>
    80003722:	6309                	lui	t1,0x2
    80003724:	c903031b          	addiw	t1,t1,-880 # 1c90 <_tbss_end+0x1c90>
    80003728:	911a                	add	sp,sp,t1

000000008000372a <i000000095b>:
    8000372a:	f2612423          	sw	t1,-216(sp)

000000008000372e <i000000095c>:
    8000372e:	0ff0000f          	fence

0000000080003732 <i000000095d>:
    80003732:	c1013683          	ld	a3,-1008(sp)

0000000080003736 <i000000095e>:
    80003736:	39813f03          	ld	t5,920(sp)

000000008000373a <i000000095f>:
    8000373a:	0ff0000f          	fence

000000008000373e <i0000000960>:
    8000373e:	22f14d03          	lbu	s10,559(sp)

0000000080003742 <i0000000961>:
    80003742:	a4015703          	lhu	a4,-1472(sp)

0000000080003746 <i0000000962>:
    80003746:	3cc12783          	lw	a5,972(sp)

000000008000374a <i0000000963>:
    8000374a:	0ff0000f          	fence

000000008000374e <i0000000964>:
    8000374e:	30013823          	sd	zero,784(sp)

0000000080003752 <i0000000965>:
    80003752:	0000100f          	fence.i

0000000080003756 <i0000000966>:
    80003756:	97813683          	ld	a3,-1672(sp)

000000008000375a <i0000000967>:
    8000375a:	0000100f          	fence.i

000000008000375e <i0000000968>:
    8000375e:	0000100f          	fence.i

0000000080003762 <i0000000969>:
    80003762:	4ae13823          	sd	a4,1200(sp)
    80003766:	0008e117          	auipc	sp,0x8e
    8000376a:	89a10113          	addi	sp,sp,-1894 # 80091000 <begin_signature>
    8000376e:	630d                	lui	t1,0x3
    80003770:	3883031b          	addiw	t1,t1,904 # 3388 <_tbss_end+0x3388>
    80003774:	911a                	add	sp,sp,t1

0000000080003776 <i000000096a>:
    80003776:	4b013783          	ld	a5,1200(sp)

000000008000377a <i000000096b>:
    8000377a:	29c16703          	lwu	a4,668(sp)

000000008000377e <i000000096c>:
    8000377e:	4d312e23          	sw	s3,1244(sp)

0000000080003782 <i000000096d>:
    80003782:	94c11783          	lh	a5,-1716(sp)

0000000080003786 <i000000096e>:
    80003786:	fa813703          	ld	a4,-88(sp)

000000008000378a <i000000096f>:
    8000378a:	96114183          	lbu	gp,-1695(sp)

000000008000378e <i0000000970>:
    8000378e:	0000100f          	fence.i

0000000080003792 <i0000000971>:
    80003792:	73412783          	lw	a5,1844(sp)

0000000080003796 <i0000000972>:
    80003796:	22416703          	lwu	a4,548(sp)

000000008000379a <i0000000973>:
    8000379a:	6ef108a3          	sb	a5,1777(sp)

000000008000379e <i0000000974>:
    8000379e:	6ba14203          	lbu	tp,1722(sp)

00000000800037a2 <i0000000975>:
    800037a2:	d2012003          	lw	zero,-736(sp)

00000000800037a6 <i0000000976>:
    800037a6:	2f710803          	lb	a6,759(sp)

00000000800037aa <i0000000977>:
    800037aa:	0000100f          	fence.i

00000000800037ae <i0000000978>:
    800037ae:	acf13423          	sd	a5,-1336(sp)

00000000800037b2 <i0000000979>:
    800037b2:	0000100f          	fence.i

00000000800037b6 <i000000097a>:
    800037b6:	c8412803          	lw	a6,-892(sp)

00000000800037ba <i000000097b>:
    800037ba:	92f11a23          	sh	a5,-1740(sp)

00000000800037be <i000000097c>:
    800037be:	29013823          	sd	a6,656(sp)

00000000800037c2 <i000000097d>:
    800037c2:	c7511023          	sh	s5,-928(sp)
    800037c6:	0008e117          	auipc	sp,0x8e
    800037ca:	83a10113          	addi	sp,sp,-1990 # 80091000 <begin_signature>
    800037ce:	630d                	lui	t1,0x3
    800037d0:	2203031b          	addiw	t1,t1,544 # 3220 <_tbss_end+0x3220>
    800037d4:	911a                	add	sp,sp,t1

00000000800037d6 <i000000097e>:
    800037d6:	69c12623          	sw	t3,1676(sp)

00000000800037da <i000000097f>:
    800037da:	81011783          	lh	a5,-2032(sp)
    800037de:	0008e117          	auipc	sp,0x8e
    800037e2:	82210113          	addi	sp,sp,-2014 # 80091000 <begin_signature>
    800037e6:	6305                	lui	t1,0x1
    800037e8:	8b03031b          	addiw	t1,t1,-1872 # 8b0 <_tbss_end+0x8b0>
    800037ec:	911a                	add	sp,sp,t1

00000000800037ee <i0000000980>:
    800037ee:	c8e13423          	sd	a4,-888(sp)
    800037f2:	0008e117          	auipc	sp,0x8e
    800037f6:	80e10113          	addi	sp,sp,-2034 # 80091000 <begin_signature>
    800037fa:	6305                	lui	t1,0x1
    800037fc:	fb83031b          	addiw	t1,t1,-72 # fb8 <_tbss_end+0xfb8>
    80003800:	911a                	add	sp,sp,t1

0000000080003802 <i0000000981>:
    80003802:	73012423          	sw	a6,1832(sp)

0000000080003806 <i0000000982>:
    80003806:	2d411523          	sh	s4,714(sp)

000000008000380a <i0000000983>:
    8000380a:	0000100f          	fence.i

000000008000380e <i0000000984>:
    8000380e:	0000100f          	fence.i

0000000080003812 <i0000000985>:
    80003812:	0ff0000f          	fence

0000000080003816 <i0000000986>:
    80003816:	3d012d83          	lw	s11,976(sp)

000000008000381a <i0000000987>:
    8000381a:	f4f12623          	sw	a5,-180(sp)

000000008000381e <i0000000988>:
    8000381e:	0ff0000f          	fence

0000000080003822 <i0000000989>:
    80003822:	5de14903          	lbu	s2,1502(sp)

0000000080003826 <i000000098a>:
    80003826:	2c6109a3          	sb	t1,723(sp)
    8000382a:	0008d117          	auipc	sp,0x8d
    8000382e:	7d610113          	addi	sp,sp,2006 # 80091000 <begin_signature>
    80003832:	6305                	lui	t1,0x1
    80003834:	0783031b          	addiw	t1,t1,120 # 1078 <_tbss_end+0x1078>
    80003838:	911a                	add	sp,sp,t1

000000008000383a <i000000098b>:
    8000383a:	8a013183          	ld	gp,-1888(sp)

000000008000383e <i000000098c>:
    8000383e:	fe013803          	ld	a6,-32(sp)

0000000080003842 <i000000098d>:
    80003842:	0ff0000f          	fence

0000000080003846 <i000000098e>:
    80003846:	0fc16403          	lwu	s0,252(sp)

000000008000384a <i000000098f>:
    8000384a:	0ff0000f          	fence
    8000384e:	0008d117          	auipc	sp,0x8d
    80003852:	7b210113          	addi	sp,sp,1970 # 80091000 <begin_signature>
    80003856:	6305                	lui	t1,0x1
    80003858:	e283031b          	addiw	t1,t1,-472 # e28 <_tbss_end+0xe28>
    8000385c:	911a                	add	sp,sp,t1

000000008000385e <i0000000990>:
    8000385e:	d2e102a3          	sb	a4,-731(sp)
    80003862:	0008d117          	auipc	sp,0x8d
    80003866:	79e10113          	addi	sp,sp,1950 # 80091000 <begin_signature>
    8000386a:	630d                	lui	t1,0x3
    8000386c:	ce83031b          	addiw	t1,t1,-792 # 2ce8 <_tbss_end+0x2ce8>
    80003870:	911a                	add	sp,sp,t1

0000000080003872 <i0000000991>:
    80003872:	84a12623          	sw	a0,-1972(sp)

0000000080003876 <i0000000992>:
    80003876:	2ac11c23          	sh	a2,696(sp)

000000008000387a <i0000000993>:
    8000387a:	0ff0000f          	fence

000000008000387e <i0000000994>:
    8000387e:	01416303          	lwu	t1,20(sp)

0000000080003882 <i0000000995>:
    80003882:	0000100f          	fence.i

0000000080003886 <i0000000996>:
    80003886:	5af13023          	sd	a5,1440(sp)

000000008000388a <i0000000997>:
    8000388a:	7f816703          	lwu	a4,2040(sp)

000000008000388e <i0000000998>:
    8000388e:	57910fa3          	sb	s9,1407(sp)

0000000080003892 <i0000000999>:
    80003892:	12f11623          	sh	a5,300(sp)

0000000080003896 <i000000099a>:
    80003896:	5a813983          	ld	s3,1448(sp)

000000008000389a <i000000099b>:
    8000389a:	0ff0000f          	fence

000000008000389e <i000000099c>:
    8000389e:	0000100f          	fence.i

00000000800038a2 <i000000099d>:
    800038a2:	55813803          	ld	a6,1368(sp)

00000000800038a6 <i000000099e>:
    800038a6:	22c13023          	sd	a2,544(sp)

00000000800038aa <i000000099f>:
    800038aa:	0000100f          	fence.i

00000000800038ae <i00000009a0>:
    800038ae:	0000100f          	fence.i

00000000800038b2 <i00000009a1>:
    800038b2:	28016d83          	lwu	s11,640(sp)
    800038b6:	0008d117          	auipc	sp,0x8d
    800038ba:	74a10113          	addi	sp,sp,1866 # 80091000 <begin_signature>
    800038be:	630d                	lui	t1,0x3
    800038c0:	7003031b          	addiw	t1,t1,1792 # 3700 <_tbss_end+0x3700>
    800038c4:	911a                	add	sp,sp,t1

00000000800038c6 <i00000009a2>:
    800038c6:	9a416e83          	lwu	t4,-1628(sp)
    800038ca:	0008d117          	auipc	sp,0x8d
    800038ce:	73610113          	addi	sp,sp,1846 # 80091000 <begin_signature>
    800038d2:	6309                	lui	t1,0x2
    800038d4:	c003031b          	addiw	t1,t1,-1024 # 1c00 <_tbss_end+0x1c00>
    800038d8:	911a                	add	sp,sp,t1

00000000800038da <i00000009a3>:
    800038da:	b5b12e23          	sw	s11,-1188(sp)

00000000800038de <i00000009a4>:
    800038de:	82816703          	lwu	a4,-2008(sp)
    800038e2:	0008d117          	auipc	sp,0x8d
    800038e6:	71e10113          	addi	sp,sp,1822 # 80091000 <begin_signature>
    800038ea:	6309                	lui	t1,0x2
    800038ec:	0783031b          	addiw	t1,t1,120 # 2078 <_tbss_end+0x2078>
    800038f0:	911a                	add	sp,sp,t1

00000000800038f2 <i00000009a5>:
    800038f2:	43c16803          	lwu	a6,1084(sp)

00000000800038f6 <i00000009a6>:
    800038f6:	c4813a83          	ld	s5,-952(sp)

00000000800038fa <i00000009a7>:
    800038fa:	b0214283          	lbu	t0,-1278(sp)

00000000800038fe <i00000009a8>:
    800038fe:	fbbe                	sd	a5,496(sp)

0000000080003900 <i00000009a9>:
    80003900:	0ff0000f          	fence

0000000080003904 <i00000009aa>:
    80003904:	6b713c23          	sd	s7,1720(sp)

0000000080003908 <i00000009ab>:
    80003908:	0000100f          	fence.i

000000008000390c <i00000009ac>:
    8000390c:	0000100f          	fence.i
    80003910:	0008d117          	auipc	sp,0x8d
    80003914:	6f010113          	addi	sp,sp,1776 # 80091000 <begin_signature>
    80003918:	630d                	lui	t1,0x3
    8000391a:	e483031b          	addiw	t1,t1,-440 # 2e48 <_tbss_end+0x2e48>
    8000391e:	911a                	add	sp,sp,t1

0000000080003920 <i00000009ad>:
    80003920:	62e13023          	sd	a4,1568(sp)

0000000080003924 <i00000009ae>:
    80003924:	0000100f          	fence.i

0000000080003928 <i00000009af>:
    80003928:	0ff0000f          	fence

000000008000392c <i00000009b0>:
    8000392c:	682a                	ld	a6,136(sp)

000000008000392e <i00000009b1>:
    8000392e:	cce13823          	sd	a4,-816(sp)

0000000080003932 <i00000009b2>:
    80003932:	64e102a3          	sb	a4,1605(sp)
    80003936:	0008d117          	auipc	sp,0x8d
    8000393a:	6ca10113          	addi	sp,sp,1738 # 80091000 <begin_signature>
    8000393e:	6309                	lui	t1,0x2
    80003940:	d603031b          	addiw	t1,t1,-672 # 1d60 <_tbss_end+0x1d60>
    80003944:	911a                	add	sp,sp,t1

0000000080003946 <i00000009b3>:
    80003946:	85112e23          	sw	a7,-1956(sp)

000000008000394a <i00000009b4>:
    8000394a:	e3e11183          	lh	gp,-450(sp)

000000008000394e <i00000009b5>:
    8000394e:	0ff0000f          	fence
    80003952:	0008d117          	auipc	sp,0x8d
    80003956:	6ae10113          	addi	sp,sp,1710 # 80091000 <begin_signature>
    8000395a:	6309                	lui	t1,0x2
    8000395c:	a603031b          	addiw	t1,t1,-1440 # 1a60 <_tbss_end+0x1a60>
    80003960:	911a                	add	sp,sp,t1

0000000080003962 <i00000009b6>:
    80003962:	0de105a3          	sb	t5,203(sp)

0000000080003966 <i00000009b7>:
    80003966:	eb42                	sd	a6,400(sp)

0000000080003968 <i00000009b8>:
    80003968:	c4815783          	lhu	a5,-952(sp)

000000008000396c <i00000009b9>:
    8000396c:	47211323          	sh	s2,1126(sp)

0000000080003970 <i00000009ba>:
    80003970:	0ff0000f          	fence

0000000080003974 <i00000009bb>:
    80003974:	0000100f          	fence.i

0000000080003978 <i00000009bc>:
    80003978:	bfb107a3          	sb	s11,-1041(sp)

000000008000397c <i00000009bd>:
    8000397c:	0ff0000f          	fence

0000000080003980 <i00000009be>:
    80003980:	8d011123          	sh	a6,-1854(sp)

0000000080003984 <i00000009bf>:
    80003984:	a0d108a3          	sb	a3,-1519(sp)

0000000080003988 <i00000009c0>:
    80003988:	0ff0000f          	fence

000000008000398c <i00000009c1>:
    8000398c:	d4910783          	lb	a5,-695(sp)

0000000080003990 <i00000009c2>:
    80003990:	f2016303          	lwu	t1,-224(sp)

0000000080003994 <i00000009c3>:
    80003994:	0ff0000f          	fence

0000000080003998 <i00000009c4>:
    80003998:	3ba13c23          	sd	s10,952(sp)

000000008000399c <i00000009c5>:
    8000399c:	beb10523          	sb	a1,-1046(sp)

00000000800039a0 <i00000009c6>:
    800039a0:	be314803          	lbu	a6,-1053(sp)

00000000800039a4 <i00000009c7>:
    800039a4:	0ff0000f          	fence

00000000800039a8 <i00000009c8>:
    800039a8:	1ed10183          	lb	gp,493(sp)

00000000800039ac <i00000009c9>:
    800039ac:	96f12223          	sw	a5,-1692(sp)

00000000800039b0 <i00000009ca>:
    800039b0:	4aa105a3          	sb	a0,1195(sp)

00000000800039b4 <i00000009cb>:
    800039b4:	0ce11923          	sh	a4,210(sp)

00000000800039b8 <i00000009cc>:
    800039b8:	13610b83          	lb	s7,310(sp)

00000000800039bc <i00000009cd>:
    800039bc:	0000100f          	fence.i

00000000800039c0 <i00000009ce>:
    800039c0:	0000100f          	fence.i

00000000800039c4 <i00000009cf>:
    800039c4:	0ff0000f          	fence

00000000800039c8 <i00000009d0>:
    800039c8:	0ff0000f          	fence

00000000800039cc <i00000009d1>:
    800039cc:	48812e03          	lw	t3,1160(sp)

00000000800039d0 <i00000009d2>:
    800039d0:	0000100f          	fence.i

00000000800039d4 <i00000009d3>:
    800039d4:	35210783          	lb	a5,850(sp)
    800039d8:	0008d117          	auipc	sp,0x8d
    800039dc:	62810113          	addi	sp,sp,1576 # 80091000 <begin_signature>
    800039e0:	630d                	lui	t1,0x3
    800039e2:	9603031b          	addiw	t1,t1,-1696 # 2960 <_tbss_end+0x2960>
    800039e6:	911a                	add	sp,sp,t1

00000000800039e8 <i00000009d4>:
    800039e8:	fae12a23          	sw	a4,-76(sp)

00000000800039ec <i00000009d5>:
    800039ec:	79110803          	lb	a6,1937(sp)
    800039f0:	0008d117          	auipc	sp,0x8d
    800039f4:	61010113          	addi	sp,sp,1552 # 80091000 <begin_signature>
    800039f8:	6309                	lui	t1,0x2
    800039fa:	a903031b          	addiw	t1,t1,-1392 # 1a90 <_tbss_end+0x1a90>
    800039fe:	911a                	add	sp,sp,t1

0000000080003a00 <i00000009d6>:
    80003a00:	0a414783          	lbu	a5,164(sp)

0000000080003a04 <i00000009d7>:
    80003a04:	0000100f          	fence.i

0000000080003a08 <i00000009d8>:
    80003a08:	0000100f          	fence.i

0000000080003a0c <i00000009d9>:
    80003a0c:	0ff0000f          	fence

0000000080003a10 <i00000009da>:
    80003a10:	0000100f          	fence.i

0000000080003a14 <i00000009db>:
    80003a14:	8dc14583          	lbu	a1,-1828(sp)

0000000080003a18 <i00000009dc>:
    80003a18:	dca14603          	lbu	a2,-566(sp)

0000000080003a1c <i00000009dd>:
    80003a1c:	1ef12023          	sw	a5,480(sp)

0000000080003a20 <i00000009de>:
    80003a20:	bcf10323          	sb	a5,-1082(sp)

0000000080003a24 <i00000009df>:
    80003a24:	a9c12823          	sw	t3,-1392(sp)

0000000080003a28 <i00000009e0>:
    80003a28:	0000100f          	fence.i

0000000080003a2c <i00000009e1>:
    80003a2c:	0ff0000f          	fence

0000000080003a30 <i00000009e2>:
    80003a30:	65611783          	lh	a5,1622(sp)

0000000080003a34 <i00000009e3>:
    80003a34:	9d412803          	lw	a6,-1580(sp)

0000000080003a38 <i00000009e4>:
    80003a38:	0000100f          	fence.i

0000000080003a3c <i00000009e5>:
    80003a3c:	0ff0000f          	fence

0000000080003a40 <i00000009e6>:
    80003a40:	34f11b23          	sh	a5,854(sp)

0000000080003a44 <i00000009e7>:
    80003a44:	2b211803          	lh	a6,690(sp)

0000000080003a48 <i00000009e8>:
    80003a48:	fc011923          	sh	zero,-46(sp)

0000000080003a4c <i00000009e9>:
    80003a4c:	0000100f          	fence.i

0000000080003a50 <i00000009ea>:
    80003a50:	d3215703          	lhu	a4,-718(sp)

0000000080003a54 <i00000009eb>:
    80003a54:	0000100f          	fence.i

0000000080003a58 <i00000009ec>:
    80003a58:	e5012983          	lw	s3,-432(sp)

0000000080003a5c <i00000009ed>:
    80003a5c:	0000100f          	fence.i

0000000080003a60 <i00000009ee>:
    80003a60:	f3910aa3          	sb	s9,-203(sp)

0000000080003a64 <i00000009ef>:
    80003a64:	3e412703          	lw	a4,996(sp)

0000000080003a68 <i00000009f0>:
    80003a68:	e5a10a23          	sb	s10,-428(sp)

0000000080003a6c <i00000009f1>:
    80003a6c:	0000100f          	fence.i

0000000080003a70 <i00000009f2>:
    80003a70:	d842                	sw	a6,48(sp)

0000000080003a72 <i00000009f3>:
    80003a72:	0ff0000f          	fence

0000000080003a76 <i00000009f4>:
    80003a76:	0000100f          	fence.i

0000000080003a7a <i00000009f5>:
    80003a7a:	0ff0000f          	fence

0000000080003a7e <i00000009f6>:
    80003a7e:	0000100f          	fence.i

0000000080003a82 <i00000009f7>:
    80003a82:	0000100f          	fence.i

0000000080003a86 <i00000009f8>:
    80003a86:	0000100f          	fence.i

0000000080003a8a <i00000009f9>:
    80003a8a:	0ff0000f          	fence

0000000080003a8e <i00000009fa>:
    80003a8e:	0ff0000f          	fence

0000000080003a92 <i00000009fb>:
    80003a92:	4ee10923          	sb	a4,1266(sp)

0000000080003a96 <i00000009fc>:
    80003a96:	ab012223          	sw	a6,-1372(sp)

0000000080003a9a <i00000009fd>:
    80003a9a:	8f011703          	lh	a4,-1808(sp)

0000000080003a9e <i00000009fe>:
    80003a9e:	0ff0000f          	fence
    80003aa2:	0008d117          	auipc	sp,0x8d
    80003aa6:	55e10113          	addi	sp,sp,1374 # 80091000 <begin_signature>
    80003aaa:	6305                	lui	t1,0x1
    80003aac:	9483031b          	addiw	t1,t1,-1720 # 948 <_tbss_end+0x948>
    80003ab0:	911a                	add	sp,sp,t1

0000000080003ab2 <i00000009ff>:
    80003ab2:	c2812283          	lw	t0,-984(sp)

0000000080003ab6 <i0000000a00>:
    80003ab6:	0ff0000f          	fence

0000000080003aba <i0000000a01>:
    80003aba:	0000100f          	fence.i

0000000080003abe <i0000000a02>:
    80003abe:	43012703          	lw	a4,1072(sp)

0000000080003ac2 <i0000000a03>:
    80003ac2:	0ff0000f          	fence
    80003ac6:	0008d117          	auipc	sp,0x8d
    80003aca:	53a10113          	addi	sp,sp,1338 # 80091000 <begin_signature>
    80003ace:	630d                	lui	t1,0x3
    80003ad0:	ce03031b          	addiw	t1,t1,-800 # 2ce0 <_tbss_end+0x2ce0>
    80003ad4:	911a                	add	sp,sp,t1

0000000080003ad6 <i0000000a04>:
    80003ad6:	b7e15d83          	lhu	s11,-1154(sp)
    80003ada:	0008d117          	auipc	sp,0x8d
    80003ade:	52610113          	addi	sp,sp,1318 # 80091000 <begin_signature>
    80003ae2:	6305                	lui	t1,0x1
    80003ae4:	0583031b          	addiw	t1,t1,88 # 1058 <_tbss_end+0x1058>
    80003ae8:	911a                	add	sp,sp,t1

0000000080003aea <i0000000a05>:
    80003aea:	b6c15783          	lhu	a5,-1172(sp)

0000000080003aee <i0000000a06>:
    80003aee:	0000100f          	fence.i

0000000080003af2 <i0000000a07>:
    80003af2:	27411803          	lh	a6,628(sp)

0000000080003af6 <i0000000a08>:
    80003af6:	ec712e23          	sw	t2,-292(sp)
    80003afa:	0008d117          	auipc	sp,0x8d
    80003afe:	50610113          	addi	sp,sp,1286 # 80091000 <begin_signature>
    80003b02:	6309                	lui	t1,0x2
    80003b04:	a903031b          	addiw	t1,t1,-1392 # 1a90 <_tbss_end+0x1a90>
    80003b08:	911a                	add	sp,sp,t1

0000000080003b0a <i0000000a09>:
    80003b0a:	12010723          	sb	zero,302(sp)

0000000080003b0e <i0000000a0a>:
    80003b0e:	0ff0000f          	fence

0000000080003b12 <i0000000a0b>:
    80003b12:	a6f12823          	sw	a5,-1424(sp)

0000000080003b16 <i0000000a0c>:
    80003b16:	0000100f          	fence.i

0000000080003b1a <i0000000a0d>:
    80003b1a:	a8114803          	lbu	a6,-1407(sp)

0000000080003b1e <i0000000a0e>:
    80003b1e:	53c15f03          	lhu	t5,1340(sp)

0000000080003b22 <i0000000a0f>:
    80003b22:	19610703          	lb	a4,406(sp)

0000000080003b26 <i0000000a10>:
    80003b26:	0000100f          	fence.i
    80003b2a:	0008d117          	auipc	sp,0x8d
    80003b2e:	4d610113          	addi	sp,sp,1238 # 80091000 <begin_signature>
    80003b32:	630d                	lui	t1,0x3
    80003b34:	0503031b          	addiw	t1,t1,80 # 3050 <_tbss_end+0x3050>
    80003b38:	911a                	add	sp,sp,t1

0000000080003b3a <i0000000a11>:
    80003b3a:	e7812383          	lw	t2,-392(sp)

0000000080003b3e <i0000000a12>:
    80003b3e:	0000100f          	fence.i

0000000080003b42 <i0000000a13>:
    80003b42:	ff011923          	sh	a6,-14(sp)

0000000080003b46 <i0000000a14>:
    80003b46:	56615503          	lhu	a0,1382(sp)

0000000080003b4a <i0000000a15>:
    80003b4a:	0000100f          	fence.i

0000000080003b4e <i0000000a16>:
    80003b4e:	0ff0000f          	fence

0000000080003b52 <i0000000a17>:
    80003b52:	fa811783          	lh	a5,-88(sp)

0000000080003b56 <i0000000a18>:
    80003b56:	0000100f          	fence.i

0000000080003b5a <i0000000a19>:
    80003b5a:	0ff0000f          	fence

0000000080003b5e <i0000000a1a>:
    80003b5e:	0ff0000f          	fence

0000000080003b62 <i0000000a1b>:
    80003b62:	0ff0000f          	fence

0000000080003b66 <i0000000a1c>:
    80003b66:	0000100f          	fence.i

0000000080003b6a <i0000000a1d>:
    80003b6a:	bd012783          	lw	a5,-1072(sp)

0000000080003b6e <i0000000a1e>:
    80003b6e:	0000100f          	fence.i
    80003b72:	0008d117          	auipc	sp,0x8d
    80003b76:	48e10113          	addi	sp,sp,1166 # 80091000 <begin_signature>
    80003b7a:	630d                	lui	t1,0x3
    80003b7c:	9483031b          	addiw	t1,t1,-1720 # 2948 <_tbss_end+0x2948>
    80003b80:	911a                	add	sp,sp,t1

0000000080003b82 <i0000000a1f>:
    80003b82:	e1f14703          	lbu	a4,-481(sp)
    80003b86:	0008d117          	auipc	sp,0x8d
    80003b8a:	47a10113          	addi	sp,sp,1146 # 80091000 <begin_signature>
    80003b8e:	630d                	lui	t1,0x3
    80003b90:	2083031b          	addiw	t1,t1,520 # 3208 <_tbss_end+0x3208>
    80003b94:	911a                	add	sp,sp,t1

0000000080003b96 <i0000000a20>:
    80003b96:	5ef12823          	sw	a5,1520(sp)

0000000080003b9a <i0000000a21>:
    80003b9a:	0000100f          	fence.i

0000000080003b9e <i0000000a22>:
    80003b9e:	ff314383          	lbu	t2,-13(sp)

0000000080003ba2 <i0000000a23>:
    80003ba2:	0000100f          	fence.i

0000000080003ba6 <i0000000a24>:
    80003ba6:	6c110503          	lb	a0,1729(sp)

0000000080003baa <i0000000a25>:
    80003baa:	c4415783          	lhu	a5,-956(sp)

0000000080003bae <i0000000a26>:
    80003bae:	0000100f          	fence.i

0000000080003bb2 <i0000000a27>:
    80003bb2:	0ff0000f          	fence

0000000080003bb6 <i0000000a28>:
    80003bb6:	0000100f          	fence.i

0000000080003bba <i0000000a29>:
    80003bba:	0000100f          	fence.i

0000000080003bbe <i0000000a2a>:
    80003bbe:	0000100f          	fence.i

0000000080003bc2 <i0000000a2b>:
    80003bc2:	a6514703          	lbu	a4,-1435(sp)

0000000080003bc6 <i0000000a2c>:
    80003bc6:	0ff0000f          	fence

0000000080003bca <i0000000a2d>:
    80003bca:	0ff0000f          	fence

0000000080003bce <i0000000a2e>:
    80003bce:	0ff0000f          	fence

0000000080003bd2 <i0000000a2f>:
    80003bd2:	50e103a3          	sb	a4,1287(sp)

0000000080003bd6 <i0000000a30>:
    80003bd6:	0000100f          	fence.i

0000000080003bda <i0000000a31>:
    80003bda:	0000100f          	fence.i
    80003bde:	0008d117          	auipc	sp,0x8d
    80003be2:	42210113          	addi	sp,sp,1058 # 80091000 <begin_signature>
    80003be6:	630d                	lui	t1,0x3
    80003be8:	a903031b          	addiw	t1,t1,-1392 # 2a90 <_tbss_end+0x2a90>
    80003bec:	911a                	add	sp,sp,t1

0000000080003bee <i0000000a32>:
    80003bee:	0e8101a3          	sb	s0,227(sp)

0000000080003bf2 <i0000000a33>:
    80003bf2:	0ff0000f          	fence

0000000080003bf6 <i0000000a34>:
    80003bf6:	6df10683          	lb	a3,1759(sp)

0000000080003bfa <i0000000a35>:
    80003bfa:	0ff0000f          	fence

0000000080003bfe <i0000000a36>:
    80003bfe:	0000100f          	fence.i

0000000080003c02 <i0000000a37>:
    80003c02:	0000100f          	fence.i

0000000080003c06 <i0000000a38>:
    80003c06:	a3c12483          	lw	s1,-1476(sp)

0000000080003c0a <i0000000a39>:
    80003c0a:	0ff0000f          	fence

0000000080003c0e <i0000000a3a>:
    80003c0e:	0000100f          	fence.i

0000000080003c12 <i0000000a3b>:
    80003c12:	34914403          	lbu	s0,841(sp)

0000000080003c16 <i0000000a3c>:
    80003c16:	0000100f          	fence.i

0000000080003c1a <i0000000a3d>:
    80003c1a:	0ff0000f          	fence

0000000080003c1e <i0000000a3e>:
    80003c1e:	0ff0000f          	fence

0000000080003c22 <i0000000a3f>:
    80003c22:	5a310783          	lb	a5,1443(sp)

0000000080003c26 <i0000000a40>:
    80003c26:	0ff0000f          	fence

0000000080003c2a <i0000000a41>:
    80003c2a:	46f10223          	sb	a5,1124(sp)

0000000080003c2e <i0000000a42>:
    80003c2e:	8f012623          	sw	a6,-1812(sp)

0000000080003c32 <i0000000a43>:
    80003c32:	0ff0000f          	fence

0000000080003c36 <i0000000a44>:
    80003c36:	0ff0000f          	fence

0000000080003c3a <i0000000a45>:
    80003c3a:	d9010703          	lb	a4,-624(sp)

0000000080003c3e <i0000000a46>:
    80003c3e:	dc810ea3          	sb	s0,-547(sp)

0000000080003c42 <i0000000a47>:
    80003c42:	abc15703          	lhu	a4,-1348(sp)

0000000080003c46 <i0000000a48>:
    80003c46:	bb211683          	lh	a3,-1102(sp)

0000000080003c4a <i0000000a49>:
    80003c4a:	0ff0000f          	fence

0000000080003c4e <i0000000a4a>:
    80003c4e:	0ff0000f          	fence

0000000080003c52 <i0000000a4b>:
    80003c52:	f4211703          	lh	a4,-190(sp)

0000000080003c56 <i0000000a4c>:
    80003c56:	2ef10a23          	sb	a5,756(sp)

0000000080003c5a <i0000000a4d>:
    80003c5a:	f3411803          	lh	a6,-204(sp)

0000000080003c5e <i0000000a4e>:
    80003c5e:	0000100f          	fence.i

0000000080003c62 <i0000000a4f>:
    80003c62:	0000100f          	fence.i
    80003c66:	0008d117          	auipc	sp,0x8d
    80003c6a:	39a10113          	addi	sp,sp,922 # 80091000 <begin_signature>
    80003c6e:	6305                	lui	t1,0x1
    80003c70:	d703031b          	addiw	t1,t1,-656 # d70 <_tbss_end+0xd70>
    80003c74:	911a                	add	sp,sp,t1

0000000080003c76 <i0000000a50>:
    80003c76:	3d514183          	lbu	gp,981(sp)

0000000080003c7a <i0000000a51>:
    80003c7a:	7f811803          	lh	a6,2040(sp)

0000000080003c7e <i0000000a52>:
    80003c7e:	daf11623          	sh	a5,-596(sp)

0000000080003c82 <i0000000a53>:
    80003c82:	0ff0000f          	fence

0000000080003c86 <i0000000a54>:
    80003c86:	65112c23          	sw	a7,1624(sp)

0000000080003c8a <i0000000a55>:
    80003c8a:	0000100f          	fence.i

0000000080003c8e <i0000000a56>:
    80003c8e:	0ff0000f          	fence

0000000080003c92 <i0000000a57>:
    80003c92:	0ff0000f          	fence

0000000080003c96 <i0000000a58>:
    80003c96:	88011703          	lh	a4,-1920(sp)

0000000080003c9a <i0000000a59>:
    80003c9a:	0000100f          	fence.i

0000000080003c9e <i0000000a5a>:
    80003c9e:	0000100f          	fence.i
    80003ca2:	0008d117          	auipc	sp,0x8d
    80003ca6:	35e10113          	addi	sp,sp,862 # 80091000 <begin_signature>
    80003caa:	630d                	lui	t1,0x3
    80003cac:	9c03031b          	addiw	t1,t1,-1600 # 29c0 <_tbss_end+0x29c0>
    80003cb0:	911a                	add	sp,sp,t1

0000000080003cb2 <i0000000a5b>:
    80003cb2:	77214703          	lbu	a4,1906(sp)

0000000080003cb6 <i0000000a5c>:
    80003cb6:	3d015f83          	lhu	t6,976(sp)

0000000080003cba <i0000000a5d>:
    80003cba:	0ff0000f          	fence
    80003cbe:	0008d117          	auipc	sp,0x8d
    80003cc2:	34210113          	addi	sp,sp,834 # 80091000 <begin_signature>
    80003cc6:	6305                	lui	t1,0x1
    80003cc8:	4903031b          	addiw	t1,t1,1168 # 1490 <_tbss_end+0x1490>
    80003ccc:	911a                	add	sp,sp,t1

0000000080003cce <i0000000a5e>:
    80003cce:	f1012a23          	sw	a6,-236(sp)

0000000080003cd2 <i0000000a5f>:
    80003cd2:	0ff0000f          	fence

0000000080003cd6 <i0000000a60>:
    80003cd6:	0000100f          	fence.i

0000000080003cda <i0000000a61>:
    80003cda:	dce11123          	sh	a4,-574(sp)

0000000080003cde <i0000000a62>:
    80003cde:	1d910823          	sb	s9,464(sp)

0000000080003ce2 <i0000000a63>:
    80003ce2:	0ff0000f          	fence

0000000080003ce6 <i0000000a64>:
    80003ce6:	0000100f          	fence.i

0000000080003cea <i0000000a65>:
    80003cea:	0ff0000f          	fence

0000000080003cee <i0000000a66>:
    80003cee:	eae10aa3          	sb	a4,-331(sp)

0000000080003cf2 <i0000000a67>:
    80003cf2:	16a11a83          	lh	s5,362(sp)

0000000080003cf6 <i0000000a68>:
    80003cf6:	0000100f          	fence.i

0000000080003cfa <i0000000a69>:
    80003cfa:	35111c23          	sh	a7,856(sp)

0000000080003cfe <i0000000a6a>:
    80003cfe:	0ff0000f          	fence

0000000080003d02 <i0000000a6b>:
    80003d02:	19310803          	lb	a6,403(sp)

0000000080003d06 <i0000000a6c>:
    80003d06:	0000100f          	fence.i

0000000080003d0a <i0000000a6d>:
    80003d0a:	0ff0000f          	fence

0000000080003d0e <i0000000a6e>:
    80003d0e:	0000100f          	fence.i
    80003d12:	0008d117          	auipc	sp,0x8d
    80003d16:	2ee10113          	addi	sp,sp,750 # 80091000 <begin_signature>
    80003d1a:	6309                	lui	t1,0x2
    80003d1c:	3583031b          	addiw	t1,t1,856 # 2358 <_tbss_end+0x2358>
    80003d20:	911a                	add	sp,sp,t1

0000000080003d22 <i0000000a6f>:
    80003d22:	13012803          	lw	a6,304(sp)

0000000080003d26 <i0000000a70>:
    80003d26:	0ff0000f          	fence

0000000080003d2a <i0000000a71>:
    80003d2a:	e8d108a3          	sb	a3,-367(sp)

0000000080003d2e <i0000000a72>:
    80003d2e:	93f12223          	sw	t6,-1756(sp)

0000000080003d32 <i0000000a73>:
    80003d32:	0000100f          	fence.i

0000000080003d36 <i0000000a74>:
    80003d36:	0ff0000f          	fence

0000000080003d3a <i0000000a75>:
    80003d3a:	a7412883          	lw	a7,-1420(sp)

0000000080003d3e <i0000000a76>:
    80003d3e:	8ae12623          	sw	a4,-1876(sp)

0000000080003d42 <i0000000a77>:
    80003d42:	0000100f          	fence.i

0000000080003d46 <i0000000a78>:
    80003d46:	e4f11523          	sh	a5,-438(sp)

0000000080003d4a <i0000000a79>:
    80003d4a:	0000100f          	fence.i

0000000080003d4e <i0000000a7a>:
    80003d4e:	e4310803          	lb	a6,-445(sp)

0000000080003d52 <i0000000a7b>:
    80003d52:	0ff0000f          	fence

0000000080003d56 <i0000000a7c>:
    80003d56:	0ff0000f          	fence

0000000080003d5a <i0000000a7d>:
    80003d5a:	0000100f          	fence.i

0000000080003d5e <i0000000a7e>:
    80003d5e:	0ff0000f          	fence
    80003d62:	0008d117          	auipc	sp,0x8d
    80003d66:	29e10113          	addi	sp,sp,670 # 80091000 <begin_signature>
    80003d6a:	630d                	lui	t1,0x3
    80003d6c:	e183031b          	addiw	t1,t1,-488 # 2e18 <_tbss_end+0x2e18>
    80003d70:	911a                	add	sp,sp,t1

0000000080003d72 <i0000000a7f>:
    80003d72:	ca311c23          	sh	gp,-840(sp)

0000000080003d76 <i0000000a80>:
    80003d76:	0000100f          	fence.i
    80003d7a:	0008d117          	auipc	sp,0x8d
    80003d7e:	28610113          	addi	sp,sp,646 # 80091000 <begin_signature>
    80003d82:	6309                	lui	t1,0x2
    80003d84:	4c03031b          	addiw	t1,t1,1216 # 24c0 <_tbss_end+0x24c0>
    80003d88:	911a                	add	sp,sp,t1

0000000080003d8a <i0000000a81>:
    80003d8a:	a4f10823          	sb	a5,-1456(sp)

0000000080003d8e <i0000000a82>:
    80003d8e:	2e214f03          	lbu	t5,738(sp)

0000000080003d92 <i0000000a83>:
    80003d92:	0000100f          	fence.i

0000000080003d96 <i0000000a84>:
    80003d96:	0000100f          	fence.i

0000000080003d9a <i0000000a85>:
    80003d9a:	0000100f          	fence.i

0000000080003d9e <i0000000a86>:
    80003d9e:	50815783          	lhu	a5,1288(sp)

0000000080003da2 <i0000000a87>:
    80003da2:	0000100f          	fence.i

0000000080003da6 <i0000000a88>:
    80003da6:	0000100f          	fence.i

0000000080003daa <i0000000a89>:
    80003daa:	0000100f          	fence.i

0000000080003dae <i0000000a8a>:
    80003dae:	0000100f          	fence.i

0000000080003db2 <i0000000a8b>:
    80003db2:	0ff0000f          	fence

0000000080003db6 <i0000000a8c>:
    80003db6:	0ff0000f          	fence

0000000080003dba <i0000000a8d>:
    80003dba:	93011e23          	sh	a6,-1732(sp)

0000000080003dbe <i0000000a8e>:
    80003dbe:	18110703          	lb	a4,385(sp)

0000000080003dc2 <i0000000a8f>:
    80003dc2:	0ff0000f          	fence

0000000080003dc6 <i0000000a90>:
    80003dc6:	e4e12e23          	sw	a4,-420(sp)

0000000080003dca <i0000000a91>:
    80003dca:	0000100f          	fence.i

0000000080003dce <i0000000a92>:
    80003dce:	0000100f          	fence.i

0000000080003dd2 <i0000000a93>:
    80003dd2:	0000100f          	fence.i

0000000080003dd6 <i0000000a94>:
    80003dd6:	0ff0000f          	fence

0000000080003dda <i0000000a95>:
    80003dda:	ad314a83          	lbu	s5,-1325(sp)

0000000080003dde <i0000000a96>:
    80003dde:	0000100f          	fence.i

0000000080003de2 <i0000000a97>:
    80003de2:	fe411783          	lh	a5,-28(sp)
    80003de6:	0008d117          	auipc	sp,0x8d
    80003dea:	21a10113          	addi	sp,sp,538 # 80091000 <begin_signature>
    80003dee:	6309                	lui	t1,0x2
    80003df0:	7a03031b          	addiw	t1,t1,1952 # 27a0 <_tbss_end+0x27a0>
    80003df4:	911a                	add	sp,sp,t1

0000000080003df6 <i0000000a98>:
    80003df6:	98d12823          	sw	a3,-1648(sp)
    80003dfa:	0008d117          	auipc	sp,0x8d
    80003dfe:	20610113          	addi	sp,sp,518 # 80091000 <begin_signature>
    80003e02:	6309                	lui	t1,0x2
    80003e04:	6403031b          	addiw	t1,t1,1600 # 2640 <_tbss_end+0x2640>
    80003e08:	911a                	add	sp,sp,t1

0000000080003e0a <i0000000a99>:
    80003e0a:	db511f23          	sh	s5,-578(sp)

0000000080003e0e <i0000000a9a>:
    80003e0e:	0000100f          	fence.i

0000000080003e12 <i0000000a9b>:
    80003e12:	8c314c83          	lbu	s9,-1853(sp)

0000000080003e16 <i0000000a9c>:
    80003e16:	0ff0000f          	fence

0000000080003e1a <i0000000a9d>:
    80003e1a:	0ff0000f          	fence

0000000080003e1e <i0000000a9e>:
    80003e1e:	0ff0000f          	fence

0000000080003e22 <i0000000a9f>:
    80003e22:	0000100f          	fence.i

0000000080003e26 <i0000000aa0>:
    80003e26:	2ae10f23          	sb	a4,702(sp)

0000000080003e2a <i0000000aa1>:
    80003e2a:	c8c10ba3          	sb	a2,-873(sp)

0000000080003e2e <i0000000aa2>:
    80003e2e:	0000100f          	fence.i

0000000080003e32 <i0000000aa3>:
    80003e32:	cbf12023          	sw	t6,-864(sp)

0000000080003e36 <i0000000aa4>:
    80003e36:	0ff0000f          	fence

0000000080003e3a <i0000000aa5>:
    80003e3a:	18b14903          	lbu	s2,395(sp)

0000000080003e3e <i0000000aa6>:
    80003e3e:	0ff0000f          	fence
    80003e42:	0008d117          	auipc	sp,0x8d
    80003e46:	1be10113          	addi	sp,sp,446 # 80091000 <begin_signature>
    80003e4a:	6309                	lui	t1,0x2
    80003e4c:	7983031b          	addiw	t1,t1,1944 # 2798 <_tbss_end+0x2798>
    80003e50:	911a                	add	sp,sp,t1

0000000080003e52 <i0000000aa7>:
    80003e52:	c7010623          	sb	a6,-916(sp)

0000000080003e56 <i0000000aa8>:
    80003e56:	0ff0000f          	fence

0000000080003e5a <i0000000aa9>:
    80003e5a:	0ff0000f          	fence

0000000080003e5e <i0000000aaa>:
    80003e5e:	dca14883          	lbu	a7,-566(sp)

0000000080003e62 <i0000000aab>:
    80003e62:	0ff0000f          	fence

0000000080003e66 <i0000000aac>:
    80003e66:	38e11023          	sh	a4,896(sp)

0000000080003e6a <i0000000aad>:
    80003e6a:	24710783          	lb	a5,583(sp)
    80003e6e:	0008d117          	auipc	sp,0x8d
    80003e72:	19210113          	addi	sp,sp,402 # 80091000 <begin_signature>
    80003e76:	6305                	lui	t1,0x1
    80003e78:	1103031b          	addiw	t1,t1,272 # 1110 <_tbss_end+0x1110>
    80003e7c:	911a                	add	sp,sp,t1

0000000080003e7e <i0000000aae>:
    80003e7e:	c5612423          	sw	s6,-952(sp)

0000000080003e82 <i0000000aaf>:
    80003e82:	0000100f          	fence.i
    80003e86:	0008d117          	auipc	sp,0x8d
    80003e8a:	17a10113          	addi	sp,sp,378 # 80091000 <begin_signature>
    80003e8e:	6305                	lui	t1,0x1
    80003e90:	fd03031b          	addiw	t1,t1,-48 # fd0 <_tbss_end+0xfd0>
    80003e94:	911a                	add	sp,sp,t1

0000000080003e96 <i0000000ab0>:
    80003e96:	0ae11703          	lh	a4,174(sp)

0000000080003e9a <i0000000ab1>:
    80003e9a:	fe610703          	lb	a4,-26(sp)

0000000080003e9e <i0000000ab2>:
    80003e9e:	57011a23          	sh	a6,1396(sp)

0000000080003ea2 <i0000000ab3>:
    80003ea2:	24e12623          	sw	a4,588(sp)

0000000080003ea6 <i0000000ab4>:
    80003ea6:	7e211983          	lh	s3,2018(sp)

0000000080003eaa <i0000000ab5>:
    80003eaa:	0ff0000f          	fence

0000000080003eae <i0000000ab6>:
    80003eae:	0ff0000f          	fence

0000000080003eb2 <i0000000ab7>:
    80003eb2:	c1c15383          	lhu	t2,-996(sp)

0000000080003eb6 <i0000000ab8>:
    80003eb6:	cb812703          	lw	a4,-840(sp)

0000000080003eba <i0000000ab9>:
    80003eba:	7d415503          	lhu	a0,2004(sp)

0000000080003ebe <i0000000aba>:
    80003ebe:	df415803          	lhu	a6,-524(sp)

0000000080003ec2 <i0000000abb>:
    80003ec2:	2f812503          	lw	a0,760(sp)

0000000080003ec6 <i0000000abc>:
    80003ec6:	0000100f          	fence.i

0000000080003eca <i0000000abd>:
    80003eca:	0000100f          	fence.i
    80003ece:	0008d117          	auipc	sp,0x8d
    80003ed2:	13210113          	addi	sp,sp,306 # 80091000 <begin_signature>
    80003ed6:	630d                	lui	t1,0x3
    80003ed8:	4a83031b          	addiw	t1,t1,1192 # 34a8 <_tbss_end+0x34a8>
    80003edc:	911a                	add	sp,sp,t1

0000000080003ede <i0000000abe>:
    80003ede:	8b011423          	sh	a6,-1880(sp)

0000000080003ee2 <i0000000abf>:
    80003ee2:	1ac12a83          	lw	s5,428(sp)

0000000080003ee6 <i0000000ac0>:
    80003ee6:	0000100f          	fence.i

0000000080003eea <i0000000ac1>:
    80003eea:	9a012383          	lw	t2,-1632(sp)

0000000080003eee <i0000000ac2>:
    80003eee:	d6714783          	lbu	a5,-665(sp)

0000000080003ef2 <i0000000ac3>:
    80003ef2:	a7810903          	lb	s2,-1416(sp)
    80003ef6:	0008d117          	auipc	sp,0x8d
    80003efa:	10a10113          	addi	sp,sp,266 # 80091000 <begin_signature>
    80003efe:	630d                	lui	t1,0x3
    80003f00:	0b83031b          	addiw	t1,t1,184 # 30b8 <_tbss_end+0x30b8>
    80003f04:	911a                	add	sp,sp,t1

0000000080003f06 <i0000000ac4>:
    80003f06:	9c012603          	lw	a2,-1600(sp)

0000000080003f0a <i0000000ac5>:
    80003f0a:	6a310ca3          	sb	gp,1721(sp)

0000000080003f0e <i0000000ac6>:
    80003f0e:	dc415803          	lhu	a6,-572(sp)

0000000080003f12 <i0000000ac7>:
    80003f12:	02e10ca3          	sb	a4,57(sp)

0000000080003f16 <i0000000ac8>:
    80003f16:	9f415683          	lhu	a3,-1548(sp)

0000000080003f1a <i0000000ac9>:
    80003f1a:	91012d03          	lw	s10,-1776(sp)
    80003f1e:	0008d117          	auipc	sp,0x8d
    80003f22:	0e210113          	addi	sp,sp,226 # 80091000 <begin_signature>
    80003f26:	6309                	lui	t1,0x2
    80003f28:	8983031b          	addiw	t1,t1,-1896 # 1898 <_tbss_end+0x1898>
    80003f2c:	911a                	add	sp,sp,t1

0000000080003f2e <i0000000aca>:
    80003f2e:	ba811723          	sh	s0,-1106(sp)
    80003f32:	0008d117          	auipc	sp,0x8d
    80003f36:	0ce10113          	addi	sp,sp,206 # 80091000 <begin_signature>
    80003f3a:	630d                	lui	t1,0x3
    80003f3c:	c003031b          	addiw	t1,t1,-1024 # 2c00 <_tbss_end+0x2c00>
    80003f40:	911a                	add	sp,sp,t1

0000000080003f42 <i0000000acb>:
    80003f42:	35510783          	lb	a5,853(sp)

0000000080003f46 <i0000000acc>:
    80003f46:	37912423          	sw	s9,872(sp)

0000000080003f4a <i0000000acd>:
    80003f4a:	0aa15f83          	lhu	t6,170(sp)

0000000080003f4e <i0000000ace>:
    80003f4e:	bb811803          	lh	a6,-1096(sp)

0000000080003f52 <i0000000acf>:
    80003f52:	22614703          	lbu	a4,550(sp)

0000000080003f56 <i0000000ad0>:
    80003f56:	65d10803          	lb	a6,1629(sp)
    80003f5a:	0008d117          	auipc	sp,0x8d
    80003f5e:	0a610113          	addi	sp,sp,166 # 80091000 <begin_signature>
    80003f62:	6305                	lui	t1,0x1
    80003f64:	7083031b          	addiw	t1,t1,1800 # 1708 <_tbss_end+0x1708>
    80003f68:	911a                	add	sp,sp,t1

0000000080003f6a <i0000000ad1>:
    80003f6a:	ebc14803          	lbu	a6,-324(sp)

0000000080003f6e <i0000000ad2>:
    80003f6e:	7c812703          	lw	a4,1992(sp)

0000000080003f72 <i0000000ad3>:
    80003f72:	e6914d03          	lbu	s10,-407(sp)

0000000080003f76 <i0000000ad4>:
    80003f76:	b7010123          	sb	a6,-1182(sp)

0000000080003f7a <i0000000ad5>:
    80003f7a:	fde11783          	lh	a5,-34(sp)
    80003f7e:	0008d117          	auipc	sp,0x8d
    80003f82:	08210113          	addi	sp,sp,130 # 80091000 <begin_signature>
    80003f86:	6305                	lui	t1,0x1
    80003f88:	a403031b          	addiw	t1,t1,-1472 # a40 <_tbss_end+0xa40>
    80003f8c:	911a                	add	sp,sp,t1

0000000080003f8e <i0000000ad6>:
    80003f8e:	76e12423          	sw	a4,1896(sp)

0000000080003f92 <i0000000ad7>:
    80003f92:	b0311f23          	sh	gp,-1250(sp)

0000000080003f96 <i0000000ad8>:
    80003f96:	6d415783          	lhu	a5,1748(sp)

0000000080003f9a <i0000000ad9>:
    80003f9a:	54d12423          	sw	a3,1352(sp)

0000000080003f9e <i0000000ada>:
    80003f9e:	0e911323          	sh	s1,230(sp)

0000000080003fa2 <i0000000adb>:
    80003fa2:	fd811803          	lh	a6,-40(sp)

0000000080003fa6 <i0000000adc>:
    80003fa6:	44c15783          	lhu	a5,1100(sp)

0000000080003faa <i0000000add>:
    80003faa:	b9812583          	lw	a1,-1128(sp)

0000000080003fae <i0000000ade>:
    80003fae:	fec14c03          	lbu	s8,-20(sp)

0000000080003fb2 <i0000000adf>:
    80003fb2:	a2814803          	lbu	a6,-1496(sp)

0000000080003fb6 <i0000000ae0>:
    80003fb6:	9b012c23          	sw	a6,-1608(sp)

0000000080003fba <i0000000ae1>:
    80003fba:	50c15803          	lhu	a6,1292(sp)

0000000080003fbe <i0000000ae2>:
    80003fbe:	4d314f83          	lbu	t6,1235(sp)

0000000080003fc2 <i0000000ae3>:
    80003fc2:	03011803          	lh	a6,48(sp)

0000000080003fc6 <i0000000ae4>:
    80003fc6:	e0c12e23          	sw	a2,-484(sp)

0000000080003fca <i0000000ae5>:
    80003fca:	1f412203          	lw	tp,500(sp)
    80003fce:	0008d117          	auipc	sp,0x8d
    80003fd2:	03210113          	addi	sp,sp,50 # 80091000 <begin_signature>
    80003fd6:	6309                	lui	t1,0x2
    80003fd8:	8b83031b          	addiw	t1,t1,-1864 # 18b8 <_tbss_end+0x18b8>
    80003fdc:	911a                	add	sp,sp,t1

0000000080003fde <i0000000ae6>:
    80003fde:	51910d03          	lb	s10,1305(sp)

0000000080003fe2 <i0000000ae7>:
    80003fe2:	e0e11c23          	sh	a4,-488(sp)

0000000080003fe6 <i0000000ae8>:
    80003fe6:	6a415383          	lhu	t2,1700(sp)

0000000080003fea <i0000000ae9>:
    80003fea:	60110783          	lb	a5,1537(sp)

0000000080003fee <i0000000aea>:
    80003fee:	d6812803          	lw	a6,-664(sp)
    80003ff2:	0008d117          	auipc	sp,0x8d
    80003ff6:	00e10113          	addi	sp,sp,14 # 80091000 <begin_signature>
    80003ffa:	6309                	lui	t1,0x2
    80003ffc:	2683031b          	addiw	t1,t1,616 # 2268 <_tbss_end+0x2268>
    80004000:	911a                	add	sp,sp,t1

0000000080004002 <i0000000aeb>:
    80004002:	d6510523          	sb	t0,-662(sp)

0000000080004006 <i0000000aec>:
    80004006:	66f12423          	sw	a5,1640(sp)

000000008000400a <i0000000aed>:
    8000400a:	a7a10183          	lb	gp,-1414(sp)

000000008000400e <i0000000aee>:
    8000400e:	f0a10683          	lb	a3,-246(sp)

0000000080004012 <i0000000aef>:
    80004012:	3d514783          	lbu	a5,981(sp)
    80004016:	0008d117          	auipc	sp,0x8d
    8000401a:	fea10113          	addi	sp,sp,-22 # 80091000 <begin_signature>
    8000401e:	630d                	lui	t1,0x3
    80004020:	da03031b          	addiw	t1,t1,-608 # 2da0 <_tbss_end+0x2da0>
    80004024:	911a                	add	sp,sp,t1

0000000080004026 <i0000000af0>:
    80004026:	af011c23          	sh	a6,-1288(sp)
    8000402a:	0008d117          	auipc	sp,0x8d
    8000402e:	fd610113          	addi	sp,sp,-42 # 80091000 <begin_signature>
    80004032:	6309                	lui	t1,0x2
    80004034:	5303031b          	addiw	t1,t1,1328 # 2530 <_tbss_end+0x2530>
    80004038:	911a                	add	sp,sp,t1

000000008000403a <i0000000af1>:
    8000403a:	79411703          	lh	a4,1940(sp)

000000008000403e <i0000000af2>:
    8000403e:	3da15803          	lhu	a6,986(sp)

0000000080004042 <i0000000af3>:
    80004042:	f9011423          	sh	a6,-120(sp)
    80004046:	0008d117          	auipc	sp,0x8d
    8000404a:	fba10113          	addi	sp,sp,-70 # 80091000 <begin_signature>
    8000404e:	6305                	lui	t1,0x1
    80004050:	b003031b          	addiw	t1,t1,-1280 # b00 <_tbss_end+0xb00>
    80004054:	911a                	add	sp,sp,t1

0000000080004056 <i0000000af4>:
    80004056:	d0e12423          	sw	a4,-760(sp)

000000008000405a <i0000000af5>:
    8000405a:	50f10703          	lb	a4,1295(sp)
    8000405e:	0008d117          	auipc	sp,0x8d
    80004062:	fa210113          	addi	sp,sp,-94 # 80091000 <begin_signature>
    80004066:	6309                	lui	t1,0x2
    80004068:	2e03031b          	addiw	t1,t1,736 # 22e0 <_tbss_end+0x22e0>
    8000406c:	911a                	add	sp,sp,t1

000000008000406e <i0000000af6>:
    8000406e:	2b011223          	sh	a6,676(sp)

0000000080004072 <i0000000af7>:
    80004072:	26e11823          	sh	a4,624(sp)

0000000080004076 <i0000000af8>:
    80004076:	cb310183          	lb	gp,-845(sp)
    8000407a:	0008d117          	auipc	sp,0x8d
    8000407e:	f8610113          	addi	sp,sp,-122 # 80091000 <begin_signature>
    80004082:	6309                	lui	t1,0x2
    80004084:	2383031b          	addiw	t1,t1,568 # 2238 <_tbss_end+0x2238>
    80004088:	911a                	add	sp,sp,t1

000000008000408a <i0000000af9>:
    8000408a:	80015803          	lhu	a6,-2048(sp)

000000008000408e <i0000000afa>:
    8000408e:	3e011323          	sh	zero,998(sp)

0000000080004092 <i0000000afb>:
    80004092:	3d012623          	sw	a6,972(sp)

0000000080004096 <i0000000afc>:
    80004096:	92114783          	lbu	a5,-1759(sp)
    8000409a:	0008d117          	auipc	sp,0x8d
    8000409e:	f6610113          	addi	sp,sp,-154 # 80091000 <begin_signature>
    800040a2:	6309                	lui	t1,0x2
    800040a4:	f403031b          	addiw	t1,t1,-192 # 1f40 <_tbss_end+0x1f40>
    800040a8:	911a                	add	sp,sp,t1

00000000800040aa <i0000000afd>:
    800040aa:	d2811783          	lh	a5,-728(sp)

00000000800040ae <i0000000afe>:
    800040ae:	64615783          	lhu	a5,1606(sp)

00000000800040b2 <i0000000aff>:
    800040b2:	f2e11a23          	sh	a4,-204(sp)

00000000800040b6 <i0000000b00>:
    800040b6:	a1e10783          	lb	a5,-1506(sp)

00000000800040ba <i0000000b01>:
    800040ba:	e6010803          	lb	a6,-416(sp)

00000000800040be <i0000000b02>:
    800040be:	e8114703          	lbu	a4,-383(sp)

00000000800040c2 <i0000000b03>:
    800040c2:	5cbe                	lw	s9,236(sp)

00000000800040c4 <i0000000b04>:
    800040c4:	d5f14283          	lbu	t0,-673(sp)

00000000800040c8 <i0000000b05>:
    800040c8:	86f12623          	sw	a5,-1940(sp)
    800040cc:	0008d117          	auipc	sp,0x8d
    800040d0:	f3410113          	addi	sp,sp,-204 # 80091000 <begin_signature>
    800040d4:	630d                	lui	t1,0x3
    800040d6:	9e83031b          	addiw	t1,t1,-1560 # 29e8 <_tbss_end+0x29e8>
    800040da:	911a                	add	sp,sp,t1

00000000800040dc <i0000000b06>:
    800040dc:	72f11d23          	sh	a5,1850(sp)

00000000800040e0 <i0000000b07>:
    800040e0:	6ce11723          	sh	a4,1742(sp)
    800040e4:	0008d117          	auipc	sp,0x8d
    800040e8:	f1c10113          	addi	sp,sp,-228 # 80091000 <begin_signature>
    800040ec:	630d                	lui	t1,0x3
    800040ee:	3603031b          	addiw	t1,t1,864 # 3360 <_tbss_end+0x3360>
    800040f2:	911a                	add	sp,sp,t1

00000000800040f4 <i0000000b08>:
    800040f4:	c8211b03          	lh	s6,-894(sp)

00000000800040f8 <i0000000b09>:
    800040f8:	d4012783          	lw	a5,-704(sp)

00000000800040fc <i0000000b0a>:
    800040fc:	e8e12e23          	sw	a4,-356(sp)

0000000080004100 <i0000000b0b>:
    80004100:	d1c15783          	lhu	a5,-740(sp)

0000000080004104 <i0000000b0c>:
    80004104:	5da10703          	lb	a4,1498(sp)
    80004108:	0008d117          	auipc	sp,0x8d
    8000410c:	ef810113          	addi	sp,sp,-264 # 80091000 <begin_signature>
    80004110:	6305                	lui	t1,0x1
    80004112:	0c03031b          	addiw	t1,t1,192 # 10c0 <_tbss_end+0x10c0>
    80004116:	911a                	add	sp,sp,t1

0000000080004118 <i0000000b0d>:
    80004118:	cbe12e23          	sw	t5,-836(sp)

000000008000411c <i0000000b0e>:
    8000411c:	61510603          	lb	a2,1557(sp)
    80004120:	0008d117          	auipc	sp,0x8d
    80004124:	ee010113          	addi	sp,sp,-288 # 80091000 <begin_signature>
    80004128:	630d                	lui	t1,0x3
    8000412a:	ef83031b          	addiw	t1,t1,-264 # 2ef8 <_tbss_end+0x2ef8>
    8000412e:	911a                	add	sp,sp,t1

0000000080004130 <i0000000b0f>:
    80004130:	30f10923          	sb	a5,786(sp)

0000000080004134 <i0000000b10>:
    80004134:	65611523          	sh	s6,1610(sp)

0000000080004138 <i0000000b11>:
    80004138:	50f12c23          	sw	a5,1304(sp)

000000008000413c <i0000000b12>:
    8000413c:	eb614783          	lbu	a5,-330(sp)

0000000080004140 <i0000000b13>:
    80004140:	ace11f23          	sh	a4,-1314(sp)

0000000080004144 <i0000000b14>:
    80004144:	12911423          	sh	s1,296(sp)

0000000080004148 <i0000000b15>:
    80004148:	d3414803          	lbu	a6,-716(sp)

000000008000414c <i0000000b16>:
    8000414c:	41a105a3          	sb	s10,1035(sp)

0000000080004150 <i0000000b17>:
    80004150:	fc210d83          	lb	s11,-62(sp)

0000000080004154 <i0000000b18>:
    80004154:	f3811703          	lh	a4,-200(sp)
    80004158:	0008d117          	auipc	sp,0x8d
    8000415c:	ea810113          	addi	sp,sp,-344 # 80091000 <begin_signature>
    80004160:	6305                	lui	t1,0x1
    80004162:	9503031b          	addiw	t1,t1,-1712 # 950 <_tbss_end+0x950>
    80004166:	911a                	add	sp,sp,t1

0000000080004168 <i0000000b19>:
    80004168:	54611803          	lh	a6,1350(sp)

000000008000416c <i0000000b1a>:
    8000416c:	aa010703          	lb	a4,-1376(sp)

0000000080004170 <i0000000b1b>:
    80004170:	13210703          	lb	a4,306(sp)

0000000080004174 <i0000000b1c>:
    80004174:	89615403          	lhu	s0,-1898(sp)

0000000080004178 <i0000000b1d>:
    80004178:	7f011323          	sh	a6,2022(sp)

000000008000417c <i0000000b1e>:
    8000417c:	cce10223          	sb	a4,-828(sp)

0000000080004180 <i0000000b1f>:
    80004180:	ebb11223          	sh	s11,-348(sp)

0000000080004184 <i0000000b20>:
    80004184:	1df12a23          	sw	t6,468(sp)

0000000080004188 <i0000000b21>:
    80004188:	17010d23          	sb	a6,378(sp)
    8000418c:	0008d117          	auipc	sp,0x8d
    80004190:	e7410113          	addi	sp,sp,-396 # 80091000 <begin_signature>
    80004194:	6305                	lui	t1,0x1
    80004196:	6603031b          	addiw	t1,t1,1632 # 1660 <_tbss_end+0x1660>
    8000419a:	911a                	add	sp,sp,t1

000000008000419c <i0000000b22>:
    8000419c:	76f10ea3          	sb	a5,1917(sp)

00000000800041a0 <i0000000b23>:
    800041a0:	eea15383          	lhu	t2,-278(sp)

00000000800041a4 <i0000000b24>:
    800041a4:	9e611703          	lh	a4,-1562(sp)

00000000800041a8 <i0000000b25>:
    800041a8:	7aa10603          	lb	a2,1962(sp)

00000000800041ac <i0000000b26>:
    800041ac:	e4414203          	lbu	tp,-444(sp)

00000000800041b0 <i0000000b27>:
    800041b0:	9d011003          	lh	zero,-1584(sp)

00000000800041b4 <i0000000b28>:
    800041b4:	2ea15703          	lhu	a4,746(sp)

00000000800041b8 <i0000000b29>:
    800041b8:	81312a23          	sw	s3,-2028(sp)

00000000800041bc <i0000000b2a>:
    800041bc:	c2a11b23          	sh	a0,-970(sp)
    800041c0:	0008d117          	auipc	sp,0x8d
    800041c4:	e4010113          	addi	sp,sp,-448 # 80091000 <begin_signature>
    800041c8:	630d                	lui	t1,0x3
    800041ca:	3983031b          	addiw	t1,t1,920 # 3398 <_tbss_end+0x3398>
    800041ce:	911a                	add	sp,sp,t1

00000000800041d0 <i0000000b2b>:
    800041d0:	94814a03          	lbu	s4,-1720(sp)

00000000800041d4 <i0000000b2c>:
    800041d4:	56f12223          	sw	a5,1380(sp)

00000000800041d8 <i0000000b2d>:
    800041d8:	60711423          	sh	t2,1544(sp)
    800041dc:	0008d117          	auipc	sp,0x8d
    800041e0:	e2410113          	addi	sp,sp,-476 # 80091000 <begin_signature>
    800041e4:	6309                	lui	t1,0x2
    800041e6:	de83031b          	addiw	t1,t1,-536 # 1de8 <_tbss_end+0x1de8>
    800041ea:	911a                	add	sp,sp,t1

00000000800041ec <i0000000b2e>:
    800041ec:	cee12a23          	sw	a4,-780(sp)
    800041f0:	0008d117          	auipc	sp,0x8d
    800041f4:	e1010113          	addi	sp,sp,-496 # 80091000 <begin_signature>
    800041f8:	6305                	lui	t1,0x1
    800041fa:	5983031b          	addiw	t1,t1,1432 # 1598 <_tbss_end+0x1598>
    800041fe:	911a                	add	sp,sp,t1

0000000080004200 <i0000000b2f>:
    80004200:	2d911823          	sh	s9,720(sp)

0000000080004204 <i0000000b30>:
    80004204:	42c15a03          	lhu	s4,1068(sp)
    80004208:	0008d117          	auipc	sp,0x8d
    8000420c:	df810113          	addi	sp,sp,-520 # 80091000 <begin_signature>
    80004210:	6309                	lui	t1,0x2
    80004212:	de83031b          	addiw	t1,t1,-536 # 1de8 <_tbss_end+0x1de8>
    80004216:	911a                	add	sp,sp,t1

0000000080004218 <i0000000b31>:
    80004218:	1e610da3          	sb	t1,507(sp)

000000008000421c <i0000000b32>:
    8000421c:	caa15803          	lhu	a6,-854(sp)

0000000080004220 <i0000000b33>:
    80004220:	12c11883          	lh	a7,300(sp)

0000000080004224 <i0000000b34>:
    80004224:	34d14783          	lbu	a5,845(sp)

0000000080004228 <i0000000b35>:
    80004228:	08411683          	lh	a3,132(sp)

000000008000422c <i0000000b36>:
    8000422c:	9a910b03          	lb	s6,-1623(sp)

0000000080004230 <i0000000b37>:
    80004230:	7d510283          	lb	t0,2005(sp)

0000000080004234 <i0000000b38>:
    80004234:	a8e100a3          	sb	a4,-1407(sp)

0000000080004238 <i0000000b39>:
    80004238:	3e412e23          	sw	tp,1020(sp)

000000008000423c <i0000000b3a>:
    8000423c:	6b812783          	lw	a5,1720(sp)

0000000080004240 <i0000000b3b>:
    80004240:	3c812f03          	lw	t5,968(sp)

0000000080004244 <i0000000b3c>:
    80004244:	6af12423          	sw	a5,1704(sp)

0000000080004248 <i0000000b3d>:
    80004248:	ec811623          	sh	s0,-308(sp)

000000008000424c <i0000000b3e>:
    8000424c:	23215f03          	lhu	t5,562(sp)
    80004250:	0008d117          	auipc	sp,0x8d
    80004254:	db010113          	addi	sp,sp,-592 # 80091000 <begin_signature>
    80004258:	630d                	lui	t1,0x3
    8000425a:	b483031b          	addiw	t1,t1,-1208 # 2b48 <_tbss_end+0x2b48>
    8000425e:	911a                	add	sp,sp,t1

0000000080004260 <i0000000b3f>:
    80004260:	71b11223          	sh	s11,1796(sp)

0000000080004264 <i0000000b40>:
    80004264:	86614d03          	lbu	s10,-1946(sp)

0000000080004268 <i0000000b41>:
    80004268:	81614703          	lbu	a4,-2026(sp)

000000008000426c <i0000000b42>:
    8000426c:	2e011783          	lh	a5,736(sp)

0000000080004270 <i0000000b43>:
    80004270:	a0e12823          	sw	a4,-1520(sp)

0000000080004274 <i0000000b44>:
    80004274:	f4911923          	sh	s1,-174(sp)

0000000080004278 <i0000000b45>:
    80004278:	b1e11203          	lh	tp,-1250(sp)

000000008000427c <i0000000b46>:
    8000427c:	9b611d23          	sh	s6,-1606(sp)

0000000080004280 <i0000000b47>:
    80004280:	9ee11803          	lh	a6,-1554(sp)

0000000080004284 <i0000000b48>:
    80004284:	ada11d23          	sh	s10,-1318(sp)

0000000080004288 <i0000000b49>:
    80004288:	ace10ea3          	sb	a4,-1315(sp)
    8000428c:	0008d117          	auipc	sp,0x8d
    80004290:	d7410113          	addi	sp,sp,-652 # 80091000 <begin_signature>
    80004294:	630d                	lui	t1,0x3
    80004296:	6e03031b          	addiw	t1,t1,1760 # 36e0 <_tbss_end+0x36e0>
    8000429a:	911a                	add	sp,sp,t1

000000008000429c <i0000000b4a>:
    8000429c:	3d212e23          	sw	s2,988(sp)

00000000800042a0 <i0000000b4b>:
    800042a0:	b4e12023          	sw	a4,-1216(sp)
    800042a4:	0008d117          	auipc	sp,0x8d
    800042a8:	d5c10113          	addi	sp,sp,-676 # 80091000 <begin_signature>
    800042ac:	6309                	lui	t1,0x2
    800042ae:	7103031b          	addiw	t1,t1,1808 # 2710 <_tbss_end+0x2710>
    800042b2:	911a                	add	sp,sp,t1

00000000800042b4 <i0000000b4c>:
    800042b4:	f9412203          	lw	tp,-108(sp)

00000000800042b8 <i0000000b4d>:
    800042b8:	12e12c23          	sw	a4,312(sp)
    800042bc:	0008d117          	auipc	sp,0x8d
    800042c0:	d4410113          	addi	sp,sp,-700 # 80091000 <begin_signature>
    800042c4:	630d                	lui	t1,0x3
    800042c6:	3e83031b          	addiw	t1,t1,1000 # 33e8 <_tbss_end+0x33e8>
    800042ca:	911a                	add	sp,sp,t1

00000000800042cc <i0000000b4e>:
    800042cc:	51611c03          	lh	s8,1302(sp)

00000000800042d0 <i0000000b4f>:
    800042d0:	f5014c83          	lbu	s9,-176(sp)

00000000800042d4 <i0000000b50>:
    800042d4:	8ea11703          	lh	a4,-1814(sp)
    800042d8:	0008d117          	auipc	sp,0x8d
    800042dc:	d2810113          	addi	sp,sp,-728 # 80091000 <begin_signature>
    800042e0:	630d                	lui	t1,0x3
    800042e2:	7f83031b          	addiw	t1,t1,2040 # 37f8 <_tbss_end+0x37f8>
    800042e6:	911a                	add	sp,sp,t1

00000000800042e8 <i0000000b51>:
    800042e8:	37614183          	lbu	gp,886(sp)

00000000800042ec <i0000000b52>:
    800042ec:	cd815703          	lhu	a4,-808(sp)

00000000800042f0 <i0000000b53>:
    800042f0:	a3012283          	lw	t0,-1488(sp)

00000000800042f4 <i0000000b54>:
    800042f4:	0ca15183          	lhu	gp,202(sp)

00000000800042f8 <i0000000b55>:
    800042f8:	08711a23          	sh	t2,148(sp)
    800042fc:	0008d117          	auipc	sp,0x8d
    80004300:	d0410113          	addi	sp,sp,-764 # 80091000 <begin_signature>
    80004304:	630d                	lui	t1,0x3
    80004306:	8203031b          	addiw	t1,t1,-2016 # 2820 <_tbss_end+0x2820>
    8000430a:	911a                	add	sp,sp,t1

000000008000430c <i0000000b56>:
    8000430c:	94812803          	lw	a6,-1720(sp)

0000000080004310 <i0000000b57>:
    80004310:	17011723          	sh	a6,366(sp)

0000000080004314 <i0000000b58>:
    80004314:	e6e12623          	sw	a4,-404(sp)

0000000080004318 <i0000000b59>:
    80004318:	86c15803          	lhu	a6,-1940(sp)
    8000431c:	0008d117          	auipc	sp,0x8d
    80004320:	ce410113          	addi	sp,sp,-796 # 80091000 <begin_signature>
    80004324:	6309                	lui	t1,0x2
    80004326:	2e83031b          	addiw	t1,t1,744 # 22e8 <_tbss_end+0x22e8>
    8000432a:	911a                	add	sp,sp,t1

000000008000432c <i0000000b5a>:
    8000432c:	a6411783          	lh	a5,-1436(sp)

0000000080004330 <i0000000b5b>:
    80004330:	8fe14603          	lbu	a2,-1794(sp)

0000000080004334 <i0000000b5c>:
    80004334:	dee12423          	sw	a4,-536(sp)
    80004338:	0008d117          	auipc	sp,0x8d
    8000433c:	cc810113          	addi	sp,sp,-824 # 80091000 <begin_signature>
    80004340:	630d                	lui	t1,0x3
    80004342:	9f83031b          	addiw	t1,t1,-1544 # 29f8 <_tbss_end+0x29f8>
    80004346:	911a                	add	sp,sp,t1

0000000080004348 <i0000000b5d>:
    80004348:	49c10803          	lb	a6,1180(sp)

000000008000434c <i0000000b5e>:
    8000434c:	c5814c03          	lbu	s8,-936(sp)

0000000080004350 <i0000000b5f>:
    80004350:	af015983          	lhu	s3,-1296(sp)
    80004354:	0008d117          	auipc	sp,0x8d
    80004358:	cac10113          	addi	sp,sp,-852 # 80091000 <begin_signature>
    8000435c:	6305                	lui	t1,0x1
    8000435e:	8103031b          	addiw	t1,t1,-2032 # 810 <_tbss_end+0x810>
    80004362:	911a                	add	sp,sp,t1

0000000080004364 <i0000000b60>:
    80004364:	4ec15503          	lhu	a0,1260(sp)

0000000080004368 <i0000000b61>:
    80004368:	70610223          	sb	t1,1796(sp)

000000008000436c <i0000000b62>:
    8000436c:	dd811623          	sh	s8,-564(sp)

0000000080004370 <i0000000b63>:
    80004370:	9e812803          	lw	a6,-1560(sp)

0000000080004374 <i0000000b64>:
    80004374:	a5012a83          	lw	s5,-1456(sp)

0000000080004378 <i0000000b65>:
    80004378:	a3812783          	lw	a5,-1480(sp)
    8000437c:	0008d117          	auipc	sp,0x8d
    80004380:	c8410113          	addi	sp,sp,-892 # 80091000 <begin_signature>
    80004384:	6309                	lui	t1,0x2
    80004386:	6183031b          	addiw	t1,t1,1560 # 2618 <_tbss_end+0x2618>
    8000438a:	911a                	add	sp,sp,t1

000000008000438c <i0000000b66>:
    8000438c:	9de15703          	lhu	a4,-1570(sp)

0000000080004390 <i0000000b67>:
    80004390:	a9011a23          	sh	a6,-1388(sp)

0000000080004394 <i0000000b68>:
    80004394:	13615b83          	lhu	s7,310(sp)

0000000080004398 <i0000000b69>:
    80004398:	ca812803          	lw	a6,-856(sp)

000000008000439c <i0000000b6a>:
    8000439c:	f8110c83          	lb	s9,-127(sp)

00000000800043a0 <i0000000b6b>:
    800043a0:	30412703          	lw	a4,772(sp)
    800043a4:	0008d117          	auipc	sp,0x8d
    800043a8:	c5c10113          	addi	sp,sp,-932 # 80091000 <begin_signature>
    800043ac:	6305                	lui	t1,0x1
    800043ae:	0403031b          	addiw	t1,t1,64 # 1040 <_tbss_end+0x1040>
    800043b2:	911a                	add	sp,sp,t1

00000000800043b4 <i0000000b6c>:
    800043b4:	14011783          	lh	a5,320(sp)

00000000800043b8 <i0000000b6d>:
    800043b8:	63a11923          	sh	s10,1586(sp)

00000000800043bc <i0000000b6e>:
    800043bc:	2ae12623          	sw	a4,684(sp)

00000000800043c0 <i0000000b6f>:
    800043c0:	a1e12823          	sw	t5,-1520(sp)

00000000800043c4 <i0000000b70>:
    800043c4:	c1d12a23          	sw	t4,-1004(sp)

00000000800043c8 <i0000000b71>:
    800043c8:	80710c83          	lb	s9,-2041(sp)

00000000800043cc <i0000000b72>:
    800043cc:	f35100a3          	sb	s5,-223(sp)
    800043d0:	0008d117          	auipc	sp,0x8d
    800043d4:	c3010113          	addi	sp,sp,-976 # 80091000 <begin_signature>
    800043d8:	6305                	lui	t1,0x1
    800043da:	6d83031b          	addiw	t1,t1,1752 # 16d8 <_tbss_end+0x16d8>
    800043de:	911a                	add	sp,sp,t1

00000000800043e0 <i0000000b73>:
    800043e0:	8b0100a3          	sb	a6,-1887(sp)

00000000800043e4 <i0000000b74>:
    800043e4:	72c12d83          	lw	s11,1836(sp)

00000000800043e8 <i0000000b75>:
    800043e8:	97210da3          	sb	s2,-1669(sp)

00000000800043ec <i0000000b76>:
    800043ec:	c0f11e23          	sh	a5,-996(sp)

00000000800043f0 <i0000000b77>:
    800043f0:	aaf12e23          	sw	a5,-1348(sp)

00000000800043f4 <i0000000b78>:
    800043f4:	23912423          	sw	s9,552(sp)

00000000800043f8 <i0000000b79>:
    800043f8:	52011783          	lh	a5,1312(sp)
    800043fc:	0008d117          	auipc	sp,0x8d
    80004400:	c0410113          	addi	sp,sp,-1020 # 80091000 <begin_signature>
    80004404:	6305                	lui	t1,0x1
    80004406:	3603031b          	addiw	t1,t1,864 # 1360 <_tbss_end+0x1360>
    8000440a:	911a                	add	sp,sp,t1

000000008000440c <i0000000b7a>:
    8000440c:	5dc11803          	lh	a6,1500(sp)

0000000080004410 <i0000000b7b>:
    80004410:	24f10423          	sb	a5,584(sp)
    80004414:	0008d117          	auipc	sp,0x8d
    80004418:	bec10113          	addi	sp,sp,-1044 # 80091000 <begin_signature>
    8000441c:	630d                	lui	t1,0x3
    8000441e:	a003031b          	addiw	t1,t1,-1536 # 2a00 <_tbss_end+0x2a00>
    80004422:	911a                	add	sp,sp,t1

0000000080004424 <i0000000b7c>:
    80004424:	550101a3          	sb	a6,1347(sp)

0000000080004428 <i0000000b7d>:
    80004428:	95812803          	lw	a6,-1704(sp)

000000008000442c <i0000000b7e>:
    8000442c:	99411803          	lh	a6,-1644(sp)
    80004430:	0008d117          	auipc	sp,0x8d
    80004434:	bd010113          	addi	sp,sp,-1072 # 80091000 <begin_signature>
    80004438:	6309                	lui	t1,0x2
    8000443a:	6383031b          	addiw	t1,t1,1592 # 2638 <_tbss_end+0x2638>
    8000443e:	911a                	add	sp,sp,t1

0000000080004440 <i0000000b7f>:
    80004440:	08914503          	lbu	a0,137(sp)
    80004444:	0008d117          	auipc	sp,0x8d
    80004448:	bbc10113          	addi	sp,sp,-1092 # 80091000 <begin_signature>
    8000444c:	6309                	lui	t1,0x2
    8000444e:	dc83031b          	addiw	t1,t1,-568 # 1dc8 <_tbss_end+0x1dc8>
    80004452:	911a                	add	sp,sp,t1

0000000080004454 <i0000000b80>:
    80004454:	26812803          	lw	a6,616(sp)
    80004458:	0008d117          	auipc	sp,0x8d
    8000445c:	ba810113          	addi	sp,sp,-1112 # 80091000 <begin_signature>
    80004460:	6305                	lui	t1,0x1
    80004462:	3d83031b          	addiw	t1,t1,984 # 13d8 <_tbss_end+0x13d8>
    80004466:	911a                	add	sp,sp,t1

0000000080004468 <i0000000b81>:
    80004468:	df914703          	lbu	a4,-519(sp)
    8000446c:	0008d117          	auipc	sp,0x8d
    80004470:	b9410113          	addi	sp,sp,-1132 # 80091000 <begin_signature>
    80004474:	630d                	lui	t1,0x3
    80004476:	2b03031b          	addiw	t1,t1,688 # 32b0 <_tbss_end+0x32b0>
    8000447a:	911a                	add	sp,sp,t1

000000008000447c <i0000000b82>:
    8000447c:	8cd11223          	sh	a3,-1852(sp)

0000000080004480 <i0000000b83>:
    80004480:	84e12e23          	sw	a4,-1956(sp)

0000000080004484 <i0000000b84>:
    80004484:	76412803          	lw	a6,1892(sp)
    80004488:	0008d117          	auipc	sp,0x8d
    8000448c:	b7810113          	addi	sp,sp,-1160 # 80091000 <begin_signature>
    80004490:	6305                	lui	t1,0x1
    80004492:	4483031b          	addiw	t1,t1,1096 # 1448 <_tbss_end+0x1448>
    80004496:	911a                	add	sp,sp,t1

0000000080004498 <i0000000b85>:
    80004498:	56c14803          	lbu	a6,1388(sp)
    8000449c:	0008d117          	auipc	sp,0x8d
    800044a0:	b6410113          	addi	sp,sp,-1180 # 80091000 <begin_signature>
    800044a4:	6305                	lui	t1,0x1
    800044a6:	2f03031b          	addiw	t1,t1,752 # 12f0 <_tbss_end+0x12f0>
    800044aa:	911a                	add	sp,sp,t1

00000000800044ac <i0000000b86>:
    800044ac:	7f110d03          	lb	s10,2033(sp)

00000000800044b0 <i0000000b87>:
    800044b0:	40610aa3          	sb	t1,1045(sp)
    800044b4:	0008d117          	auipc	sp,0x8d
    800044b8:	b4c10113          	addi	sp,sp,-1204 # 80091000 <begin_signature>
    800044bc:	6305                	lui	t1,0x1
    800044be:	fa83031b          	addiw	t1,t1,-88 # fa8 <_tbss_end+0xfa8>
    800044c2:	911a                	add	sp,sp,t1

00000000800044c4 <i0000000b88>:
    800044c4:	1ec11b83          	lh	s7,492(sp)
    800044c8:	0008d117          	auipc	sp,0x8d
    800044cc:	b3810113          	addi	sp,sp,-1224 # 80091000 <begin_signature>
    800044d0:	630d                	lui	t1,0x3
    800044d2:	2e03031b          	addiw	t1,t1,736 # 32e0 <_tbss_end+0x32e0>
    800044d6:	911a                	add	sp,sp,t1

00000000800044d8 <i0000000b89>:
    800044d8:	01011923          	sh	a6,18(sp)

00000000800044dc <i0000000b8a>:
    800044dc:	73012a23          	sw	a6,1844(sp)

00000000800044e0 <i0000000b8b>:
    800044e0:	89815703          	lhu	a4,-1896(sp)

00000000800044e4 <i0000000b8c>:
    800044e4:	76312423          	sw	gp,1896(sp)
    800044e8:	0008d117          	auipc	sp,0x8d
    800044ec:	b1810113          	addi	sp,sp,-1256 # 80091000 <begin_signature>
    800044f0:	630d                	lui	t1,0x3
    800044f2:	da83031b          	addiw	t1,t1,-600 # 2da8 <_tbss_end+0x2da8>
    800044f6:	911a                	add	sp,sp,t1

00000000800044f8 <i0000000b8d>:
    800044f8:	c2b14483          	lbu	s1,-981(sp)

00000000800044fc <i0000000b8e>:
    800044fc:	40812783          	lw	a5,1032(sp)

0000000080004500 <i0000000b8f>:
    80004500:	f7412503          	lw	a0,-140(sp)
    80004504:	0008d117          	auipc	sp,0x8d
    80004508:	afc10113          	addi	sp,sp,-1284 # 80091000 <begin_signature>
    8000450c:	6305                	lui	t1,0x1
    8000450e:	5003031b          	addiw	t1,t1,1280 # 1500 <_tbss_end+0x1500>
    80004512:	911a                	add	sp,sp,t1

0000000080004514 <i0000000b90>:
    80004514:	98410803          	lb	a6,-1660(sp)

0000000080004518 <i0000000b91>:
    80004518:	29211a83          	lh	s5,658(sp)

000000008000451c <i0000000b92>:
    8000451c:	fc812983          	lw	s3,-56(sp)
    80004520:	0008d117          	auipc	sp,0x8d
    80004524:	ae010113          	addi	sp,sp,-1312 # 80091000 <begin_signature>
    80004528:	6305                	lui	t1,0x1
    8000452a:	6e03031b          	addiw	t1,t1,1760 # 16e0 <_tbss_end+0x16e0>
    8000452e:	911a                	add	sp,sp,t1

0000000080004530 <i0000000b93>:
    80004530:	e7710683          	lb	a3,-393(sp)

0000000080004534 <i0000000b94>:
    80004534:	6a012e83          	lw	t4,1696(sp)

0000000080004538 <i0000000b95>:
    80004538:	47b14803          	lbu	a6,1147(sp)

000000008000453c <i0000000b96>:
    8000453c:	60f108a3          	sb	a5,1553(sp)

0000000080004540 <i0000000b97>:
    80004540:	34a11f03          	lh	t5,842(sp)
    80004544:	0008d117          	auipc	sp,0x8d
    80004548:	abc10113          	addi	sp,sp,-1348 # 80091000 <begin_signature>
    8000454c:	6305                	lui	t1,0x1
    8000454e:	8903031b          	addiw	t1,t1,-1904 # 890 <_tbss_end+0x890>
    80004552:	911a                	add	sp,sp,t1

0000000080004554 <i0000000b98>:
    80004554:	69215f83          	lhu	t6,1682(sp)

0000000080004558 <i0000000b99>:
    80004558:	0ed10703          	lb	a4,237(sp)

000000008000455c <i0000000b9a>:
    8000455c:	1f412783          	lw	a5,500(sp)
    80004560:	0008d117          	auipc	sp,0x8d
    80004564:	aa010113          	addi	sp,sp,-1376 # 80091000 <begin_signature>
    80004568:	6309                	lui	t1,0x2
    8000456a:	d983031b          	addiw	t1,t1,-616 # 1d98 <_tbss_end+0x1d98>
    8000456e:	911a                	add	sp,sp,t1

0000000080004570 <i0000000b9b>:
    80004570:	a6811803          	lh	a6,-1432(sp)

0000000080004574 <i0000000b9c>:
    80004574:	1b311f23          	sh	s3,446(sp)

0000000080004578 <i0000000b9d>:
    80004578:	b0c15703          	lhu	a4,-1268(sp)

000000008000457c <i0000000b9e>:
    8000457c:	9b012423          	sw	a6,-1624(sp)

0000000080004580 <i0000000b9f>:
    80004580:	f2a14803          	lbu	a6,-214(sp)

0000000080004584 <i0000000ba0>:
    80004584:	43a15d83          	lhu	s11,1082(sp)

0000000080004588 <i0000000ba1>:
    80004588:	f0412203          	lw	tp,-252(sp)

000000008000458c <i0000000ba2>:
    8000458c:	12514703          	lbu	a4,293(sp)

0000000080004590 <i0000000ba3>:
    80004590:	5a615d03          	lhu	s10,1446(sp)

0000000080004594 <i0000000ba4>:
    80004594:	d7c2                	sw	a6,236(sp)

0000000080004596 <i0000000ba5>:
    80004596:	60b14e03          	lbu	t3,1547(sp)

000000008000459a <i0000000ba6>:
    8000459a:	ebd14703          	lbu	a4,-323(sp)

000000008000459e <i0000000ba7>:
    8000459e:	ad012a23          	sw	a6,-1324(sp)

00000000800045a2 <i0000000ba8>:
    800045a2:	d9011623          	sh	a6,-628(sp)

00000000800045a6 <i0000000ba9>:
    800045a6:	d6b10483          	lb	s1,-661(sp)
    800045aa:	0008d117          	auipc	sp,0x8d
    800045ae:	a5610113          	addi	sp,sp,-1450 # 80091000 <begin_signature>
    800045b2:	6305                	lui	t1,0x1
    800045b4:	e283031b          	addiw	t1,t1,-472 # e28 <_tbss_end+0xe28>
    800045b8:	911a                	add	sp,sp,t1

00000000800045ba <i0000000baa>:
    800045ba:	01c15583          	lhu	a1,28(sp)

00000000800045be <i0000000bab>:
    800045be:	21c15783          	lhu	a5,540(sp)

00000000800045c2 <i0000000bac>:
    800045c2:	d7011323          	sh	a6,-666(sp)
    800045c6:	0008d117          	auipc	sp,0x8d
    800045ca:	a3a10113          	addi	sp,sp,-1478 # 80091000 <begin_signature>
    800045ce:	6305                	lui	t1,0x1
    800045d0:	8b03031b          	addiw	t1,t1,-1872 # 8b0 <_tbss_end+0x8b0>
    800045d4:	911a                	add	sp,sp,t1

00000000800045d6 <i0000000bad>:
    800045d6:	aac11a83          	lh	s5,-1364(sp)

00000000800045da <i0000000bae>:
    800045da:	e5011783          	lh	a5,-432(sp)

00000000800045de <i0000000baf>:
    800045de:	5f714783          	lbu	a5,1527(sp)

00000000800045e2 <i0000000bb0>:
    800045e2:	08e108a3          	sb	a4,145(sp)

00000000800045e6 <i0000000bb1>:
    800045e6:	31a10783          	lb	a5,794(sp)
    800045ea:	0008d117          	auipc	sp,0x8d
    800045ee:	a1610113          	addi	sp,sp,-1514 # 80091000 <begin_signature>
    800045f2:	6305                	lui	t1,0x1
    800045f4:	7483031b          	addiw	t1,t1,1864 # 1748 <_tbss_end+0x1748>
    800045f8:	911a                	add	sp,sp,t1

00000000800045fa <i0000000bb2>:
    800045fa:	da812623          	sw	s0,-596(sp)

00000000800045fe <i0000000bb3>:
    800045fe:	48812703          	lw	a4,1160(sp)

0000000080004602 <i0000000bb4>:
    80004602:	76211883          	lh	a7,1890(sp)

0000000080004606 <i0000000bb5>:
    80004606:	4d811683          	lh	a3,1240(sp)

000000008000460a <i0000000bb6>:
    8000460a:	04d11323          	sh	a3,70(sp)
    8000460e:	0008d117          	auipc	sp,0x8d
    80004612:	9f210113          	addi	sp,sp,-1550 # 80091000 <begin_signature>
    80004616:	6305                	lui	t1,0x1
    80004618:	3603031b          	addiw	t1,t1,864 # 1360 <_tbss_end+0x1360>
    8000461c:	911a                	add	sp,sp,t1

000000008000461e <i0000000bb7>:
    8000461e:	b2412623          	sw	tp,-1236(sp)

0000000080004622 <i0000000bb8>:
    80004622:	33011623          	sh	a6,812(sp)
    80004626:	00000033          	add	zero,zero,zero
    8000462a:	a009                	j	8000462c <write_tohost>

000000008000462c <write_tohost>:
    8000462c:	4f05                	li	t5,1
    8000462e:	00094e97          	auipc	t4,0x94
    80004632:	9deea923          	sw	t5,-1582(t4) # 80098000 <tohost>

0000000080004636 <label>:
    80004636:	a001                	j	80004636 <label>

Disassembly of section .tohost:

0000000080098000 <tohost>:
	...

0000000080098040 <fromhost>:
	...

0000000080098050 <ecause_num>:
	...

Disassembly of section .riscv.attributes:

0000000000000000 <.riscv.attributes>:
   0:	6741                	lui	a4,0x10
   2:	0000                	unimp
   4:	7200                	ld	s0,32(a2)
   6:	7369                	lui	t1,0xffffa
   8:	01007663          	bgeu	zero,a6,14 <_tbss_end+0x14>
   c:	005d                	c.nop	23
   e:	0000                	unimp
  10:	7205                	lui	tp,0xfffe1
  12:	3676                	fld	fa2,376(sp)
  14:	6934                	ld	a3,80(a0)
  16:	7032                	.insn	2, 0x7032
  18:	5f31                	li	t5,-20
  1a:	326d                	addiw	tp,tp,-5 # fffffffffffe0ffb <_end+0xffffffff7ff48597>
  1c:	3070                	fld	fa2,224(s0)
  1e:	615f 7032 5f31      	.insn	6, 0x5f317032615f
  24:	3266                	fld	ft4,120(sp)
  26:	3270                	fld	fa2,224(a2)
  28:	645f 7032 5f32      	.insn	6, 0x5f327032645f
  2e:	30703263          	.insn	4, 0x30703263
  32:	7a5f 6369 7273      	.insn	6, 0x727363697a5f
  38:	7032                	.insn	2, 0x7032
  3a:	5f30                	lw	a2,120(a4)
  3c:	697a                	ld	s2,408(sp)
  3e:	6566                	ld	a0,88(sp)
  40:	636e                	ld	t1,216(sp)
  42:	6965                	lui	s2,0x19
  44:	7032                	.insn	2, 0x7032
  46:	5f30                	lw	a2,120(a4)
  48:	6d7a                	ld	s10,408(sp)
  4a:	756d                	lui	a0,0xffffb
  4c:	316c                	fld	fa1,224(a0)
  4e:	3070                	fld	fa2,224(s0)
  50:	7a5f 6161 6f6d      	.insn	6, 0x6f6d61617a5f
  56:	7031                	c.lui	zero,0xfffec
  58:	5f30                	lw	a2,120(a4)
  5a:	617a                	ld	sp,408(sp)
  5c:	726c                	ld	a1,224(a2)
  5e:	70316373          	csrrsi	t1,0x703,2
  62:	0030                	addi	a2,sp,8
  64:	0108                	addi	a0,sp,128
  66:	0b0a                	slli	s6,s6,0x2

Disassembly of section .data:

0000000080091000 <begin_signature>:
    80091000:	efc8                	sd	a0,152(a5)
    80091002:	418d                	li	gp,3
    80091004:	1ed9                	addi	t4,t4,-10
    80091006:	d7e96e43          	.insn	4, 0xd7e96e43
    8009100a:	c200                	sw	s0,0(a2)
    8009100c:	9172                	add	sp,sp,t3
    8009100e:	0b24                	addi	s1,sp,408
    80091010:	d8c3b1fb          	.insn	4, 0xd8c3b1fb
    80091014:	a449                	j	80091296 <begin_signature+0x296>
    80091016:	7e2a                	ld	t3,168(sp)
    80091018:	859d                	srai	a1,a1,0x7
    8009101a:	d56396db          	.insn	4, 0xd56396db
    8009101e:	20c1                	addiw	ra,ra,16
    80091020:	c4b6                	sw	a3,72(sp)
    80091022:	acb6                	fsd	fa3,88(sp)
    80091024:	679d8aaf          	.insn	4, 0x679d8aaf
    80091028:	f102                	sd	zero,160(sp)
    8009102a:	41ec                	lw	a1,68(a1)
    8009102c:	eb19                	bnez	a4,80091042 <begin_signature+0x42>
    8009102e:	3fe6                	fld	ft11,120(sp)
    80091030:	9d06                	add	s10,s10,ra
    80091032:	85d05d37          	lui	s10,0x85d05
    80091036:	aec163e7          	.insn	4, 0xaec163e7
    8009103a:	e25f 6c8d 1623      	.insn	6, 0x16236c8de25f
    80091040:	d914                	sw	a3,48(a0)
    80091042:	1e58                	addi	a4,sp,820
    80091044:	1968                	addi	a0,sp,188
    80091046:	0129                	addi	sp,sp,10
    80091048:	1d40                	addi	s0,sp,692
    8009104a:	49cc                	lw	a1,20(a1)
    8009104c:	aa25                	j	80091184 <begin_signature+0x184>
    8009104e:	48f34933          	.insn	4, 0x48f34933
    80091052:	bdb9                	j	80090eb0 <label+0x8c87a>
    80091054:	eb91                	bnez	a5,80091068 <begin_signature+0x68>
    80091056:	2419                	addiw	s0,s0,6
    80091058:	dd6d9a0b          	.insn	4, 0xdd6d9a0b
    8009105c:	a2ba                	fsd	fa4,320(sp)
    8009105e:	1ce2                	slli	s9,s9,0x38
    80091060:	b881d06b          	.insn	4, 0xb881d06b
    80091064:	a2c0                	fsd	fs0,128(a3)
    80091066:	42a5                	li	t0,9
    80091068:	a155                	j	8009150c <begin_signature+0x50c>
    8009106a:	bedc                	fsd	fa5,184(a3)
    8009106c:	197c                	addi	a5,sp,188
    8009106e:	5b9c                	lw	a5,48(a5)
    80091070:	c7f8                	sw	a4,76(a5)
    80091072:	8732d3b7          	lui	t2,0x8732d
    80091076:	1012                	c.slli	zero,0x24
    80091078:	40ba                	lw	ra,140(sp)
    8009107a:	5ffc                	lw	a5,124(a5)
    8009107c:	2121                	addiw	sp,sp,8
    8009107e:	42c5                	li	t0,17
    80091080:	bd8b5a03          	lhu	s4,-1064(s6)
    80091084:	11de                	slli	gp,gp,0x37
    80091086:	50ea                	lw	ra,184(sp)
    80091088:	6a6a                	ld	s4,152(sp)
    8009108a:	48b9                	li	a7,14
    8009108c:	586944fb          	.insn	4, 0x586944fb
    80091090:	0150                	addi	a2,sp,132
    80091092:	60a9                	lui	ra,0xa
    80091094:	2b80                	fld	fs0,16(a5)
    80091096:	27c8                	fld	fa0,136(a5)
    80091098:	fc59                	bnez	s0,80091036 <begin_signature+0x36>
    8009109a:	36ec                	fld	fa1,232(a3)
    8009109c:	5067dc7b          	.insn	4, 0x5067dc7b
    800910a0:	42ee                	lw	t0,216(sp)
    800910a2:	8610                	.insn	2, 0x8610
    800910a4:	0a0d                	addi	s4,s4,3
    800910a6:	f86414a7          	.insn	4, 0xf86414a7
    800910aa:	3b50                	fld	fa2,176(a4)
    800910ac:	e450                	sd	a2,136(s0)
    800910ae:	4564                	lw	s1,76(a0)
    800910b0:	b8b5                	j	8009092c <label+0x8c2f6>
    800910b2:	5f45                	li	t5,-15
    800910b4:	7a653a6f          	jal	s4,800e485a <_end+0x4bdf6>
    800910b8:	20a6                	fld	ft1,72(sp)
    800910ba:	9f85                	subw	a5,a5,s1
    800910bc:	6c2d                	lui	s8,0xb
    800910be:	0c8c                	addi	a1,sp,592
    800910c0:	ead1                	bnez	a3,80091154 <begin_signature+0x154>
    800910c2:	a229                	j	800911cc <begin_signature+0x1cc>
    800910c4:	6c85fd83          	.insn	4, 0x6c85fd83
    800910c8:	f52c                	sd	a1,104(a0)
    800910ca:	04710163          	beq	sp,t2,8009110c <begin_signature+0x10c>
    800910ce:	6154                	ld	a3,128(a0)
    800910d0:	2da2                	fld	fs11,8(sp)
    800910d2:	e5791a97          	auipc	s5,0xe5791
    800910d6:	4fba                	lw	t6,140(sp)
    800910d8:	ebbd                	bnez	a5,8009114e <begin_signature+0x14e>
    800910da:	4ae42743          	fmadd.d	fa4,fs0,fa4,fs1,rdn
    800910de:	6b8d                	lui	s7,0x3
    800910e0:	b638                	fsd	fa4,104(a2)
    800910e2:	5be5                	li	s7,-7
    800910e4:	972c                	.insn	2, 0x972c
    800910e6:	1619                	addi	a2,a2,-26
    800910e8:	a8a5                	j	80091160 <begin_signature+0x160>
    800910ea:	fd7f                	.insn	2, 0xfd7f
    800910ec:	6001                	.insn	2, 0x6001
    800910ee:	5e71                	li	t3,-4
    800910f0:	29a070a3          	.insn	4, 0x29a070a3
    800910f4:	06e71b97          	auipc	s7,0x6e71
    800910f8:	7174                	ld	a3,224(a0)
    800910fa:	f1d8                	sd	a4,160(a1)
    800910fc:	73bd                	lui	t2,0xfffef
    800910fe:	24b0                	fld	fa2,72(s1)
    80091100:	7544                	ld	s1,168(a0)
    80091102:	14bc                	addi	a5,sp,616
    80091104:	6da44053          	.insn	4, 0x6da44053
    80091108:	39da                	fld	fs3,432(sp)
    8009110a:	5c139347          	.insn	4, 0x5c139347
    8009110e:	6146                	ld	sp,80(sp)
    80091110:	e40a                	sd	sp,8(sp)
    80091112:	2a55                	addiw	s4,s4,21
    80091114:	651f 6ccd abb3      	.insn	6, 0xabb36ccd651f
    8009111a:	0d7d                	addi	s10,s10,31 # ffffffff85d0501f <_end+0xffffffff05c6c5bb>
    8009111c:	c801                	beqz	s0,8009112c <begin_signature+0x12c>
    8009111e:	3a5f 52e3 93c5      	.insn	6, 0x93c552e33a5f
    80091124:	0a45f3ab          	.insn	4, 0x0a45f3ab
    80091128:	0c0e                	slli	s8,s8,0x3
    8009112a:	735e                	ld	t1,496(sp)
    8009112c:	ad4c                	fsd	fa1,152(a0)
    8009112e:	4102                	lw	sp,0(sp)
    80091130:	16376dd3          	.insn	4, 0x16376dd3
    80091134:	dfa5                	beqz	a5,800910ac <begin_signature+0xac>
    80091136:	500a                	.insn	2, 0x500a
    80091138:	f78e                	sd	gp,488(sp)
    8009113a:	b8b1                	j	80090996 <label+0x8c360>
    8009113c:	49430b7b          	.insn	4, 0x49430b7b
    80091140:	16cc                	addi	a1,sp,868
    80091142:	c60d8e03          	lb	t3,-928(s11)
    80091146:	24ce                	fld	fs1,208(sp)
    80091148:	d47a8da7          	.insn	4, 0xd47a8da7
    8009114c:	6184                	ld	s1,0(a1)
    8009114e:	44f9                	li	s1,30
    80091150:	ea09                	bnez	a2,80091162 <begin_signature+0x162>
    80091152:	2778                	fld	fa4,200(a4)
    80091154:	812d                	srli	a0,a0,0xb
    80091156:	d5d41113          	.insn	4, 0xd5d41113
    8009115a:	427c                	lw	a5,68(a2)
    8009115c:	4afca277          	.insn	4, 0x4afca277
    80091160:	bc4e                	fsd	fs3,56(sp)
    80091162:	fb108813          	addi	a6,ra,-79 # 9fb1 <_tbss_end+0x9fb1>
    80091166:	4a5e                	lw	s4,212(sp)
    80091168:	3b69                	addiw	s6,s6,-6
    8009116a:	093a                	slli	s2,s2,0xe
    8009116c:	40fc                	lw	a5,68(s1)
    8009116e:	5385                	li	t2,-31
    80091170:	1255                	addi	tp,tp,-11 # fffffffffffffff5 <_end+0xffffffff7ff67591>
    80091172:	1004                	addi	s1,sp,32
    80091174:	5aec2d8f          	.insn	4, 0x5aec2d8f
    80091178:	83a6                	mv	t2,s1
    8009117a:	8306                	mv	t1,ra
    8009117c:	00d1                	addi	ra,ra,20
    8009117e:	0dfa                	slli	s11,s11,0x1e
    80091180:	bf7e                	fsd	ft11,440(sp)
    80091182:	d148                	sw	a0,36(a0)
    80091184:	d760                	sw	s0,108(a4)
    80091186:	61b2                	ld	gp,264(sp)
    80091188:	15ac                	addi	a1,sp,744
    8009118a:	da45                	beqz	a2,8009113a <begin_signature+0x13a>
    8009118c:	62ef035b          	.insn	4, 0x62ef035b
    80091190:	4a64                	lw	s1,84(a2)
    80091192:	534a                	lw	t1,176(sp)
    80091194:	f452                	sd	s4,40(sp)
    80091196:	3e3d                	addiw	t3,t3,-17
    80091198:	62fbd287          	.insn	4, 0x62fbd287
    8009119c:	c9f8                	sw	a4,84(a1)
    8009119e:	5991                	li	s3,-28
    800911a0:	08ae                	slli	a7,a7,0xb
    800911a2:	9dc2                	add	s11,s11,a6
    800911a4:	943e                	add	s0,s0,a5
    800911a6:	3e4a1e83          	lh	t4,996(s4)
    800911aa:	9916                	add	s2,s2,t0
    800911ac:	8c00                	.insn	2, 0x8c00
    800911ae:	51fe                	lw	gp,252(sp)
    800911b0:	8606                	mv	a2,ra
    800911b2:	011c                	addi	a5,sp,128
    800911b4:	a78c                	fsd	fa1,8(a5)
    800911b6:	0aa2                	slli	s5,s5,0x8
    800911b8:	5fea                	lw	t6,184(sp)
    800911ba:	c628                	sw	a0,72(a2)
    800911bc:	9e94                	.insn	2, 0x9e94
    800911be:	5b55                	li	s6,-11
    800911c0:	2839                	addiw	a6,a6,14
    800911c2:	4956                	lw	s2,84(sp)
    800911c4:	db99                	beqz	a5,800910da <begin_signature+0xda>
    800911c6:	91b540c3          	fmadd.s	ft1,fa0,fs11,fs2,rmm
    800911ca:	344e                	fld	fs0,240(sp)
    800911cc:	0d91                	addi	s11,s11,4
    800911ce:	ffe157ef          	jal	a5,7ffa69cc <_tbss_end+0x7ffa69cc>
    800911d2:	594baa8f          	.insn	4, 0x594baa8f
    800911d6:	2858                	fld	fa4,144(s0)
    800911d8:	d26ae04b          	fnmsub.d	ft0,fs5,ft6,fs10,unknown
    800911dc:	282973eb          	.insn	4, 0x282973eb
    800911e0:	8215                	srli	a2,a2,0x5
    800911e2:	9999                	andi	a1,a1,-26
    800911e4:	966c                	.insn	2, 0x966c
    800911e6:	4668                	lw	a0,76(a2)
    800911e8:	8df0                	.insn	2, 0x8df0
    800911ea:	3c2485ab          	.insn	4, 0x3c2485ab
    800911ee:	63f5542f          	.insn	4, 0x63f5542f
    800911f2:	a67e                	fsd	ft11,264(sp)
    800911f4:	70a64a6b          	.insn	4, 0x70a64a6b
    800911f8:	18b8                	addi	a4,sp,120
    800911fa:	b5dd                	j	800910e0 <begin_signature+0xe0>
    800911fc:	3092                	fld	ft1,288(sp)
    800911fe:	1fb6                	slli	t6,t6,0x2d
    80091200:	951f 2dbd d358      	.insn	6, 0xd3582dbd951f
    80091206:	073c                	addi	a5,sp,904
    80091208:	def1                	beqz	a3,800911e4 <begin_signature+0x1e4>
    8009120a:	15fa                	slli	a1,a1,0x3e
    8009120c:	6dc0                	ld	s0,152(a1)
    8009120e:	03c5                	addi	t2,t2,17 # fffffffffffef011 <_end+0xffffffff7ff565ad>
    80091210:	08bc                	addi	a5,sp,88
    80091212:	6d059773          	csrrw	a4,0x6d0,a1
    80091216:	57b9                	li	a5,-18
    80091218:	64cc                	ld	a1,136(s1)
    8009121a:	e3d905ab          	.insn	4, 0xe3d905ab
    8009121e:	147c                	addi	a5,sp,556
    80091220:	8c2edb63          	bge	t4,sp,800902f6 <label+0x8bcc0>
    80091224:	1f5a                	slli	t5,t5,0x36
    80091226:	900e01ab          	.insn	4, 0x900e01ab
    8009122a:	eaf9                	bnez	a3,80091300 <begin_signature+0x300>
    8009122c:	0cea                	slli	s9,s9,0x1a
    8009122e:	08dc                	addi	a5,sp,84
    80091230:	234e                	fld	ft6,208(sp)
    80091232:	67f9                	lui	a5,0x1e
    80091234:	b66d                	j	80090dde <label+0x8c7a8>
    80091236:	e6a40897          	auipc	a7,0xe6a40
    8009123a:	78a9                	lui	a7,0xfffea
    8009123c:	233a5f9b          	.insn	4, 0x233a5f9b
    80091240:	0eb4                	addi	a3,sp,856
    80091242:	560a                	lw	a2,160(sp)
    80091244:	00585817          	auipc	a6,0x585
    80091248:	5a0a                	lw	s4,160(sp)
    8009124a:	db2d                	beqz	a4,800911bc <begin_signature+0x1bc>
    8009124c:	5a70                	lw	a2,116(a2)
    8009124e:	7e18                	ld	a4,56(a2)
    80091250:	a146                	fsd	fa7,128(sp)
    80091252:	728664c3          	fmadd.d	fs1,fa2,fs0,fa4,unknown
    80091256:	37ba                	fld	fa5,424(sp)
    80091258:	a048                	fsd	fa0,128(s0)
    8009125a:	5500                	lw	s0,40(a0)
    8009125c:	ebd0                	sd	a2,144(a5)
    8009125e:	778e                	ld	a5,224(sp)
    80091260:	7a32                	ld	s4,296(sp)
    80091262:	df5a                	sw	s6,188(sp)
    80091264:	31e8                	fld	fa0,224(a1)
    80091266:	4a11                	li	s4,4
    80091268:	7f69                	lui	t5,0xffffa
    8009126a:	e889                	bnez	s1,8009127c <begin_signature+0x27c>
    8009126c:	ac10                	fsd	fa2,24(s0)
    8009126e:	7292                	ld	t0,288(sp)
    80091270:	899c                	.insn	2, 0x899c
    80091272:	84ae                	mv	s1,a1
    80091274:	0511102b          	.insn	4, 0x0511102b
    80091278:	41fd                	li	gp,31
    8009127a:	2692b733          	.insn	4, 0x2692b733
    8009127e:	426e                	lw	tp,216(sp)
    80091280:	96d6                	add	a3,a3,s5
    80091282:	bc19                	j	80090c98 <label+0x8c662>
    80091284:	0929                	addi	s2,s2,10 # 1900a <_tbss_end+0x1900a>
    80091286:	7202                	ld	tp,32(sp)
    80091288:	4de1                	li	s11,24
    8009128a:	5faa                	lw	t6,168(sp)
    8009128c:	0dd5                	addi	s11,s11,21
    8009128e:	9e6a5e3b          	.insn	4, 0x9e6a5e3b
    80091292:	3e9d                	addiw	t4,t4,-25
    80091294:	3fc2c24f          	.insn	4, 0x3fc2c24f
    80091298:	4b7e                	lw	s6,220(sp)
    8009129a:	449a                	lw	s1,132(sp)
    8009129c:	b781                	j	800911dc <begin_signature+0x1dc>
    8009129e:	7608                	ld	a0,40(a2)
    800912a0:	139bb863          	.insn	4, 0x139bb863
    800912a4:	18afb5eb          	.insn	4, 0x18afb5eb
    800912a8:	ac0d                	j	800914da <begin_signature+0x4da>
    800912aa:	37aa088b          	.insn	4, 0x37aa088b
    800912ae:	62cd                	lui	t0,0x13
    800912b0:	981d                	andi	s0,s0,-25
    800912b2:	d804                	sw	s1,48(s0)
    800912b4:	5a7fc98b          	.insn	4, 0x5a7fc98b
    800912b8:	c9c8                	sw	a0,20(a1)
    800912ba:	3d34                	fld	fa3,120(a0)
    800912bc:	66a7d3eb          	.insn	4, 0x66a7d3eb
    800912c0:	4105cc37          	lui	s8,0x4105c
    800912c4:	747f                	.insn	2, 0x747f
    800912c6:	464e                	lw	a2,208(sp)
    800912c8:	e8738ec7          	fmsub.s	ft9,ft7,ft7,ft9,rne
    800912cc:	435c                	lw	a5,4(a4)
    800912ce:	67c0                	ld	s0,136(a5)
    800912d0:	1aaa                	slli	s5,s5,0x2a
    800912d2:	c8aa                	sw	a0,80(sp)
    800912d4:	08c8dee7          	.insn	4, 0x08c8dee7
    800912d8:	aacd                	j	800914ca <begin_signature+0x4ca>
    800912da:	f040326b          	.insn	4, 0xf040326b
    800912de:	7201                	lui	tp,0xfffe0
    800912e0:	1d19                	addi	s10,s10,-26
    800912e2:	b146                	fsd	fa7,160(sp)
    800912e4:	f7f9                	bnez	a5,800912b2 <begin_signature+0x2b2>
    800912e6:	7315788b          	.insn	4, 0x7315788b
    800912ea:	5dd6                	lw	s11,116(sp)
    800912ec:	11a737c7          	fmsub.s	fa5,fa4,fs10,ft2,rup
    800912f0:	5c80                	lw	s0,56(s1)
    800912f2:	caf2                	sw	t3,84(sp)
    800912f4:	64c5                	lui	s1,0x11
    800912f6:	97a237e3          	.insn	4, 0x97a237e3
    800912fa:	0871                	addi	a6,a6,28 # 80616260 <_end+0x57d7fc>
    800912fc:	8ba8                	.insn	2, 0x8ba8
    800912fe:	2a81                	sext.w	s5,s5
    80091300:	6445                	lui	s0,0x11
    80091302:	bb507ad3          	.insn	4, 0xbb507ad3
    80091306:	500e                	.insn	2, 0x500e
    80091308:	a9dd                	j	800917fe <begin_signature+0x7fe>
    8009130a:	d61a881b          	addiw	a6,s5,-671 # 65821e33 <_tbss_end+0x65821e33>
    8009130e:	0a531aab          	.insn	4, 0x0a531aab
    80091312:	0fb0af6b          	.insn	4, 0x0fb0af6b
    80091316:	430a                	lw	t1,128(sp)
    80091318:	a3d0                	fsd	fa2,128(a5)
    8009131a:	92d5                	srli	a3,a3,0x35
    8009131c:	8286                	mv	t0,ra
    8009131e:	4999750b          	.insn	4, 0x4999750b
    80091322:	ce84                	sw	s1,24(a3)
    80091324:	4691                	li	a3,4
    80091326:	6ff1                	lui	t6,0x1c
    80091328:	f56a                	sd	s10,168(sp)
    8009132a:	15b1                	addi	a1,a1,-20 # cd779e42 <_end+0x4d6e13de>
    8009132c:	00ffbdef          	jal	s11,8018cb3a <_end+0xf40d6>
    80091330:	7b39                	lui	s6,0xfffee
    80091332:	1d06                	slli	s10,s10,0x21
    80091334:	b2d4                	fsd	fa3,160(a3)
    80091336:	4862                	lw	a6,24(sp)
    80091338:	9f28                	.insn	2, 0x9f28
    8009133a:	e24c                	sd	a1,128(a2)
    8009133c:	2a3da343          	fmadd.d	ft6,fs11,ft3,ft5,rdn
    80091340:	acec                	fsd	fa1,216(s1)
    80091342:	09f9                	addi	s3,s3,30
    80091344:	c364                	sw	s1,68(a4)
    80091346:	5cc9                	li	s9,-14
    80091348:	6a8c                	ld	a1,16(a3)
    8009134a:	d454d1af          	.insn	4, 0xd454d1af
    8009134e:	0d02                	c.slli64	s10
    80091350:	c40e                	sw	gp,8(sp)
    80091352:	1dd5                	addi	s11,s11,-11
    80091354:	552c                	lw	a1,104(a0)
    80091356:	9df27af3          	csrrci	s5,0x9df,4
    8009135a:	dcf4                	sw	a3,124(s1)
    8009135c:	698aad73          	csrrs	s10,0x698,s5
    80091360:	6561                	lui	a0,0x18
    80091362:	12b018b3          	.insn	4, 0x12b018b3
    80091366:	75f9                	lui	a1,0xffffe
    80091368:	7f69                	lui	t5,0xffffa
    8009136a:	fcce                	sd	s3,120(sp)
    8009136c:	43a0                	lw	s0,64(a5)
    8009136e:	061c                	addi	a5,sp,768
    80091370:	c0c5                	beqz	s1,80091410 <begin_signature+0x410>
    80091372:	3e21                	addiw	t3,t3,-24
    80091374:	7f40                	ld	s0,184(a4)
    80091376:	01c6                	slli	gp,gp,0x11
    80091378:	cd10                	sw	a2,24(a0)
    8009137a:	0c91                	addi	s9,s9,4 # d01004 <_tbss_end+0xd01004>
    8009137c:	468589d7          	.insn	4, 0x468589d7
    80091380:	f90c                	sd	a1,48(a0)
    80091382:	a7c9                	j	80091b44 <begin_signature+0xb44>
    80091384:	9340                	.insn	2, 0x9340
    80091386:	7b69                	lui	s6,0xffffa
    80091388:	c17a                	sw	t5,128(sp)
    8009138a:	31787727          	.insn	4, 0x31787727
    8009138e:	65b9                	lui	a1,0xe
    80091390:	9131                	srli	a0,a0,0x2c
    80091392:	5c88                	lw	a0,56(s1)
    80091394:	9cc0                	.insn	2, 0x9cc0
    80091396:	185a                	slli	a6,a6,0x36
    80091398:	e2ce                	sd	s3,320(sp)
    8009139a:	ce5f 713a 3d38      	.insn	6, 0x3d38713ace5f
    800913a0:	2211                	addiw	tp,tp,4 # fffffffffffe0004 <_end+0xffffffff7ff475a0>
    800913a2:	8122                	mv	sp,s0
    800913a4:	e586                	sd	ra,200(sp)
    800913a6:	3309                	addiw	t1,t1,-30 # ffffffffffff9fe2 <_end+0xffffffff7ff6157e>
    800913a8:	4008                	lw	a0,0(s0)
    800913aa:	3ecd4517          	auipc	a0,0x3ecd4
    800913ae:	a3e15a9b          	.insn	4, 0xa3e15a9b
    800913b2:	2689                	addiw	a3,a3,2 # 4594002 <_tbss_end+0x4594002>
    800913b4:	53d9                	li	t2,-10
    800913b6:	781e                	ld	a6,480(sp)
    800913b8:	0b7c                	addi	a5,sp,412
    800913ba:	3359                	addiw	t1,t1,-10
    800913bc:	3c6be977          	.insn	4, 0x3c6be977
    800913c0:	fcbe                	sd	a5,120(sp)
    800913c2:	a2d9                	j	80091588 <begin_signature+0x588>
    800913c4:	5170                	lw	a2,100(a0)
    800913c6:	5598                	lw	a4,40(a1)
    800913c8:	224c                	fld	fa1,128(a2)
    800913ca:	17c4                	addi	s1,sp,996
    800913cc:	fd51                	bnez	a0,80091368 <begin_signature+0x368>
    800913ce:	3898                	fld	fa4,48(s1)
    800913d0:	91c8                	.insn	2, 0x91c8
    800913d2:	185a                	slli	a6,a6,0x36
    800913d4:	40396437          	lui	s0,0x40396
    800913d8:	af89                	j	80091b2a <begin_signature+0xb2a>
    800913da:	1324                	addi	s1,sp,424
    800913dc:	e3de                	sd	s7,448(sp)
    800913de:	22fd                	addiw	t0,t0,31 # 1301f <_tbss_end+0x1301f>
    800913e0:	f07a                	sd	t5,32(sp)
    800913e2:	8f44                	.insn	2, 0x8f44
    800913e4:	432e                	lw	t1,200(sp)
    800913e6:	0d28                	addi	a0,sp,664
    800913e8:	d584                	sw	s1,40(a1)
    800913ea:	89bd                	andi	a1,a1,15
    800913ec:	4621                	li	a2,8
    800913ee:	107c                	addi	a5,sp,44
    800913f0:	ce56                	sw	s5,28(sp)
    800913f2:	4a94                	lw	a3,16(a3)
    800913f4:	6ac358c7          	fmsub.d	fa7,ft6,fa2,fa3,unknown
    800913f8:	b4e4                	fsd	fs1,232(s1)
    800913fa:	cf3c                	sw	a5,88(a4)
    800913fc:	e77e                	sd	t6,392(sp)
    800913fe:	5bec                	lw	a1,116(a5)
    80091400:	be99b06b          	.insn	4, 0xbe99b06b
    80091404:	d982                	sw	zero,240(sp)
    80091406:	52206dab          	.insn	4, 0x52206dab
    8009140a:	a3c4                	fsd	fs1,128(a5)
    8009140c:	3fa0                	fld	fs0,120(a5)
    8009140e:	7ea0                	ld	s0,120(a3)
    80091410:	3b52                	fld	fs6,304(sp)
    80091412:	e162                	sd	s8,128(sp)
    80091414:	b690                	fsd	fa2,40(a3)
    80091416:	617c                	ld	a5,192(a0)
    80091418:	f806                	sd	ra,48(sp)
    8009141a:	e348db47          	fmsub.d	fs6,fa7,fs4,ft8,unknown
    8009141e:	23fe19b3          	.insn	4, 0x23fe19b3
    80091422:	8397c787          	.insn	4, 0x8397c787
    80091426:	6176                	ld	sp,344(sp)
    80091428:	6051                	c.lui	zero,0x14
    8009142a:	01d8                	addi	a4,sp,196
    8009142c:	cd1d                	beqz	a0,8009146a <begin_signature+0x46a>
    8009142e:	78d9                	lui	a7,0xffff6
    80091430:	d609                	beqz	a2,8009133a <begin_signature+0x33a>
    80091432:	3118263f 47743ada 	.insn	8, 0x47743ada3118263f
    8009143a:	1269                	addi	tp,tp,-6 # fffffffffffffffa <_end+0xffffffff7ff67596>
    8009143c:	4a973deb          	.insn	4, 0x4a973deb
    80091440:	9041                	srli	s0,s0,0x30
    80091442:	cfe7fa23          	.insn	4, 0xcfe7fa23
    80091446:	4c4c                	lw	a1,28(s0)
    80091448:	fa8c                	sd	a1,48(a3)
    8009144a:	db75                	beqz	a4,8009143e <begin_signature+0x43e>
    8009144c:	2d9f 1f64 28f8      	.insn	6, 0x28f81f642d9f
    80091452:	0931                	addi	s2,s2,12
    80091454:	4cce62af          	.insn	4, 0x4cce62af
    80091458:	14f1                	addi	s1,s1,-4 # 10ffc <_tbss_end+0x10ffc>
    8009145a:	2308                	fld	fa0,0(a4)
    8009145c:	3f34e9db          	.insn	4, 0x3f34e9db
    80091460:	01e9                	addi	gp,gp,26
    80091462:	2e81                	sext.w	t4,t4
    80091464:	7721                	lui	a4,0xfffe8
    80091466:	4cb9                	li	s9,14
    80091468:	e0a7b593          	sltiu	a1,a5,-502
    8009146c:	b29c                	fsd	fa5,32(a3)
    8009146e:	6b11                	lui	s6,0x4
    80091470:	44cc6523          	.insn	4, 0x44cc6523
    80091474:	4052                	.insn	2, 0x4052
    80091476:	3260                	fld	fs0,224(a2)
    80091478:	c548                	sw	a0,12(a0)
    8009147a:	059d                	addi	a1,a1,7 # e007 <_tbss_end+0xe007>
    8009147c:	2f1a                	fld	ft10,384(sp)
    8009147e:	59230c53          	.insn	4, 0x59230c53
    80091482:	1b45                	addi	s6,s6,-15 # 3ff1 <_tbss_end+0x3ff1>
    80091484:	60ffcca7          	.insn	4, 0x60ffcca7
    80091488:	83ca                	mv	t2,s2
    8009148a:	019d                	addi	gp,gp,7
    8009148c:	6e54                	ld	a3,152(a2)
    8009148e:	466d                	li	a2,27
    80091490:	44df 98ac f6a5      	.insn	6, 0xf6a598ac44df
    80091496:	389c                	fld	fa5,48(s1)
    80091498:	62d8                	ld	a4,128(a3)
    8009149a:	c07c                	sw	a5,68(s0)
    8009149c:	d989                	beqz	a1,800913ae <begin_signature+0x3ae>
    8009149e:	f38d5b23          	.insn	4, 0xf38d5b23
    800914a2:	19b5                	addi	s3,s3,-19
    800914a4:	4de0                	lw	s0,92(a1)
    800914a6:	08e0                	addi	s0,sp,92
    800914a8:	4116                	lw	sp,68(sp)
    800914aa:	aedc                	fsd	fa5,152(a3)
    800914ac:	1f420a27          	.insn	4, 0x1f420a27
    800914b0:	e73a                	sd	a4,392(sp)
    800914b2:	bf69                	j	8009144c <begin_signature+0x44c>
    800914b4:	0237ce53          	fadd.d	ft8,fa5,ft3,rmm
    800914b8:	9c72                	add	s8,s8,t3
    800914ba:	4834cfcf          	fnmadd.s	ft11,fs1,ft3,fs1,rmm
    800914be:	5854                	lw	a3,52(s0)
    800914c0:	70e67ff3          	csrrci	t6,0x70e,12
    800914c4:	a344                	fsd	fs1,128(a4)
    800914c6:	7a6e                	ld	s4,248(sp)
    800914c8:	30964423          	.insn	4, 0x30964423
    800914cc:	67cc                	ld	a1,136(a5)
    800914ce:	7162                	ld	sp,56(sp)
    800914d0:	9a4c                	.insn	2, 0x9a4c
    800914d2:	ca89                	beqz	a3,800914e4 <begin_signature+0x4e4>
    800914d4:	821d                	srli	a2,a2,0x7
    800914d6:	e29d05d7          	.insn	4, 0xe29d05d7
    800914da:	f434                	sd	a3,104(s0)
    800914dc:	f024                	sd	s1,96(s0)
    800914de:	4efd                	li	t4,31
    800914e0:	98f1                	andi	s1,s1,-4
    800914e2:	bce4                	fsd	fs1,248(s1)
    800914e4:	cffe                	sw	t6,220(sp)
    800914e6:	0d95                	addi	s11,s11,5
    800914e8:	8f05                	sub	a4,a4,s1
    800914ea:	0926                	slli	s2,s2,0x9
    800914ec:	570d                	li	a4,-29
    800914ee:	19a5                	addi	s3,s3,-23
    800914f0:	d432                	sw	a2,40(sp)
    800914f2:	0b2c02f7          	.insn	4, 0x0b2c02f7
    800914f6:	2c12                	fld	fs8,256(sp)
    800914f8:	1d36                	slli	s10,s10,0x2d
    800914fa:	a8d09c43          	fmadd.s	fs8,ft1,fa3,fs5,rtz
    800914fe:	37de                	fld	fa5,496(sp)
    80091500:	46da                	lw	a3,148(sp)
    80091502:	e5b4                	sd	a3,72(a1)
    80091504:	5b5b9e87          	.insn	4, 0x5b5b9e87
    80091508:	0880d9bb          	.insn	4, 0x0880d9bb
    8009150c:	18aa                	slli	a7,a7,0x2a
    8009150e:	0392                	slli	t2,t2,0x4
    80091510:	1d01                	addi	s10,s10,-32
    80091512:	f920                	sd	s0,112(a0)
    80091514:	dbec                	sw	a1,116(a5)
    80091516:	6b26                	ld	s6,72(sp)
    80091518:	fdf2                	sd	t3,248(sp)
    8009151a:	21150c63          	beq	a0,a7,80091732 <begin_signature+0x732>
    8009151e:	439e                	lw	t2,196(sp)
    80091520:	cdf7b40b          	.insn	4, 0xcdf7b40b
    80091524:	0c69                	addi	s8,s8,26 # 4105c01a <_tbss_end+0x4105c01a>
    80091526:	3a38                	fld	fa4,112(a2)
    80091528:	62fc                	ld	a5,192(a3)
    8009152a:	1c1e4e1b          	.insn	4, 0x1c1e4e1b
    8009152e:	3a1d                	addiw	s4,s4,-25
    80091530:	06a4                	addi	s1,sp,840
    80091532:	f955                	bnez	a0,800914e6 <begin_signature+0x4e6>
    80091534:	ac0c                	fsd	fa1,24(s0)
    80091536:	52bd                	li	t0,-17
    80091538:	96ec6b0b          	.insn	4, 0x96ec6b0b
    8009153c:	d944                	sw	s1,52(a0)
    8009153e:	52cf5b0f          	.insn	4, 0x52cf5b0f
    80091542:	9d92                	add	s11,s11,tp
    80091544:	4336def7          	.insn	4, 0x4336def7
    80091548:	7182                	ld	gp,32(sp)
    8009154a:	08e9                	addi	a7,a7,26 # ffffffffffff601a <_end+0xffffffff7ff5d5b6>
    8009154c:	2f44                	fld	fs1,152(a4)
    8009154e:	7c0d                	lui	s8,0xfffe3
    80091550:	8b79                	andi	a4,a4,30
    80091552:	2519b4c3          	.insn	4, 0x2519b4c3
    80091556:	387a                	fld	fa6,440(sp)
    80091558:	9c9c                	.insn	2, 0x9c9c
    8009155a:	1eed                	addi	t4,t4,-5
    8009155c:	2f529e17          	auipc	t3,0x2f529
    80091560:	efa8c0af          	.insn	4, 0xefa8c0af
    80091564:	3e5089e7          	jalr	s3,997(ra)
    80091568:	e5bc                	sd	a5,72(a1)
    8009156a:	418e                	lw	gp,192(sp)
    8009156c:	cb65                	beqz	a4,8009165c <begin_signature+0x65c>
    8009156e:	265e                	fld	fa2,464(sp)
    80091570:	8799                	srai	a5,a5,0x6
    80091572:	124ee1fb          	.insn	4, 0x124ee1fb
    80091576:	6bbb6707          	.insn	4, 0x6bbb6707
    8009157a:	e17d                	bnez	a0,80091660 <begin_signature+0x660>
    8009157c:	ebae                	sd	a1,464(sp)
    8009157e:	5758                	lw	a4,44(a4)
    80091580:	429e                	lw	t0,196(sp)
    80091582:	78144e5b          	.insn	4, 0x78144e5b
    80091586:	0221                	addi	tp,tp,8 # 8 <_tbss_end+0x8>
    80091588:	4e19                	li	t3,6
    8009158a:	6630287b          	.insn	4, 0x6630287b
    8009158e:	3572                	fld	fa0,312(sp)
    80091590:	da28                	sw	a0,112(a2)
    80091592:	fad96fd3          	.insn	4, 0xfad96fd3
    80091596:	7f30                	ld	a2,120(a4)
    80091598:	d1cd                	beqz	a1,8009153a <begin_signature+0x53a>
    8009159a:	1ef0                	addi	a2,sp,892
    8009159c:	77f84c17          	auipc	s8,0x77f84
    800915a0:	1f9a                	slli	t6,t6,0x26
    800915a2:	1d62                	slli	s10,s10,0x38
    800915a4:	ada1                	j	80091bfc <begin_signature+0xbfc>
    800915a6:	7090                	ld	a2,32(s1)
    800915a8:	f236                	sd	a3,288(sp)
    800915aa:	f9cc                	sd	a1,176(a1)
    800915ac:	3199                	addiw	gp,gp,-26
    800915ae:	4749                	li	a4,18
    800915b0:	789824bb          	.insn	4, 0x789824bb
    800915b4:	6446                	ld	s0,80(sp)
    800915b6:	13c2                	slli	t2,t2,0x30
    800915b8:	0e39                	addi	t3,t3,14 # af5ba56a <_end+0x2f521b06>
    800915ba:	9a29                	andi	a2,a2,-22
    800915bc:	32107643          	fmadd.d	fa2,ft0,ft1,ft6
    800915c0:	8a8d                	andi	a3,a3,3
    800915c2:	d836                	sw	a3,48(sp)
    800915c4:	45ebf07b          	.insn	4, 0x45ebf07b
    800915c8:	9628                	.insn	2, 0x9628
    800915ca:	6a92                	ld	s5,256(sp)
    800915cc:	2325                	addiw	t1,t1,9
    800915ce:	701c                	ld	a5,32(s0)
    800915d0:	9ed9                	.insn	2, 0x9ed9
    800915d2:	abe81f63          	bne	a6,t5,80090890 <label+0x8c25a>
    800915d6:	781f 19f8 54b2      	.insn	6, 0x54b219f8781f
    800915dc:	bf3c                	fsd	fa5,120(a4)
    800915de:	4145                	li	sp,17
    800915e0:	4764                	lw	s1,76(a4)
    800915e2:	6994                	ld	a3,16(a1)
    800915e4:	a335                	j	80091b10 <begin_signature+0xb10>
    800915e6:	7f863283          	ld	t0,2040(a2)
    800915ea:	46e4e817          	auipc	a6,0x46e4e
    800915ee:	305f ef42 b382      	.insn	6, 0xb382ef42305f
    800915f4:	7c04                	ld	s1,56(s0)
    800915f6:	301d27ef          	jal	a5,801640f6 <_end+0xcb692>
    800915fa:	8986                	mv	s3,ra
    800915fc:	1c21                	addi	s8,s8,-24 # f8015584 <_end+0x77f7cb20>
    800915fe:	18972383          	lw	t2,393(a4) # fffffffffffe8189 <_end+0xffffffff7ff4f725>
    80091602:	cb98                	sw	a4,16(a5)
    80091604:	5d1c                	lw	a5,56(a0)
    80091606:	1b2d                	addi	s6,s6,-21
    80091608:	8338                	.insn	2, 0x8338
    8009160a:	6204753b          	.insn	4, 0x6204753b
    8009160e:	4c5e                	lw	s8,212(sp)
    80091610:	f4c8                	sd	a0,168(s1)
    80091612:	e885                	bnez	s1,80091642 <begin_signature+0x642>
    80091614:	7cf83a8f          	.insn	4, 0x7cf83a8f
    80091618:	4be2                	lw	s7,24(sp)
    8009161a:	597e                	lw	s2,252(sp)
    8009161c:	a4df 3615 4916      	.insn	6, 0x49163615a4df
    80091622:	a9d5                	j	80091b16 <begin_signature+0xb16>
    80091624:	9eaa                	add	t4,t4,a0
    80091626:	47c8                	lw	a0,12(a5)
    80091628:	b7b1                	j	80091574 <begin_signature+0x574>
    8009162a:	81f1                	srli	a1,a1,0x1c
    8009162c:	1541                	addi	a0,a0,-16 # bed6539a <_end+0x3eccc936>
    8009162e:	6c5e                	ld	s8,464(sp)
    80091630:	3789                	addiw	a5,a5,-30 # 1dfe2 <_tbss_end+0x1dfe2>
    80091632:	1198                	addi	a4,sp,224
    80091634:	2de4                	fld	fs1,216(a1)
    80091636:	1348                	addi	a0,sp,420
    80091638:	2c41f94f          	.insn	4, 0x2c41f94f
    8009163c:	6a4a                	ld	s4,144(sp)
    8009163e:	149601c3          	.insn	4, 0x149601c3
    80091642:	2319                	addiw	t1,t1,6
    80091644:	1cfc                	addi	a5,sp,636
    80091646:	812e6d4f          	fnmadd.s	fs10,ft8,fs2,fa6,unknown
    8009164a:	21b8                	fld	fa4,64(a1)
    8009164c:	7897c5fb          	.insn	4, 0x7897c5fb
    80091650:	bca5                	j	800910c8 <begin_signature+0xc8>
    80091652:	2d70                	fld	fa2,216(a0)
    80091654:	3e0d                	addiw	t3,t3,-29
    80091656:	11f5                	addi	gp,gp,-3
    80091658:	9961                	andi	a0,a0,-8
    8009165a:	7af1                	lui	s5,0xffffc
    8009165c:	977c                	.insn	2, 0x977c
    8009165e:	49bd7187          	.insn	4, 0x49bd7187
    80091662:	5504                	lw	s1,40(a0)
    80091664:	4c9e                	lw	s9,196(sp)
    80091666:	0930                	addi	a2,sp,152
    80091668:	5176                	lw	sp,124(sp)
    8009166a:	53e4                	lw	s1,100(a5)
    8009166c:	4f34510b          	.insn	4, 0x4f34510b
    80091670:	25e4                	fld	fs1,200(a1)
    80091672:	fe704ceb          	.insn	4, 0xfe704ceb
    80091676:	65b6                	ld	a1,328(sp)
    80091678:	6b08                	ld	a0,16(a4)
    8009167a:	f4f542cb          	.insn	4, 0xf4f542cb
    8009167e:	47535503          	lhu	a0,1141(t1)
    80091682:	89fa                	mv	s3,t5
    80091684:	5c36                	lw	s8,108(sp)
    80091686:	25b55493          	.insn	4, 0x25b55493
    8009168a:	b6d8                	fsd	fa4,168(a3)
    8009168c:	2ce6ab8b          	.insn	4, 0x2ce6ab8b
    80091690:	42d2                	lw	t0,20(sp)
    80091692:	c2afd12b          	.insn	4, 0xc2afd12b
    80091696:	740d                	lui	s0,0xfffe3
    80091698:	b01dc8ef          	jal	a7,8006e198 <label+0x69b62>
    8009169c:	f4f0                	sd	a2,232(s1)
    8009169e:	10d5                	addi	ra,ra,-11
    800916a0:	6ecfdc3b          	.insn	4, 0x6ecfdc3b
    800916a4:	6fe8                	ld	a0,216(a5)
    800916a6:	20be                	fld	ft1,456(sp)
    800916a8:	6b2a                	ld	s6,136(sp)
    800916aa:	1617ab23          	sw	ra,374(a5)
    800916ae:	11ec                	addi	a1,sp,236
    800916b0:	725859cf          	fnmadd.d	fs3,fa6,ft5,fa4,unknown
    800916b4:	b07e                	fsd	ft11,32(sp)
    800916b6:	6f01                	.insn	2, 0x6f01
    800916b8:	ed2d                	bnez	a0,80091732 <begin_signature+0x732>
    800916ba:	0b40e777          	.insn	4, 0x0b40e777
    800916be:	663e                	ld	a2,456(sp)
    800916c0:	ff28                	sd	a0,120(a4)
    800916c2:	4366                	lw	t1,88(sp)
    800916c4:	a0ea                	fsd	fs10,64(sp)
    800916c6:	51fd                	li	gp,-1
    800916c8:	4298                	lw	a4,0(a3)
    800916ca:	7bb0                	ld	a2,112(a5)
    800916cc:	6b4a                	ld	s6,144(sp)
    800916ce:	532d                	li	t1,-21
    800916d0:	b03b6b43          	fmadd.s	fs6,fs6,ft3,fs6,unknown
    800916d4:	739c                	ld	a5,32(a5)
    800916d6:	7354                	ld	a3,160(a4)
    800916d8:	2bf8                	fld	fa4,208(a5)
    800916da:	5f5d                	li	t5,-9
    800916dc:	e9ff 3019 18cd 86f6 	.insn	22, 0x5d3e7d30226bc98ea9c87b12087b86f618cd3019e9ff
    800916e4:	087b 7b12 a9c8 c98e 
    800916ec:	226b 7d30 5d3e 
    800916f2:	f39abcb7          	lui	s9,0xf39ab
    800916f6:	2c04                	fld	fs1,24(s0)
    800916f8:	c450                	sw	a2,12(s0)
    800916fa:	ff251a53          	.insn	4, 0xff251a53
    800916fe:	0341721b          	.insn	4, 0x0341721b
    80091702:	d2aa                	sw	a0,100(sp)
    80091704:	2121c84f          	fnmadd.s	fa6,ft3,fs2,ft4,rmm
    80091708:	2c3e                	fld	fs8,456(sp)
    8009170a:	a1d9                	j	80091bd0 <begin_signature+0xbd0>
    8009170c:	89a5                	andi	a1,a1,9
    8009170e:	66922a37          	lui	s4,0x66922
    80091712:	5056                	.insn	2, 0x5056
    80091714:	62f38bcb          	fnmsub.d	fs7,ft7,fa5,fa2,rne
    80091718:	4409                	li	s0,2
    8009171a:	cd7d7cd3          	.insn	4, 0xcd7d7cd3
    8009171e:	1f8e                	slli	t6,t6,0x23
    80091720:	01a1                	addi	gp,gp,8
    80091722:	c5f1                	beqz	a1,800917ee <begin_signature+0x7ee>
    80091724:	f5e1                	bnez	a1,800916ec <begin_signature+0x6ec>
    80091726:	5360                	lw	s0,100(a4)
    80091728:	8724                	.insn	2, 0x8724
    8009172a:	1668                	addi	a0,sp,812
    8009172c:	77abae07          	flw	ft8,1914(s7) # 86f0286e <_end+0x6e69e0a>
    80091730:	a120                	fsd	fs0,64(a0)
    80091732:	4428                	lw	a0,72(s0)
    80091734:	5de05453          	.insn	4, 0x5de05453
    80091738:	6c31d073          	csrwi	0x6c3,3
    8009173c:	e4d9                	bnez	s1,800917ca <begin_signature+0x7ca>
    8009173e:	01ba                	slli	gp,gp,0xe
    80091740:	2ec1                	addiw	t4,t4,16
    80091742:	ebc4                	sd	s1,144(a5)
    80091744:	271d                	addiw	a4,a4,7
    80091746:	fd5d5deb          	.insn	4, 0xfd5d5deb
    8009174a:	6556d84f          	.insn	4, 0x6556d84f
    8009174e:	11ec                	addi	a1,sp,236
    80091750:	afff 9b9a 186a 241b 	.insn	14, 0xe0d1b2127532241b186a9b9aafff
    80091758:	7532 b212 e0d1 
    8009175e:	13fc                	addi	a5,sp,492
    80091760:	cfe05127          	.insn	4, 0xcfe05127
    80091764:	078f36bb          	.insn	4, 0x078f36bb
    80091768:	4ca6                	lw	s9,72(sp)
    8009176a:	f029                	bnez	s0,800916ac <begin_signature+0x6ac>
    8009176c:	3850                	fld	fa2,176(s0)
    8009176e:	3ebf74b7          	lui	s1,0x3ebf7
    80091772:	2fa0                	fld	fs0,88(a5)
    80091774:	8c15                	sub	s0,s0,a3
    80091776:	492e                	lw	s2,200(sp)
    80091778:	d880ab43          	fmadd.s	fs6,ft1,fs0,fs11,rdn
    8009177c:	d901                	beqz	a0,8009168c <begin_signature+0x68c>
    8009177e:	56aa                	lw	a3,168(sp)
    80091780:	0382                	c.slli64	t2
    80091782:	739f 0ac1 6426      	.insn	6, 0x64260ac1739f
    80091788:	27fa                	fld	fa5,408(sp)
    8009178a:	619d                	lui	gp,0x7
    8009178c:	9225                	srli	a2,a2,0x29
    8009178e:	61dd                	lui	gp,0x17
    80091790:	abd7547f 7df831ce 	.insn	20, 0xdb509b7d01ed45004c5d9f847df831ceabd7547f
    80091798:	4c5d9f84 01ed4500 
    800917a0:	db509b7d 
    800917a4:	47f1                	li	a5,28
    800917a6:	5725                	li	a4,-23
    800917a8:	f46301ef          	jal	gp,7ffc1eee <_tbss_end+0x7ffc1eee>
    800917ac:	2464                	fld	fs1,200(s0)
    800917ae:	0088                	addi	a0,sp,64
    800917b0:	e6285aaf          	.insn	4, 0xe6285aaf
    800917b4:	837f 4082 0077 b869 	.insn	10, 0x944db86900774082837f
    800917bc:	944d 
    800917be:	a1f50e9b          	addiw	t4,a0,-1505
    800917c2:	13e0                	addi	s0,sp,492
    800917c4:	e068                	sd	a0,192(s0)
    800917c6:	4e68689b          	.insn	4, 0x4e68689b
    800917ca:	a88c                	fsd	fa1,16(s1)
    800917cc:	73a9e06f          	j	8012ff06 <_end+0x974a2>
    800917d0:	2981                	sext.w	s3,s3
    800917d2:	db18                	sw	a4,48(a4)
    800917d4:	ea55                	bnez	a2,80091888 <begin_signature+0x888>
    800917d6:	f1ca0ae3          	beq	s4,t3,800916ea <begin_signature+0x6ea>
    800917da:	dbc6                	sw	a7,244(sp)
    800917dc:	0b4c                	addi	a1,sp,404
    800917de:	3cda                	fld	fs9,432(sp)
    800917e0:	159a                	slli	a1,a1,0x26
    800917e2:	19b1                	addi	s3,s3,-20
    800917e4:	0811                	addi	a6,a6,4 # c6edf5ee <_end+0x46e46b8a>
    800917e6:	318a                	fld	ft3,160(sp)
    800917e8:	0935                	addi	s2,s2,13
    800917ea:	369c                	fld	fa5,40(a3)
    800917ec:	39dd                	addiw	s3,s3,-9
    800917ee:	104d                	c.nop	-13
    800917f0:	7872                	ld	a6,312(sp)
    800917f2:	a6a6                	fsd	fs1,328(sp)
    800917f4:	9ee4                	.insn	2, 0x9ee4
    800917f6:	7f7b272f          	.insn	4, 0x7f7b272f
    800917fa:	adce5c0f          	.insn	4, 0xadce5c0f
    800917fe:	2509                	addiw	a0,a0,2
    80091800:	15aa                	slli	a1,a1,0x2a
    80091802:	78d0                	ld	a2,176(s1)
    80091804:	cb09                	beqz	a4,80091816 <begin_signature+0x816>
    80091806:	4892426b          	.insn	4, 0x4892426b
    8009180a:	3306                	fld	ft6,96(sp)
    8009180c:	cf04                	sw	s1,24(a4)
    8009180e:	7988                	ld	a0,48(a1)
    80091810:	ea50                	sd	a2,144(a2)
    80091812:	0a703dbf 8e5e1c1c 	.insn	8, 0x8e5e1c1c0a703dbf
    8009181a:	424a                	lw	tp,144(sp)
    8009181c:	2ea878a3          	.insn	4, 0x2ea878a3
    80091820:	55493613          	sltiu	a2,s2,1364
    80091824:	1802a26f          	jal	tp,800bb9a4 <_end+0x22f40>
    80091828:	2e6a                	fld	ft8,152(sp)
    8009182a:	18c8b837          	lui	a6,0x18c8b
    8009182e:	f7f7271b          	.insn	4, 0xf7f7271b
    80091832:	a6e1                	j	80091bfa <begin_signature+0xbfa>
    80091834:	084958e7          	.insn	4, 0x084958e7
    80091838:	a71a                	fsd	ft6,392(sp)
    8009183a:	83445943          	fmadd.d	fs2,fs0,fs4,fa6,unknown
    8009183e:	4c4e                	lw	s8,208(sp)
    80091840:	57c8                	lw	a0,44(a5)
    80091842:	f736                	sd	a3,424(sp)
    80091844:	0008e02f          	.insn	4, 0x0008e02f
    80091848:	20c1                	addiw	ra,ra,16
    8009184a:	7c52                	ld	s8,304(sp)
    8009184c:	351184cf          	.insn	4, 0x351184cf
    80091850:	f0583493          	sltiu	s1,a6,-251
    80091854:	4b11                	li	s6,4
    80091856:	331d                	addiw	t1,t1,-25
    80091858:	f761                	bnez	a4,80091820 <begin_signature+0x820>
    8009185a:	5be9                	li	s7,-6
    8009185c:	1448                	addi	a0,sp,548
    8009185e:	0bce                	slli	s7,s7,0x13
    80091860:	e0df 902a 9d51      	.insn	6, 0x9d51902ae0df
    80091866:	4ffa                	lw	t6,156(sp)
    80091868:	6a06                	ld	s4,64(sp)
    8009186a:	8974                	.insn	2, 0x8974
    8009186c:	c985                	beqz	a1,8009189c <begin_signature+0x89c>
    8009186e:	21a1                	addiw	gp,gp,8 # 17008 <_tbss_end+0x17008>
    80091870:	4348                	lw	a0,4(a4)
    80091872:	5009                	c.li	zero,-30
    80091874:	6b6a                	ld	s6,152(sp)
    80091876:	3bf0                	fld	fa2,240(a5)
    80091878:	928eade3          	.insn	4, 0x928eade3
    8009187c:	32cfb1ef          	jal	gp,8018cba8 <_end+0xf4144>
    80091880:	007804e3          	beq	a6,t2,80092088 <begin_signature+0x1088>
    80091884:	4e30                	lw	a2,88(a2)
    80091886:	21a848bb          	.insn	4, 0x21a848bb
    8009188a:	00f0                	addi	a2,sp,76
    8009188c:	9b8e                	add	s7,s7,gp
    8009188e:	a24268bb          	.insn	4, 0xa24268bb
    80091892:	879d                	srai	a5,a5,0x7
    80091894:	0294d2af          	.insn	4, 0x0294d2af
    80091898:	ba149b7b          	.insn	4, 0xba149b7b
    8009189c:	d230                	sw	a2,96(a2)
    8009189e:	4588                	lw	a0,8(a1)
    800918a0:	e3cc                	sd	a1,128(a5)
    800918a2:	9029c497          	auipc	s1,0x9029c
    800918a6:	6ff4                	ld	a3,216(a5)
    800918a8:	9734                	.insn	2, 0x9734
    800918aa:	144d                	addi	s0,s0,-13 # fffffffffffe2ff3 <_end+0xffffffff7ff4a58f>
    800918ac:	54b0                	lw	a2,104(s1)
    800918ae:	17d6                	slli	a5,a5,0x35
    800918b0:	2758                	fld	fa4,136(a4)
    800918b2:	ffa2                	sd	s0,504(sp)
    800918b4:	51009beb          	.insn	4, 0x51009beb
    800918b8:	f135                	bnez	a0,8009181c <begin_signature+0x81c>
    800918ba:	1cb1                	addi	s9,s9,-20 # fffffffff39aafec <_end+0xffffffff73912588>
    800918bc:	c1e1                	beqz	a1,8009197c <begin_signature+0x97c>
    800918be:	3c80                	fld	fs0,56(s1)
    800918c0:	32b6                	fld	ft5,360(sp)
    800918c2:	fd10                	sd	a2,56(a0)
    800918c4:	1273c273          	.insn	4, 0x1273c273
    800918c8:	c2821e97          	auipc	t4,0xc2821
    800918cc:	2acf0853          	fmin.d	fa6,ft10,fa2
    800918d0:	90e1                	srli	s1,s1,0x38
    800918d2:	0eee                	slli	t4,t4,0x1b
    800918d4:	9d36                	add	s10,s10,a3
    800918d6:	0a79                	addi	s4,s4,30 # 6692201e <_tbss_end+0x6692201e>
    800918d8:	7c35                	lui	s8,0xfffed
    800918da:	565c                	lw	a5,44(a2)
    800918dc:	6354877b          	.insn	4, 0x6354877b
    800918e0:	e5f2bd07          	fld	fs10,-417(t0)
    800918e4:	2082                	fld	ft1,0(sp)
    800918e6:	0bee                	slli	s7,s7,0x1b
    800918e8:	5370                	lw	a2,100(a4)
    800918ea:	0539340f          	.insn	4, 0x0539340f
    800918ee:	2369                	addiw	t1,t1,26
    800918f0:	0966                	slli	s2,s2,0x19
    800918f2:	77b4                	ld	a3,104(a5)
    800918f4:	a9a2                	fsd	fs0,208(sp)
    800918f6:	3c99                	addiw	s9,s9,-26
    800918f8:	87a0                	.insn	2, 0x87a0
    800918fa:	4887c313          	xori	t1,a5,1160
    800918fe:	2712                	fld	fa4,256(sp)
    80091900:	9031                	srli	s0,s0,0x2c
    80091902:	8871                	andi	s0,s0,28
    80091904:	3ed6                	fld	ft9,368(sp)
    80091906:	09dc                	addi	a5,sp,212
    80091908:	c5b2                	sw	a2,200(sp)
    8009190a:	a5a4                	fsd	fs1,72(a1)
    8009190c:	707c                	ld	a5,224(s0)
    8009190e:	0df4                	addi	a3,sp,732
    80091910:	f8a4                	sd	s1,112(s1)
    80091912:	4cbc                	lw	a5,88(s1)
    80091914:	65d7f5ef          	jal	a1,80111770 <_end+0x78d0c>
    80091918:	619e                	ld	gp,448(sp)
    8009191a:	e9ae                	sd	a1,208(sp)
    8009191c:	c005                	beqz	s0,8009193c <begin_signature+0x93c>
    8009191e:	784d                	lui	a6,0xffff3
    80091920:	7048                	ld	a0,160(s0)
    80091922:	3d77b6eb          	.insn	4, 0x3d77b6eb
    80091926:	355d                	addiw	a0,a0,-9
    80091928:	663d                	lui	a2,0xf
    8009192a:	04ed                	addi	s1,s1,27 # 1032d8bd <_tbss_end+0x1032d8bd>
    8009192c:	3c48                	fld	fa0,184(s0)
    8009192e:	5d32                	lw	s10,44(sp)
    80091930:	fbed                	bnez	a5,80091922 <begin_signature+0x922>
    80091932:	78c6                	ld	a7,112(sp)
    80091934:	6654                	ld	a3,136(a2)
    80091936:	3028                	fld	fa0,96(s0)
    80091938:	cd31                	beqz	a0,80091994 <begin_signature+0x994>
    8009193a:	42d5                	li	t0,21
    8009193c:	9e86                	add	t4,t4,ra
    8009193e:	5f99                	li	t6,-26
    80091940:	c39c8c73          	.insn	4, 0xc39c8c73
    80091944:	f3b2                	sd	a2,480(sp)
    80091946:	5471                	li	s0,-4
    80091948:	a659                	j	80091cce <begin_signature+0xcce>
    8009194a:	3931                	addiw	s2,s2,-20
    8009194c:	1990d347          	fmsub.s	ft6,ft1,fs9,ft3,unknown
    80091950:	9fca                	add	t6,t6,s2
    80091952:	11656983          	lwu	s3,278(a0)
    80091956:	d1ec59a3          	.insn	4, 0xd1ec59a3
    8009195a:	ff761c3b          	.insn	4, 0xff761c3b
    8009195e:	2f4d                	addiw	t5,t5,19 # ffffffffffffa013 <_end+0xffffffff7ff615af>
    80091960:	54c9                	li	s1,-14
    80091962:	563d                	li	a2,-17
    80091964:	7236                	ld	tp,360(sp)
    80091966:	74fa                	ld	s1,440(sp)
    80091968:	b1ed                	j	80091652 <begin_signature+0x652>
    8009196a:	f472                	sd	t3,40(sp)
    8009196c:	322e                	fld	ft4,232(sp)
    8009196e:	a5c523d7          	.insn	4, 0xa5c523d7
    80091972:	2d7c                	fld	fa5,216(a0)
    80091974:	0a48                	addi	a0,sp,276
    80091976:	70dc                	ld	a5,160(s1)
    80091978:	dcbacbe7          	.insn	4, 0xdcbacbe7
    8009197c:	f1a4                	sd	s1,96(a1)
    8009197e:	400a                	.insn	2, 0x400a
    80091980:	ae0a                	fsd	ft2,280(sp)
    80091982:	c579                	beqz	a0,80091a50 <begin_signature+0xa50>
    80091984:	04ce                	slli	s1,s1,0x13
    80091986:	4104                	lw	s1,0(a0)
    80091988:	24cc                	fld	fa1,136(s1)
    8009198a:	7992                	ld	s3,288(sp)
    8009198c:	071226e3          	.insn	4, 0x071226e3
    80091990:	df395347          	.insn	4, 0xdf395347
    80091994:	4528                	lw	a0,72(a0)
    80091996:	e5424157          	.insn	4, 0xe5424157
    8009199a:	41fc                	lw	a5,68(a1)
    8009199c:	2e0f292b          	.insn	4, 0x2e0f292b
    800919a0:	496e                	lw	s2,216(sp)
    800919a2:	9d25                	addw	a0,a0,s1
    800919a4:	3fc2                	fld	ft11,48(sp)
    800919a6:	0cbe4adb          	.insn	4, 0x0cbe4adb
    800919aa:	1e86                	slli	t4,t4,0x21
    800919ac:	63ce3477          	.insn	4, 0x63ce3477
    800919b0:	0e80                	addi	s0,sp,848
    800919b2:	77f6                	ld	a5,376(sp)
    800919b4:	6daa                	ld	s11,136(sp)
    800919b6:	2135                	addiw	sp,sp,13
    800919b8:	e84c                	sd	a1,144(s0)
    800919ba:	fabc                	sd	a5,112(a3)
    800919bc:	c612                	sw	tp,12(sp)
    800919be:	27a0                	fld	fs0,72(a5)
    800919c0:	03b8                	addi	a4,sp,456
    800919c2:	0d9a                	slli	s11,s11,0x6
    800919c4:	0a82                	c.slli64	s5
    800919c6:	d368168f          	.insn	4, 0xd368168f
    800919ca:	9a88416f          	jal	sp,80015b72 <label+0x1153c>
    800919ce:	37f9                	addiw	a5,a5,-2
    800919d0:	38d1                	addiw	a7,a7,-12
    800919d2:	019c                	addi	a5,sp,192
    800919d4:	12bc0d07          	.insn	4, 0x12bc0d07
    800919d8:	bd8f1037          	lui	zero,0xbd8f1
    800919dc:	d798                	sw	a4,40(a5)
    800919de:	4390                	lw	a2,0(a5)
    800919e0:	be81                	j	80091530 <begin_signature+0x530>
    800919e2:	e12d                	bnez	a0,80091a44 <begin_signature+0xa44>
    800919e4:	0015                	c.nop	5
    800919e6:	012e                	slli	sp,sp,0xb
    800919e8:	131f 9019 a803      	.insn	6, 0xa8039019131f
    800919ee:	4ea1                	li	t4,8
    800919f0:	4fc5                	li	t6,17
    800919f2:	7d928a93          	addi	s5,t0,2009
    800919f6:	de706413          	ori	s0,zero,-537
    800919fa:	3edc                	fld	fa5,184(a3)
    800919fc:	2ecc                	fld	fa1,152(a3)
    800919fe:	864e72d3          	.insn	4, 0x864e72d3
    80091a02:	837d                	srli	a4,a4,0x1f
    80091a04:	7bb0                	ld	a2,112(a5)
    80091a06:	0a8e                	slli	s5,s5,0x3
    80091a08:	2746                	fld	fa4,80(sp)
    80091a0a:	8928                	.insn	2, 0x8928
    80091a0c:	4861                	li	a6,24
    80091a0e:	352c                	fld	fa1,104(a0)
    80091a10:	5d24                	lw	s1,120(a0)
    80091a12:	322c                	fld	fa1,96(a2)
    80091a14:	f245                	bnez	a2,800919b4 <begin_signature+0x9b4>
    80091a16:	06fe                	slli	a3,a3,0x1f
    80091a18:	a090a733          	.insn	4, 0xa090a733
    80091a1c:	666c                	ld	a1,200(a2)
    80091a1e:	18ad                	addi	a7,a7,-21
    80091a20:	24f8                	fld	fa4,200(s1)
    80091a22:	05d5                	addi	a1,a1,21
    80091a24:	2b86a5b3          	.insn	4, 0x2b86a5b3
    80091a28:	4fff 8c8d 02c8 5bbd 	.insn	18, 0x8fd043cde7a235c1e2f35bbd02c88c8d4fff
    80091a30:	e2f3 35c1 e7a2 43cd 
    80091a38:	8fd0 
    80091a3a:	9315                	srli	a4,a4,0x25
    80091a3c:	fa98                	sd	a4,48(a3)
    80091a3e:	3406                	fld	fs0,96(sp)
    80091a40:	bfa7b4cb          	.insn	4, 0xbfa7b4cb
    80091a44:	1a9d                	addi	s5,s5,-25 # ffffffffffffbfe7 <_end+0xffffffff7ff63583>
    80091a46:	407a                	.insn	2, 0x407a
    80091a48:	196c                	addi	a1,sp,188
    80091a4a:	c1c5                	beqz	a1,80091aea <begin_signature+0xaea>
    80091a4c:	62e2                	ld	t0,24(sp)
    80091a4e:	29f2                	fld	fs3,280(sp)
    80091a50:	2209                	addiw	tp,tp,2 # 2 <_tbss_end+0x2>
    80091a52:	039a                	slli	t2,t2,0x6
    80091a54:	7785                	lui	a5,0xfffe1
    80091a56:	05a4                	addi	s1,sp,712
    80091a58:	67a9                	lui	a5,0xa
    80091a5a:	acea                	fsd	fs10,88(sp)
    80091a5c:	3629                	addiw	a2,a2,-22 # efea <_tbss_end+0xefea>
    80091a5e:	6fd81feb          	.insn	4, 0x6fd81feb
    80091a62:	7a94                	ld	a3,48(a3)
    80091a64:	892d                	andi	a0,a0,11
    80091a66:	4b10                	lw	a2,16(a4)
    80091a68:	0e61eeb7          	lui	t4,0xe61e
    80091a6c:	799c                	ld	a5,48(a1)
    80091a6e:	009e                	slli	ra,ra,0x7
    80091a70:	c29d                	beqz	a3,80091a96 <begin_signature+0xa96>
    80091a72:	42d4                	lw	a3,4(a3)
    80091a74:	76d8ed3f 8b1050fa 	.insn	8, 0x8b1050fa76d8ed3f
    80091a7c:	e4d4                	sd	a3,136(s1)
    80091a7e:	22cc                	fld	fa1,128(a3)
    80091a80:	2d6dfa7b          	.insn	4, 0x2d6dfa7b
    80091a84:	0af268a7          	.insn	4, 0x0af268a7
    80091a88:	9730                	.insn	2, 0x9730
    80091a8a:	1500                	addi	s0,sp,672
    80091a8c:	6c14                	ld	a3,24(s0)
    80091a8e:	e8cb7063          	bgeu	s6,a2,8009110e <begin_signature+0x10e>
    80091a92:	179a                	slli	a5,a5,0x26
    80091a94:	2b69                	addiw	s6,s6,26
    80091a96:	1800                	addi	s0,sp,48
    80091a98:	5b1d                	li	s6,-25
    80091a9a:	7ea8                	ld	a0,120(a3)
    80091a9c:	bf7c                	fsd	fa5,248(a4)
    80091a9e:	7ee2                	ld	t4,56(sp)
    80091aa0:	632e                	ld	t1,200(sp)
    80091aa2:	6a8f4dcf          	fnmadd.d	fs11,ft10,fs0,fa3,rmm
    80091aa6:	75b0                	ld	a2,104(a1)
    80091aa8:	7ccc                	ld	a1,184(s1)
    80091aaa:	7eee                	ld	t4,248(sp)
    80091aac:	0e519047          	.insn	4, 0x0e519047
    80091ab0:	1166                	slli	sp,sp,0x39
    80091ab2:	c8ec                	sw	a1,84(s1)
    80091ab4:	5a5a                	lw	s4,180(sp)
    80091ab6:	0242                	slli	tp,tp,0x10
    80091ab8:	16ca                	slli	a3,a3,0x32
    80091aba:	afec                	fsd	fa1,216(a5)
    80091abc:	779e                	ld	a5,480(sp)
    80091abe:	1b15                	addi	s6,s6,-27
    80091ac0:	936a                	add	t1,t1,s10
    80091ac2:	fac9                	bnez	a3,80091a54 <begin_signature+0xa54>
    80091ac4:	665a                	ld	a2,400(sp)
    80091ac6:	127e                	slli	tp,tp,0x3f
    80091ac8:	540c                	lw	a1,40(s0)
    80091aca:	c12e                	sw	a1,128(sp)
    80091acc:	55df 7e49 c41d      	.insn	6, 0xc41d7e4955df
    80091ad2:	73b5                	lui	t2,0xfffed
    80091ad4:	2584                	fld	fs1,8(a1)
    80091ad6:	6b59                	lui	s6,0x16
    80091ad8:	cf61                	beqz	a4,80091bb0 <begin_signature+0xbb0>
    80091ada:	4ba4                	lw	s1,80(a5)
    80091adc:	d99c                	sw	a5,48(a1)
    80091ade:	3ef6                	fld	ft9,376(sp)
    80091ae0:	13b1                	addi	t2,t2,-20 # fffffffffffecfec <_end+0xffffffff7ff54588>
    80091ae2:	e2ff 9fa0 582d a12a 	.insn	22, 0x34c2ae04121e2b8a3a709613da34a12a582d9fa0e2ff
    80091aea:	da34 9613 3a70 2b8a 
    80091af2:	121e ae04 34c2 
    80091af8:	be7d                	j	800916b6 <begin_signature+0x6b6>
    80091afa:	5e3b9fbb          	.insn	4, 0x5e3b9fbb
    80091afe:	041d                	addi	s0,s0,7
    80091b00:	d192                	sw	tp,224(sp)
    80091b02:	88a274fb          	.insn	4, 0x88a274fb
    80091b06:	5b957ee3          	bgeu	a0,s9,800928c2 <begin_signature+0x18c2>
    80091b0a:	f07a                	sd	t5,32(sp)
    80091b0c:	162e                	slli	a2,a2,0x2b
    80091b0e:	12f6                	slli	t0,t0,0x3d
    80091b10:	281f 1d84 81cb      	.insn	6, 0x81cb1d84281f
    80091b16:	fa5a0c1b          	addiw	s8,s4,-91
    80091b1a:	21ac                	fld	fa1,64(a1)
    80091b1c:	b23a                	fsd	fa4,288(sp)
    80091b1e:	457f 57c4 d17b 8d38 	.insn	18, 0x445e020ef45ee36c11438d38d17b57c4457f
    80091b26:	1143 e36c f45e 020e 
    80091b2e:	445e 
    80091b30:	e13a                	sd	a4,128(sp)
    80091b32:	7412                	ld	s0,288(sp)
    80091b34:	c0f0                	sw	a2,68(s1)
    80091b36:	1474                	addi	a3,sp,556
    80091b38:	9692                	add	a3,a3,tp
    80091b3a:	251d                	addiw	a0,a0,7
    80091b3c:	11d1633f 6f710d78 	.insn	8, 0x6f710d7811d1633f
    80091b44:	e564                	sd	s1,200(a0)
    80091b46:	648d                	lui	s1,0x3
    80091b48:	b26faf2f          	.insn	4, 0xb26faf2f
    80091b4c:	f8f4                	sd	a3,240(s1)
    80091b4e:	5b30                	lw	a2,112(a4)
    80091b50:	d9aa                	sw	a0,240(sp)
    80091b52:	9e18                	.insn	2, 0x9e18
    80091b54:	6094a8eb          	.insn	4, 0x6094a8eb
    80091b58:	8d5a                	mv	s10,s6
    80091b5a:	61732ce7          	.insn	4, 0x61732ce7
    80091b5e:	24a0                	fld	fs0,72(s1)
    80091b60:	ef60                	sd	s0,216(a4)
    80091b62:	ac4c                	fsd	fa1,152(s0)
    80091b64:	0252                	slli	tp,tp,0x14
    80091b66:	359d                	addiw	a1,a1,-25
    80091b68:	8789                	srai	a5,a5,0x2
    80091b6a:	e2ae                	sd	a1,320(sp)
    80091b6c:	e621                	bnez	a2,80091bb4 <begin_signature+0xbb4>
    80091b6e:	795c                	ld	a5,176(a0)
    80091b70:	a0e0                	fsd	fs0,192(s1)
    80091b72:	26903b03          	ld	s6,617(zero) # 269 <_tbss_end+0x269>
    80091b76:	3085                	addiw	ra,ra,-31
    80091b78:	c2fe                	sw	t6,68(sp)
    80091b7a:	effc                	sd	a5,216(a5)
    80091b7c:	58c9                	li	a7,-14
    80091b7e:	725e                	ld	tp,496(sp)
    80091b80:	60d9                	lui	ra,0x16
    80091b82:	82a4                	.insn	2, 0x82a4
    80091b84:	438d1c53          	.insn	4, 0x438d1c53
    80091b88:	f0d4                	sd	a3,160(s1)
    80091b8a:	4d05                	li	s10,1
    80091b8c:	238a                	fld	ft7,128(sp)
    80091b8e:	7a21                	lui	s4,0xfffe8
    80091b90:	ed4c                	sd	a1,152(a0)
    80091b92:	877d                	srai	a4,a4,0x1f
    80091b94:	c5b8                	sw	a4,72(a1)
    80091b96:	1a64                	addi	s1,sp,316
    80091b98:	b44ee51b          	.insn	4, 0xb44ee51b
    80091b9c:	0e2e                	slli	t3,t3,0xb
    80091b9e:	477c                	lw	a5,76(a4)
    80091ba0:	91e1                	srli	a1,a1,0x38
    80091ba2:	3aa0                	fld	fs0,112(a3)
    80091ba4:	64ad                	lui	s1,0xb
    80091ba6:	6332                	ld	t1,264(sp)
    80091ba8:	50d6                	lw	ra,116(sp)
    80091baa:	dec0                	sw	s0,60(a3)
    80091bac:	5fc9                	li	t6,-14
    80091bae:	6c65                	lui	s8,0x19
    80091bb0:	f8fc                	sd	a5,240(s1)
    80091bb2:	2fe6                	fld	ft11,88(sp)
    80091bb4:	6118                	ld	a4,0(a0)
    80091bb6:	2860                	fld	fs0,208(s0)
    80091bb8:	8aaa968f          	.insn	4, 0x8aaa968f
    80091bbc:	0999                	addi	s3,s3,6
    80091bbe:	79342cd3          	.insn	4, 0x79342cd3
    80091bc2:	62ce88a3          	sb	a2,1585(t4) # e61e631 <_tbss_end+0xe61e631>
    80091bc6:	68e2                	ld	a7,24(sp)
    80091bc8:	9d6d                	.insn	2, 0x9d6d
    80091bca:	b90d                	j	800917fc <begin_signature+0x7fc>
    80091bcc:	ef1e                	sd	t2,408(sp)
    80091bce:	4c5f 66f6 fc6a      	.insn	6, 0xfc6a66f64c5f
    80091bd4:	7a06f503          	.insn	4, 0x7a06f503
    80091bd8:	40dc                	lw	a5,4(s1)
    80091bda:	f5f0                	sd	a2,232(a1)
    80091bdc:	2f6e0213          	addi	tp,t3,758
    80091be0:	7fd329b7          	lui	s3,0x7fd32
    80091be4:	0d7a4d17          	auipc	s10,0xd7a4
    80091be8:	905906bf 169f1ffe 	.insn	8, 0x169f1ffe905906bf
    80091bf0:	655f 04a1 8840      	.insn	6, 0x884004a1655f
    80091bf6:	dd6d6b27          	.insn	4, 0xdd6d6b27
    80091bfa:	8409                	srai	s0,s0,0x2
    80091bfc:	1c8e                	slli	s9,s9,0x23
    80091bfe:	3656                	fld	fa2,368(sp)
    80091c00:	be22                	fsd	fs0,312(sp)
    80091c02:	ba6c8e47          	fmsub.d	ft8,fs9,ft6,fs7,rne
    80091c06:	01ec                	addi	a1,sp,204
    80091c08:	9c6996b3          	.insn	4, 0x9c6996b3
    80091c0c:	8dca                	mv	s11,s2
    80091c0e:	4aa5                	li	s5,9
    80091c10:	0b80                	addi	s0,sp,464
    80091c12:	191c                	addi	a5,sp,176
    80091c14:	b2b6                	fsd	fa3,352(sp)
    80091c16:	4cf4                	lw	a3,92(s1)
    80091c18:	d47e                	sw	t6,40(sp)
    80091c1a:	89a9                	andi	a1,a1,10
    80091c1c:	86d9                	srai	a3,a3,0x16
    80091c1e:	4046                	.insn	2, 0x4046
    80091c20:	166e                	slli	a2,a2,0x3b
    80091c22:	1a75e553          	fdiv.d	fa0,fa1,ft7,unknown
    80091c26:	65f47b93          	andi	s7,s0,1631
    80091c2a:	e17a                	sd	t5,128(sp)
    80091c2c:	1949                	addi	s2,s2,-14
    80091c2e:	5204                	lw	s1,32(a2)
    80091c30:	9731                	srai	a4,a4,0x2c
    80091c32:	e00720f3          	csrrs	ra,0xe00,a4
    80091c36:	5bc6                	lw	s7,112(sp)
    80091c38:	763cd77b          	.insn	4, 0x763cd77b
    80091c3c:	4790                	lw	a2,8(a5)
    80091c3e:	40b1104f          	fnmadd.s	ft0,ft2,fa1,fs0,rtz
    80091c42:	7eda                	ld	t4,432(sp)
    80091c44:	5604                	lw	s1,40(a2)
    80091c46:	30fe                	fld	ft1,504(sp)
    80091c48:	eed6                	sd	s5,344(sp)
    80091c4a:	3f541e17          	auipc	t3,0x3f541
    80091c4e:	5c1a                	lw	s8,164(sp)
    80091c50:	94f1                	srai	s1,s1,0x3c
    80091c52:	0910                	addi	a2,sp,144
    80091c54:	e011                	bnez	s0,80091c58 <begin_signature+0xc58>
    80091c56:	6312                	ld	t1,256(sp)
    80091c58:	1f55                	addi	t5,t5,-11
    80091c5a:	84c9                	srai	s1,s1,0x12
    80091c5c:	8109                	srli	a0,a0,0x2
    80091c5e:	caad1e9b          	.insn	4, 0xcaad1e9b
    80091c62:	478c                	lw	a1,8(a5)
    80091c64:	e8ba                	sd	a4,80(sp)
    80091c66:	1064                	addi	s1,sp,44
    80091c68:	66e0                	ld	s0,200(a3)
    80091c6a:	5ff9ff43          	.insn	4, 0x5ff9ff43
    80091c6e:	16ee                	slli	a3,a3,0x3b
    80091c70:	5ace                	lw	s5,240(sp)
    80091c72:	62d1                	lui	t0,0x14
    80091c74:	3b7c                	fld	fa5,240(a4)
    80091c76:	9035200f          	.insn	4, 0x9035200f
    80091c7a:	3a0d9613          	.insn	4, 0x3a0d9613
    80091c7e:	2374                	fld	fa3,192(a4)
    80091c80:	35d6                	fld	fa1,368(sp)
    80091c82:	61c1                	lui	gp,0x10
    80091c84:	ee2a                	sd	a0,280(sp)
    80091c86:	2ac8                	fld	fa0,144(a3)
    80091c88:	fd25                	bnez	a0,80091c00 <begin_signature+0xc00>
    80091c8a:	ebf0                	sd	a2,208(a5)
    80091c8c:	f9c2                	sd	a6,240(sp)
    80091c8e:	78f8                	ld	a4,240(s1)
    80091c90:	32b1                	addiw	t0,t0,-20 # 13fec <_tbss_end+0x13fec>
    80091c92:	dc21                	beqz	s0,80091bea <begin_signature+0xbea>
    80091c94:	fef9                	bnez	a3,80091c72 <begin_signature+0xc72>
    80091c96:	48a9                	li	a7,10
    80091c98:	3661                	addiw	a2,a2,-8
    80091c9a:	d304                	sw	s1,32(a4)
    80091c9c:	0639                	addi	a2,a2,14
    80091c9e:	4fe067c3          	.insn	4, 0x4fe067c3
    80091ca2:	4b91                	li	s7,4
    80091ca4:	52b48263          	beq	s1,a1,800921c8 <begin_signature+0x11c8>
    80091ca8:	ab02                	fsd	ft0,400(sp)
    80091caa:	2cccff2b          	.insn	4, 0x2cccff2b
    80091cae:	0f75                	addi	t5,t5,29
    80091cb0:	b8c4                	fsd	fs1,176(s1)
    80091cb2:	707e                	.insn	2, 0x707e
    80091cb4:	a419                	j	80091eba <begin_signature+0xeba>
    80091cb6:	1bc0                	addi	s0,sp,500
    80091cb8:	124d                	addi	tp,tp,-13 # fffffffffffffff3 <_end+0xffffffff7ff6758f>
    80091cba:	bc69                	j	80091754 <begin_signature+0x754>
    80091cbc:	11be0a23          	sb	s11,276(t3) # bf5d2d5e <_end+0x3f53a2fa>
    80091cc0:	505a                	.insn	2, 0x505a
    80091cc2:	e49d                	bnez	s1,80091cf0 <begin_signature+0xcf0>
    80091cc4:	ae60                	fsd	fs0,216(a2)
    80091cc6:	0e212443          	.insn	4, 0x0e212443
    80091cca:	45825e67          	.insn	4, 0x45825e67
    80091cce:	1705                	addi	a4,a4,-31
    80091cd0:	2929                	addiw	s2,s2,10
    80091cd2:	c056                	sw	s5,0(sp)
    80091cd4:	14ed                	addi	s1,s1,-5 # affb <_tbss_end+0xaffb>
    80091cd6:	3fb70daf          	.insn	4, 0x3fb70daf
    80091cda:	108c                	addi	a1,sp,96
    80091cdc:	9d8c                	.insn	2, 0x9d8c
    80091cde:	731c                	ld	a5,32(a4)
    80091ce0:	a776ca3f 019d2ab4 	.insn	8, 0x019d2ab4a776ca3f
    80091ce8:	df8c                	sw	a1,56(a5)
    80091cea:	473a                	lw	a4,140(sp)
    80091cec:	d1ba                	sw	a4,224(sp)
    80091cee:	852e141b          	.insn	4, 0x852e141b
    80091cf2:	e886                	sd	ra,80(sp)
    80091cf4:	fdc1                	bnez	a1,80091c8c <begin_signature+0xc8c>
    80091cf6:	614c                	ld	a1,128(a0)
    80091cf8:	d2d5                	beqz	a3,80091c9c <begin_signature+0xc9c>
    80091cfa:	1074                	addi	a3,sp,44
    80091cfc:	bb76                	fsd	ft9,432(sp)
    80091cfe:	342d                	addiw	s0,s0,-21
    80091d00:	955f 73ea f4f9      	.insn	6, 0xf4f973ea955f
    80091d06:	1ed5                	addi	t4,t4,-11
    80091d08:	ed15                	bnez	a0,80091d44 <begin_signature+0xd44>
    80091d0a:	01b5                	addi	gp,gp,13 # 1000d <_tbss_end+0x1000d>
    80091d0c:	85be                	mv	a1,a5
    80091d0e:	0da0                	addi	s0,sp,728
    80091d10:	bbb61fc7          	fmsub.d	ft11,fa2,fs11,fs7,rtz
    80091d14:	3966377f 86b9999c 	.insn	16, 0xfa2f597f79ea940386b9999c3966377f
    80091d1c:	79ea9403 fa2f597f 
    80091d24:	fdde                	sd	s7,248(sp)
    80091d26:	0ed5                	addi	t4,t4,21
    80091d28:	dd52                	sw	s4,184(sp)
    80091d2a:	1128                	addi	a0,sp,168
    80091d2c:	1006                	c.slli	zero,0x21
    80091d2e:	a4ce4ae7          	.insn	4, 0xa4ce4ae7
    80091d32:	81e8                	.insn	2, 0x81e8
    80091d34:	4e025347          	.insn	4, 0x4e025347
    80091d38:	3064ff07          	.insn	4, 0x3064ff07
    80091d3c:	9c9e                	add	s9,s9,t2
    80091d3e:	1c99                	addi	s9,s9,-26
    80091d40:	d6e0                	sw	s0,108(a3)
    80091d42:	cbac                	sw	a1,80(a5)
    80091d44:	aa44                	fsd	fs1,144(a2)
    80091d46:	764c                	ld	a1,168(a2)
    80091d48:	ab29                	j	80092262 <begin_signature+0x1262>
    80091d4a:	b5f1                	j	80091c16 <begin_signature+0xc16>
    80091d4c:	5f11b413          	sltiu	s0,gp,1521
    80091d50:	b01d                	j	80091576 <begin_signature+0x576>
    80091d52:	f361                	bnez	a4,80091d12 <begin_signature+0xd12>
    80091d54:	396d                	addiw	s2,s2,-5
    80091d56:	530c5be7          	.insn	4, 0x530c5be7
    80091d5a:	aa40c02b          	.insn	4, 0xaa40c02b
    80091d5e:	6d235e0b          	.insn	4, 0x6d235e0b
    80091d62:	3d2e                	fld	fs10,232(sp)
    80091d64:	05c2                	slli	a1,a1,0x10
    80091d66:	d13e4867          	.insn	4, 0xd13e4867
    80091d6a:	b7fa                	fsd	ft10,488(sp)
    80091d6c:	4314                	lw	a3,0(a4)
    80091d6e:	0051                	c.nop	20
    80091d70:	bb75                	j	80091b2c <begin_signature+0xb2c>
    80091d72:	1840                	addi	s0,sp,52
    80091d74:	2302db9b          	.insn	4, 0x2302db9b
    80091d78:	ef6e                	sd	s11,408(sp)
    80091d7a:	af25                	j	800924b2 <begin_signature+0x14b2>
    80091d7c:	b3b6                	fsd	fa3,480(sp)
    80091d7e:	6678                	ld	a4,200(a2)
    80091d80:	beb1                	j	800918dc <begin_signature+0x8dc>
    80091d82:	8f90                	.insn	2, 0x8f90
    80091d84:	7744d95b          	.insn	4, 0x7744d95b
    80091d88:	149f 600d 528d      	.insn	6, 0x528d600d149f
    80091d8e:	1b94                	addi	a3,sp,496
    80091d90:	da11                	beqz	a2,80091ca4 <begin_signature+0xca4>
    80091d92:	c6c4                	sw	s1,12(a3)
    80091d94:	35f9                	addiw	a1,a1,-2
    80091d96:	0b44                	addi	s1,sp,404
    80091d98:	2b23dc4f          	fnmadd.d	fs8,ft7,fs2,ft5,unknown
    80091d9c:	ae75                	j	80092158 <begin_signature+0x1158>
    80091d9e:	58b6                	lw	a7,108(sp)
    80091da0:	c74d                	beqz	a4,80091e4a <begin_signature+0xe4a>
    80091da2:	af49                	j	80092534 <begin_signature+0x1534>
    80091da4:	8868                	.insn	2, 0x8868
    80091da6:	4582                	lw	a1,0(sp)
    80091da8:	bb09                	j	80091aba <begin_signature+0xaba>
    80091daa:	853842a3          	.insn	4, 0x853842a3
    80091dae:	419c                	lw	a5,0(a1)
    80091db0:	4086dc17          	auipc	s8,0x4086d
    80091db4:	2fa1                	addiw	t6,t6,8 # 1c008 <_tbss_end+0x1c008>
    80091db6:	1ffe                	slli	t6,t6,0x3f
    80091db8:	a5e1                	j	80092480 <begin_signature+0x1480>
    80091dba:	fbb8                	sd	a4,112(a5)
    80091dbc:	5adf 17e2 24f0      	.insn	6, 0x24f017e25adf
    80091dc2:	11d0                	addi	a2,sp,228
    80091dc4:	7f14                	ld	a3,56(a4)
    80091dc6:	1b65                	addi	s6,s6,-7 # 15ff9 <_tbss_end+0x15ff9>
    80091dc8:	d839                	beqz	s0,80091d1e <begin_signature+0xd1e>
    80091dca:	d71c                	sw	a5,40(a4)
    80091dcc:	5941                	li	s2,-16
    80091dce:	1b66                	slli	s6,s6,0x39
    80091dd0:	1684                	addi	s1,sp,864
    80091dd2:	b8b5                	j	8009164e <begin_signature+0x64e>
    80091dd4:	349a                	fld	fs1,416(sp)
    80091dd6:	511726c7          	fmsub.s	fa3,fa4,fa7,fa0,rdn
    80091dda:	d7f9                	beqz	a5,80091da8 <begin_signature+0xda8>
    80091ddc:	99c9                	andi	a1,a1,-14
    80091dde:	1fdd                	addi	t6,t6,-9
    80091de0:	62b0                	ld	a2,64(a3)
    80091de2:	742a                	ld	s0,168(sp)
    80091de4:	e1b6                	sd	a3,192(sp)
    80091de6:	3664                	fld	fs1,232(a2)
    80091de8:	aa2a                	fsd	fa0,272(sp)
    80091dea:	ae4d                	j	8009219c <begin_signature+0x119c>
    80091dec:	f1f6                	sd	t4,224(sp)
    80091dee:	2cd0                	fld	fa2,152(s1)
    80091df0:	7dd0                	ld	a2,184(a1)
    80091df2:	e25d                	bnez	a2,80091e98 <begin_signature+0xe98>
    80091df4:	e199                	bnez	a1,80091dfa <begin_signature+0xdfa>
    80091df6:	3c18                	fld	fa4,56(s0)
    80091df8:	ca5e                	sw	s7,20(sp)
    80091dfa:	717e                	ld	sp,504(sp)
    80091dfc:	9a60                	.insn	2, 0x9a60
    80091dfe:	6bb9                	lui	s7,0xe
    80091e00:	624bda4b          	fnmsub.d	fs4,fs7,ft4,fa2,unknown
    80091e04:	e6ba                	sd	a4,328(sp)
    80091e06:	7980                	ld	s0,48(a1)
    80091e08:	4eb9                	li	t4,14
    80091e0a:	de9f a607 4fe5      	.insn	6, 0x4fe5a607de9f
    80091e10:	1352                	slli	t1,t1,0x34
    80091e12:	e579                	bnez	a0,80091ee0 <begin_signature+0xee0>
    80091e14:	9b59                	andi	a4,a4,-10
    80091e16:	6a72                	ld	s4,280(sp)
    80091e18:	98df bae1 7d84      	.insn	6, 0x7d84bae198df
    80091e1e:	14fa                	slli	s1,s1,0x3e
    80091e20:	6eb1                	lui	t4,0xc
    80091e22:	0e4790e3          	bne	a5,tp,80092702 <begin_signature+0x1702>
    80091e26:	58ee                	lw	a7,248(sp)
    80091e28:	a66c                	fsd	fa1,200(a2)
    80091e2a:	8abc                	.insn	2, 0x8abc
    80091e2c:	1287e00f          	.insn	4, 0x1287e00f
    80091e30:	ea65882b          	.insn	4, 0xea65882b
    80091e34:	486559e3          	bge	a0,t1,80092ac6 <begin_signature+0x1ac6>
    80091e38:	bb99                	j	80091b8e <begin_signature+0xb8e>
    80091e3a:	9ad6                	add	s5,s5,s5
    80091e3c:	155f1117          	auipc	sp,0x155f1
    80091e40:	1004                	addi	s1,sp,32
    80091e42:	1128                	addi	a0,sp,168
    80091e44:	077e                	slli	a4,a4,0x1f
    80091e46:	59b8                	lw	a4,112(a1)
    80091e48:	ae1c                	fsd	fa5,24(a2)
    80091e4a:	545c                	lw	a5,44(s0)
    80091e4c:	b748                	fsd	fa0,168(a4)
    80091e4e:	5b50                	lw	a2,52(a4)
    80091e50:	a625                	j	80092178 <begin_signature+0x1178>
    80091e52:	98ba                	add	a7,a7,a4
    80091e54:	10d212eb          	.insn	4, 0x10d212eb
    80091e58:	4a76                	lw	s4,92(sp)
    80091e5a:	a09e                	fsd	ft7,64(sp)
    80091e5c:	d1b1                	beqz	a1,80091da0 <begin_signature+0xda0>
    80091e5e:	5b64                	lw	s1,116(a4)
    80091e60:	4dde                	lw	s11,212(sp)
    80091e62:	5e0a                	lw	t3,160(sp)
    80091e64:	7abc9e67          	.insn	4, 0x7abc9e67
    80091e68:	d16d                	beqz	a0,80091e4a <begin_signature+0xe4a>
    80091e6a:	a4dd                	j	80092150 <begin_signature+0x1150>
    80091e6c:	e0a4                	sd	s1,64(s1)
    80091e6e:	0296                	slli	t0,t0,0x5
    80091e70:	88f9                	andi	s1,s1,30
    80091e72:	a932                	fsd	fa2,144(sp)
    80091e74:	6cdd                	lui	s9,0x17
    80091e76:	4c14                	lw	a3,24(s0)
    80091e78:	3822                	fld	fa6,40(sp)
    80091e7a:	75b2                	ld	a1,296(sp)
    80091e7c:	744d                	lui	s0,0xffff3
    80091e7e:	32d0753b          	.insn	4, 0x32d0753b
    80091e82:	ece9                	bnez	s1,80091f5c <begin_signature+0xf5c>
    80091e84:	70a1                	lui	ra,0xfffe8
    80091e86:	65ee                	ld	a1,216(sp)
    80091e88:	253e                	fld	fa0,456(sp)
    80091e8a:	6e70                	ld	a2,216(a2)
    80091e8c:	08fc                	addi	a5,sp,92
    80091e8e:	0cdf2413          	slti	s0,t5,205
    80091e92:	0606                	slli	a2,a2,0x1
    80091e94:	1ea9                	addi	t4,t4,-22 # bfea <_tbss_end+0xbfea>
    80091e96:	7650                	ld	a2,168(a2)
    80091e98:	d64a                	sw	s2,44(sp)
    80091e9a:	6b14                	ld	a3,16(a4)
    80091e9c:	f35f 53dd ea94      	.insn	6, 0xea9453ddf35f
    80091ea2:	c39a                	sw	t1,196(sp)
    80091ea4:	2f54                	fld	fa3,152(a4)
    80091ea6:	de677037          	lui	zero,0xde677
    80091eaa:	700c                	ld	a1,32(s0)
    80091eac:	ef31                	bnez	a4,80091f08 <begin_signature+0xf08>
    80091eae:	a7e74df3          	.insn	4, 0xa7e74df3
    80091eb2:	58a6                	lw	a7,104(sp)
    80091eb4:	fc08                	sd	a0,56(s0)
    80091eb6:	5494                	lw	a3,40(s1)
    80091eb8:	ddd2e1d7          	.insn	4, 0xddd2e1d7
    80091ebc:	941c                	.insn	2, 0x941c
    80091ebe:	22aa                	fld	ft5,136(sp)
    80091ec0:	c408                	sw	a0,8(s0)
    80091ec2:	435d                	li	t1,23
    80091ec4:	5850                	lw	a2,52(s0)
    80091ec6:	7a20                	ld	s0,112(a2)
    80091ec8:	9b0c46b3          	.insn	4, 0x9b0c46b3
    80091ecc:	4b2e                	lw	s6,200(sp)
    80091ece:	362f7b57          	.insn	4, 0x362f7b57
    80091ed2:	2a23acc7          	fmsub.d	fs9,ft7,ft2,ft5,rdn
    80091ed6:	665a                	ld	a2,400(sp)
    80091ed8:	886d                	andi	s0,s0,27
    80091eda:	db1a00db          	.insn	4, 0xdb1a00db
    80091ede:	345f 8867 b8c6      	.insn	6, 0xb8c68867345f
    80091ee4:	1726                	slli	a4,a4,0x29
    80091ee6:	285e2e5b          	.insn	4, 0x285e2e5b
    80091eea:	6fb02323          	sw	s11,1766(zero) # 6e6 <_tbss_end+0x6e6>
    80091eee:	9e571007          	.insn	4, 0x9e571007
    80091ef2:	70f3c2b3          	.insn	4, 0x70f3c2b3
    80091ef6:	34ac                	fld	fa1,104(s1)
    80091ef8:	b4dd                	j	800919de <begin_signature+0x9de>
    80091efa:	f498b837          	lui	a6,0xf498b
    80091efe:	0f8c                	addi	a1,sp,976
    80091f00:	6b04                	ld	s1,16(a4)
    80091f02:	742c                	ld	a1,104(s0)
    80091f04:	27a88423          	sb	s10,616(a7)
    80091f08:	7c7f                	.insn	2, 0x7c7f
    80091f0a:	af51                	j	8009269e <begin_signature+0x169e>
    80091f0c:	bce4                	fsd	fs1,248(s1)
    80091f0e:	0592                	slli	a1,a1,0x4
    80091f10:	e41e703b          	.insn	4, 0xe41e703b
    80091f14:	905a                	c.add	zero,s6
    80091f16:	5731                	li	a4,-20
    80091f18:	7566                	ld	a0,120(sp)
    80091f1a:	31272517          	auipc	a0,0x31272
    80091f1e:	766c                	ld	a1,232(a2)
    80091f20:	1e50                	addi	a2,sp,820
    80091f22:	3812                	fld	fa6,288(sp)
    80091f24:	01bf1ac3          	fmadd.s	fs5,ft10,fs11,ft0,rtz
    80091f28:	f725                	bnez	a4,80091e90 <begin_signature+0xe90>
    80091f2a:	1f94                	addi	a3,sp,1008
    80091f2c:	dc02                	sw	zero,56(sp)
    80091f2e:	6dac                	ld	a1,88(a1)
    80091f30:	61dc                	ld	a5,128(a1)
    80091f32:	8069                	srli	s0,s0,0x1a
    80091f34:	ceb6                	sw	a3,92(sp)
    80091f36:	670a                	ld	a4,128(sp)
    80091f38:	421107c3          	fmadd.d	fa5,ft2,ft1,fs0,rne
    80091f3c:	5054                	lw	a3,36(s0)
    80091f3e:	11a8                	addi	a0,sp,232
    80091f40:	4f91                	li	t6,4
    80091f42:	58d89953          	.insn	4, 0x58d89953
    80091f46:	5f50                	lw	a2,60(a4)
    80091f48:	619f 3194 1f45      	.insn	6, 0x1f453194619f
    80091f4e:	3365                	addiw	t1,t1,-7
    80091f50:	14fea78b          	.insn	4, 0x14fea78b
    80091f54:	9a78                	.insn	2, 0x9a78
    80091f56:	2ce1                	addiw	s9,s9,24 # 17018 <_tbss_end+0x17018>
    80091f58:	8135                	srli	a0,a0,0xd
    80091f5a:	d940dbdb          	.insn	4, 0xd940dbdb
    80091f5e:	2dae                	fld	fs11,200(sp)
    80091f60:	00b9                	addi	ra,ra,14 # fffffffffffe800e <_end+0xffffffff7ff4f5aa>
    80091f62:	680cdea3          	.insn	4, 0x680cdea3
    80091f66:	12c9                	addi	t0,t0,-14
    80091f68:	48c5                	li	a7,17
    80091f6a:	69ce                	ld	s3,208(sp)
    80091f6c:	f31f 06e8 cee1      	.insn	6, 0xcee106e8f31f
    80091f72:	4430                	lw	a2,72(s0)
    80091f74:	ea31                	bnez	a2,80091fc8 <begin_signature+0xfc8>
    80091f76:	bc83798b          	.insn	4, 0xbc83798b
    80091f7a:	8e56                	mv	t3,s5
    80091f7c:	e0ba                	sd	a4,64(sp)
    80091f7e:	7cf8                	ld	a4,248(s1)
    80091f80:	f71c                	sd	a5,40(a4)
    80091f82:	0d58                	addi	a4,sp,660
    80091f84:	2c64                	fld	fs1,216(s0)
    80091f86:	5f05                	li	t5,-31
    80091f88:	7f1d                	lui	t5,0xfffe7
    80091f8a:	3755                	addiw	a4,a4,-11
    80091f8c:	d59a                	sw	t1,232(sp)
    80091f8e:	41c5                	li	gp,17
    80091f90:	06ff b14e cb70 5694 	.insn	10, 0x67b25694cb70b14e06ff
    80091f98:	67b2 
    80091f9a:	7376                	ld	t1,376(sp)
    80091f9c:	251e                	fld	fa0,448(sp)
    80091f9e:	341e                	fld	fs0,480(sp)
    80091fa0:	6c94                	ld	a3,24(s1)
    80091fa2:	99be                	add	s3,s3,a5
    80091fa4:	4f7cbe83          	ld	t4,1271(s9)
    80091fa8:	1958                	addi	a4,sp,180
    80091faa:	0a3e                	slli	s4,s4,0xf
    80091fac:	4e3720b7          	lui	ra,0x4e372
    80091fb0:	3249                	addiw	tp,tp,-14 # fffffffffffffff2 <_end+0xffffffff7ff6758e>
    80091fb2:	6b02                	ld	s6,0(sp)
    80091fb4:	3ea5                	addiw	t4,t4,-23
    80091fb6:	07d5                	addi	a5,a5,21 # a015 <_tbss_end+0xa015>
    80091fb8:	9aa4                	.insn	2, 0x9aa4
    80091fba:	e5be                	sd	a5,200(sp)
    80091fbc:	502dd9e7          	.insn	4, 0x502dd9e7
    80091fc0:	75fa                	ld	a1,440(sp)
    80091fc2:	951260b7          	lui	ra,0x95126
    80091fc6:	3792                	fld	fa5,288(sp)
    80091fc8:	6a92                	ld	s5,256(sp)
    80091fca:	41fa                	lw	gp,156(sp)
    80091fcc:	3531                	addiw	a0,a0,-20 # ffffffffb1303f06 <_end+0xffffffff3126b4a2>
    80091fce:	6c972387          	flw	ft7,1737(a4)
    80091fd2:	715d                	addi	sp,sp,-80
    80091fd4:	60105af3          	csrrwi	s5,0x601,0
    80091fd8:	57c8072f          	.insn	4, 0x57c8072f
    80091fdc:	a2b0                	fsd	fa2,64(a3)
    80091fde:	716b4737          	lui	a4,0x716b4
    80091fe2:	8225                	srli	a2,a2,0x9
    80091fe4:	47e880ab          	.insn	4, 0x47e880ab
    80091fe8:	a85d                	j	8009209e <begin_signature+0x109e>
    80091fea:	7e56                	ld	t3,368(sp)
    80091fec:	18d854bb          	.insn	4, 0x18d854bb
    80091ff0:	bdc6                	fsd	fa7,248(sp)
    80091ff2:	95d1                	srai	a1,a1,0x34
    80091ff4:	52b1                	li	t0,-20
    80091ff6:	5619                	li	a2,-26
    80091ff8:	a45a                	fsd	fs6,8(sp)
    80091ffa:	c2c4                	sw	s1,4(a3)
    80091ffc:	3171                	addiw	sp,sp,-4 # ffffffff95682e38 <_end+0xffffffff155ea3d4>
    80091ffe:	59a0                	lw	s0,112(a1)
    80092000:	58a2                	lw	a7,40(sp)
    80092002:	3fe12b8b          	.insn	4, 0x3fe12b8b
    80092006:	356c                	fld	fa1,232(a0)
    80092008:	20df 964b ca7e      	.insn	6, 0xca7e964b20df
    8009200e:	4a2a                	lw	s4,136(sp)
    80092010:	52a6                	lw	t0,104(sp)
    80092012:	406d0e27          	.insn	4, 0x406d0e27
    80092016:	2df8                	fld	fa4,216(a1)
    80092018:	0785                	addi	a5,a5,1
    8009201a:	61d1ed43          	fmadd.s	fs10,ft3,ft9,fa2,unknown
    8009201e:	76e1                	lui	a3,0xffff8
    80092020:	1c2094ef          	jal	s1,8009b1e2 <_end+0x277e>
    80092024:	d7c0                	sw	s0,44(a5)
    80092026:	54ac                	lw	a1,104(s1)
    80092028:	a53c                	fsd	fa5,72(a0)
    8009202a:	eee9c6eb          	.insn	4, 0xeee9c6eb
    8009202e:	5e46                	lw	t3,112(sp)
    80092030:	a7ba                	fsd	fa4,456(sp)
    80092032:	03d2                	slli	t2,t2,0x14
    80092034:	d1ed                	beqz	a1,80092016 <begin_signature+0x1016>
    80092036:	53a0                	lw	s0,96(a5)
    80092038:	4931                	li	s2,12
    8009203a:	e064                	sd	s1,192(s0)
    8009203c:	7d16c277          	.insn	4, 0x7d16c277
    80092040:	889a                	mv	a7,t1
    80092042:	d80e                	sw	gp,48(sp)
    80092044:	e7cd                	bnez	a5,800920ee <begin_signature+0x10ee>
    80092046:	3a25                	addiw	s4,s4,-23 # fffffffffffe7fe9 <_end+0xffffffff7ff4f585>
    80092048:	a7d5                	j	8009282c <begin_signature+0x182c>
    8009204a:	8c80                	.insn	2, 0x8c80
    8009204c:	a5cd                	j	8009272e <begin_signature+0x172e>
    8009204e:	8eef4dc3          	.insn	4, 0x8eef4dc3
    80092052:	dd75                	beqz	a0,8009204e <begin_signature+0x104e>
    80092054:	7ee8                	ld	a0,248(a3)
    80092056:	9acf021b          	addiw	tp,t5,-1620 # fffffffffffe69ac <_end+0xffffffff7ff4df48>
    8009205a:	7f84                	ld	s1,56(a5)
    8009205c:	d1ee                	sw	s11,224(sp)
    8009205e:	3dca                	fld	fs11,176(sp)
    80092060:	d905                	beqz	a0,80091f90 <begin_signature+0xf90>
    80092062:	682e                	ld	a6,200(sp)
    80092064:	c495                	beqz	s1,80092090 <begin_signature+0x1090>
    80092066:	68670d73          	.insn	4, 0x68670d73
    8009206a:	ee9ba7bb          	.insn	4, 0xee9ba7bb
    8009206e:	6dfe                	ld	s11,472(sp)
    80092070:	44e9                	li	s1,26
    80092072:	35e4                	fld	fs1,232(a1)
    80092074:	4876                	lw	a6,92(sp)
    80092076:	17f6                	slli	a5,a5,0x3d
    80092078:	681a                	ld	a6,384(sp)
    8009207a:	9faa0517          	auipc	a0,0x9faa0
    8009207e:	a2165dbb          	.insn	4, 0xa2165dbb
    80092082:	eef4                	sd	a3,216(a3)
    80092084:	0f68cf7b          	.insn	4, 0x0f68cf7b
    80092088:	5e19                	li	t3,-26
    8009208a:	6e5e                	ld	t3,464(sp)
    8009208c:	350d                	addiw	a0,a0,-29 # 1fb3205d <_tbss_end+0x1fb3205d>
    8009208e:	5b1d                	li	s6,-25
    80092090:	7f387703          	.insn	4, 0x7f387703
    80092094:	6a3d03fb          	.insn	4, 0x6a3d03fb
    80092098:	feb153eb          	.insn	4, 0xfeb153eb
    8009209c:	fd7f                	.insn	2, 0xfd7f
    8009209e:	3d35                	addiw	s10,s10,-19 # ffffffff8d835bd1 <_end+0xffffffff0d79d16d>
    800920a0:	30fa                	fld	ft1,440(sp)
    800920a2:	476816bb          	.insn	4, 0x476816bb
    800920a6:	608c                	ld	a1,0(s1)
    800920a8:	92dc                	.insn	2, 0x92dc
    800920aa:	8cfeb7ff 055a26e8 	.insn	16, 0x8c320bbe386969b0055a26e88cfeb7ff
    800920b2:	386969b0 8c320bbe 
    800920ba:	1eac                	addi	a1,sp,888
    800920bc:	10b2                	slli	ra,ra,0x2c
    800920be:	e14a03ab          	.insn	4, 0xe14a03ab
    800920c2:	6e09                	lui	t3,0x2
    800920c4:	b022                	fsd	fs0,32(sp)
    800920c6:	55dd                	li	a1,-9
    800920c8:	6decd657          	.insn	4, 0x6decd657
    800920cc:	6f9d                	lui	t6,0x7
    800920ce:	40ba                	lw	ra,140(sp)
    800920d0:	0559d64b          	.insn	4, 0x0559d64b
    800920d4:	ba0c                	fsd	fa1,48(a2)
    800920d6:	6860                	ld	s0,208(s0)
    800920d8:	62da                	ld	t0,400(sp)
    800920da:	0941eda7          	.insn	4, 0x0941eda7
    800920de:	129c                	addi	a5,sp,352
    800920e0:	6a10                	ld	a2,16(a2)
    800920e2:	da31                	beqz	a2,80092036 <begin_signature+0x1036>
    800920e4:	74c9                	lui	s1,0xffff2
    800920e6:	77d4                	ld	a3,168(a5)
    800920e8:	b269                	j	80091a72 <begin_signature+0xa72>
    800920ea:	68664677          	.insn	4, 0x68664677
    800920ee:	e94544e7          	.insn	4, 0xe94544e7
    800920f2:	824b323b          	.insn	4, 0x824b323b
    800920f6:	538c                	lw	a1,32(a5)
    800920f8:	1778                	addi	a4,sp,940
    800920fa:	0605                	addi	a2,a2,1
    800920fc:	d89f 7e72 1449      	.insn	6, 0x14497e72d89f
    80092102:	6558                	ld	a4,136(a0)
    80092104:	3fda                	fld	ft11,432(sp)
    80092106:	7c1d                	lui	s8,0xfffe7
    80092108:	5252                	lw	tp,52(sp)
    8009210a:	61cc8a8b          	.insn	4, 0x61cc8a8b
    8009210e:	715c                	ld	a5,160(a0)
    80092110:	b44199ff 187c1827 	.insn	12, 0x8548e34e187c1827b44199ff
    80092118:	8548e34e 
    8009211c:	b8bc                	fsd	fa5,112(s1)
    8009211e:	426d                	li	tp,27
    80092120:	3b0f0247          	fmsub.d	ft4,ft10,fa6,ft7,rne
    80092124:	7599                	lui	a1,0xfffe6
    80092126:	35c0                	fld	fs0,168(a1)
    80092128:	8d11                	sub	a0,a0,a2
    8009212a:	c12d                	beqz	a0,8009218c <begin_signature+0x118c>
    8009212c:	b590                	fsd	fa2,40(a1)
    8009212e:	7c4c                	ld	a1,184(s0)
    80092130:	7e25                	lui	t3,0xfffe9
    80092132:	a369c80b          	.insn	4, 0xa369c80b
    80092136:	5af4                	lw	a3,116(a3)
    80092138:	f41c                	sd	a5,40(s0)
    8009213a:	5df8                	lw	a4,124(a1)
    8009213c:	54be                	lw	s1,236(sp)
    8009213e:	2500                	fld	fs0,8(a0)
    80092140:	6592                	ld	a1,256(sp)
    80092142:	fe26                	sd	s1,312(sp)
    80092144:	3f61f6c7          	.insn	4, 0x3f61f6c7
    80092148:	ff76                	sd	t4,440(sp)
    8009214a:	18be                	slli	a7,a7,0x2f
    8009214c:	ffc2                	sd	a6,504(sp)
    8009214e:	1114                	addi	a3,sp,160
    80092150:	dccd                	beqz	s1,8009210a <begin_signature+0x110a>
    80092152:	b900                	fsd	fs0,48(a0)
    80092154:	a474                	fsd	fa3,200(s0)
    80092156:	1cd1                	addi	s9,s9,-12
    80092158:	af70                	fsd	fa2,216(a4)
    8009215a:	bd6a                	fsd	fs10,184(sp)
    8009215c:	2c56                	fld	fs8,336(sp)
    8009215e:	3101                	addiw	sp,sp,-32
    80092160:	1da06863          	bltu	zero,s10,80092330 <begin_signature+0x1330>
    80092164:	7509                	lui	a0,0xfffe2
    80092166:	6596                	ld	a1,320(sp)
    80092168:	3d098477          	.insn	4, 0x3d098477
    8009216c:	7330                	ld	a2,96(a4)
    8009216e:	0072                	c.slli	zero,0x1c
    80092170:	17df 3e22 a1ab      	.insn	6, 0xa1ab3e2217df
    80092176:	493d                	li	s2,15
    80092178:	7e34                	ld	a3,120(a2)
    8009217a:	98212773          	csrrs	a4,0x982,sp
    8009217e:	31734cf7          	.insn	4, 0x31734cf7
    80092182:	7c1c1dc7          	.insn	4, 0x7c1c1dc7
    80092186:	6b917b6f          	jal	s6,800aa03e <_end+0x115da>
    8009218a:	1f48                	addi	a0,sp,948
    8009218c:	7515                	lui	a0,0xfffe5
    8009218e:	35f0                	fld	fa2,232(a1)
    80092190:	6ee8                	ld	a0,216(a3)
    80092192:	5734                	lw	a3,104(a4)
    80092194:	4a8917bb          	.insn	4, 0x4a8917bb
    80092198:	b276                	fsd	ft9,288(sp)
    8009219a:	a372                	fsd	ft8,384(sp)
    8009219c:	746c                	ld	a1,232(s0)
    8009219e:	05f0                	addi	a2,sp,716
    800921a0:	f0fe                	sd	t6,96(sp)
    800921a2:	74a4                	ld	s1,104(s1)
    800921a4:	bfd5                	j	80092198 <begin_signature+0x1198>
    800921a6:	0512                	slli	a0,a0,0x4
    800921a8:	4202                	lw	tp,0(sp)
    800921aa:	bca1562f          	.insn	4, 0xbca1562f
    800921ae:	4218                	lw	a4,0(a2)
    800921b0:	8394                	.insn	2, 0x8394
    800921b2:	d0ae                	sw	a1,96(sp)
    800921b4:	ef7d                	bnez	a4,800922b2 <begin_signature+0x12b2>
    800921b6:	70667ea7          	.insn	4, 0x70667ea7
    800921ba:	d6bf8b9b          	addiw	s7,t6,-661 # 6d6b <_tbss_end+0x6d6b>
    800921be:	eab738b7          	lui	a7,0xeab73
    800921c2:	d6c0                	sw	s0,44(a3)
    800921c4:	355b1c97          	auipc	s9,0x355b1
    800921c8:	aac97ba3          	.insn	4, 0xaac97ba3
    800921cc:	418bf75b          	.insn	4, 0x418bf75b
    800921d0:	0915                	addi	s2,s2,5
    800921d2:	c72c                	sw	a1,72(a4)
    800921d4:	a14e                	fsd	fs3,128(sp)
    800921d6:	0ae1                	addi	s5,s5,24
    800921d8:	9e8d                	subw	a3,a3,a1
    800921da:	c4b7e1d7          	.insn	4, 0xc4b7e1d7
    800921de:	93aa3ac7          	fmsub.d	fs5,fs4,fs10,fs2,rup
    800921e2:	40cc                	lw	a1,4(s1)
    800921e4:	d4dd                	beqz	s1,80092192 <begin_signature+0x1192>
    800921e6:	8ffd6acf          	.insn	4, 0x8ffd6acf
    800921ea:	3f4e                	fld	ft10,240(sp)
    800921ec:	6160                	ld	s0,192(a0)
    800921ee:	25d4                	fld	fa3,136(a1)
    800921f0:	1b39                	addi	s6,s6,-18
    800921f2:	c978f783          	.insn	4, 0xc978f783
    800921f6:	2ff8                	fld	fa4,216(a5)
    800921f8:	7754                	ld	a3,168(a4)
    800921fa:	4d24                	lw	s1,88(a0)
    800921fc:	95e6                	add	a1,a1,s9
    800921fe:	0611                	addi	a2,a2,4
    80092200:	39b5                	addiw	s3,s3,-19 # 7fd31fed <_tbss_end+0x7fd31fed>
    80092202:	ef8c                	sd	a1,24(a5)
    80092204:	360a                	fld	fa2,160(sp)
    80092206:	22d5                	addiw	t0,t0,21
    80092208:	e556                	sd	s5,136(sp)
    8009220a:	e72e                	sd	a1,392(sp)
    8009220c:	dfcc                	sw	a1,60(a5)
    8009220e:	3182                	fld	ft3,32(sp)
    80092210:	79afe96f          	jal	s2,801909aa <_end+0xf7f46>
    80092214:	a3f2                	fsd	ft8,448(sp)
    80092216:	d3836273          	csrrsi	tp,0xd38,6
    8009221a:	154a90e3          	bne	s5,s4,80092b5a <begin_signature+0x1b5a>
    8009221e:	045f4a63          	blt	t5,t0,80092272 <begin_signature+0x1272>
    80092222:	896e                	mv	s2,s11
    80092224:	81bd                	srli	a1,a1,0xf
    80092226:	076d                	addi	a4,a4,27 # 716b401b <_tbss_end+0x716b401b>
    80092228:	57b959bb          	.insn	4, 0x57b959bb
    8009222c:	298a                	fld	fs3,128(sp)
    8009222e:	6554                	ld	a3,136(a0)
    80092230:	95b6                	add	a1,a1,a3
    80092232:	f2fbbb2b          	.insn	4, 0xf2fbbb2b
    80092236:	3a0a                	fld	fs4,160(sp)
    80092238:	dfbd                	beqz	a5,800921b6 <begin_signature+0x11b6>
    8009223a:	8c2d                	xor	s0,s0,a1
    8009223c:	29f0e2b3          	.insn	4, 0x29f0e2b3
    80092240:	2972                	fld	fs2,280(sp)
    80092242:	8694                	.insn	2, 0x8694
    80092244:	3a0a                	fld	fs4,160(sp)
    80092246:	1506                	slli	a0,a0,0x21
    80092248:	ed19                	bnez	a0,80092266 <begin_signature+0x1266>
    8009224a:	f0e0                	sd	s0,224(s1)
    8009224c:	cb56                	sw	s5,148(sp)
    8009224e:	7161                	addi	sp,sp,-432
    80092250:	4e6c                	lw	a1,92(a2)
    80092252:	9529348f          	.insn	4, 0x9529348f
    80092256:	3a5e                	fld	fs4,496(sp)
    80092258:	534e                	lw	t1,240(sp)
    8009225a:	886db0eb          	.insn	4, 0x886db0eb
    8009225e:	1764                	addi	s1,sp,940
    80092260:	d1e1                	beqz	a1,80092220 <begin_signature+0x1220>
    80092262:	0e30                	addi	a2,sp,792
    80092264:	2393923f f2ce63d2 	.insn	8, 0xf2ce63d22393923f
    8009226c:	5930                	lw	a2,112(a0)
    8009226e:	53a5                	li	t2,-23
    80092270:	8d82                	jr	s11
    80092272:	9376                	add	t1,t1,t4
    80092274:	82de                	mv	t0,s7
    80092276:	33f5                	addiw	t2,t2,-3
    80092278:	479e                	lw	a5,196(sp)
    8009227a:	5b66                	lw	s6,120(sp)
    8009227c:	10a2                	slli	ra,ra,0x28
    8009227e:	0e4c                	addi	a1,sp,788
    80092280:	823c                	.insn	2, 0x823c
    80092282:	f4aa                	sd	a0,104(sp)
    80092284:	08bd                	addi	a7,a7,15 # ffffffffeab7300f <_end+0xffffffff6aada5ab>
    80092286:	48a2                	lw	a7,8(sp)
    80092288:	92bc                	.insn	2, 0x92bc
    8009228a:	72ff                	.insn	2, 0x72ff
    8009228c:	2204                	fld	fs1,0(a2)
    8009228e:	01730627          	.insn	4, 0x01730627
    80092292:	e388b227          	fsd	fs8,-476(a7)
    80092296:	0ec367c3          	.insn	4, 0x0ec367c3
    8009229a:	a5be                	fsd	fa5,200(sp)
    8009229c:	28974607          	.insn	4, 0x28974607
    800922a0:	aab1                	j	800923fc <begin_signature+0x13fc>
    800922a2:	d24541bb          	.insn	4, 0xd24541bb
    800922a6:	254c                	fld	fa1,136(a0)
    800922a8:	1ae8                	addi	a0,sp,380
    800922aa:	fdbee34f          	.insn	4, 0xfdbee34f
    800922ae:	7580                	ld	s0,40(a1)
    800922b0:	6920                	ld	s0,80(a0)
    800922b2:	e21a                	sd	t1,256(sp)
    800922b4:	c199                	beqz	a1,800922ba <begin_signature+0x12ba>
    800922b6:	5666                	lw	a2,120(sp)
    800922b8:	32764073          	.insn	4, 0x32764073
    800922bc:	954a                	add	a0,a0,s2
    800922be:	000d                	c.nop	3
    800922c0:	b10a                	fsd	ft2,160(sp)
    800922c2:	2cb6                	fld	fs9,328(sp)
    800922c4:	699f 76b8 a74e      	.insn	6, 0xa74e76b8699f
    800922ca:	5990                	lw	a2,48(a1)
    800922cc:	35d8                	fld	fa4,168(a1)
    800922ce:	7504                	ld	s1,40(a0)
    800922d0:	e4ce                	sd	s3,72(sp)
    800922d2:	b568                	fsd	fa0,232(a0)
    800922d4:	c99c                	sw	a5,16(a1)
    800922d6:	6ba5                	lui	s7,0x9
    800922d8:	4bb036d7          	.insn	4, 0x4bb036d7
    800922dc:	2aba                	fld	fs5,392(sp)
    800922de:	070e                	slli	a4,a4,0x3
    800922e0:	ba17c2b3          	.insn	4, 0xba17c2b3
    800922e4:	0eb4                	addi	a3,sp,856
    800922e6:	5231                	li	tp,-20
    800922e8:	c1da                	sw	s6,192(sp)
    800922ea:	2d16                	fld	fs10,320(sp)
    800922ec:	b29a                	fsd	ft6,352(sp)
    800922ee:	6fcd                	lui	t6,0x13
    800922f0:	013aa7a7          	fsw	fs3,15(s5)
    800922f4:	14b8                	addi	a4,sp,616
    800922f6:	03f5                	addi	t2,t2,29
    800922f8:	c855                	beqz	s0,800923ac <begin_signature+0x13ac>
    800922fa:	2f0d                	addiw	t5,t5,3
    800922fc:	89fa                	mv	s3,t5
    800922fe:	0c38                	addi	a4,sp,536
    80092300:	782da84b          	fnmsub.s	fa6,fs11,ft2,fa5,rdn
    80092304:	d03d                	beqz	s0,8009226a <begin_signature+0x126a>
    80092306:	2175                	addiw	sp,sp,29
    80092308:	c22b099b          	addiw	s3,s6,-990
    8009230c:	ebae                	sd	a1,464(sp)
    8009230e:	03a9                	addi	t2,t2,10
    80092310:	a80edf3b          	.insn	4, 0xa80edf3b
    80092314:	912e                	add	sp,sp,a1
    80092316:	2748                	fld	fa0,136(a4)
    80092318:	c184                	sw	s1,0(a1)
    8009231a:	da08ed17          	auipc	s10,0xda08e
    8009231e:	49bc                	lw	a5,80(a1)
    80092320:	7806                	ld	a6,96(sp)
    80092322:	fb70                	sd	a2,240(a4)
    80092324:	c7e6                	sw	s9,204(sp)
    80092326:	cb9c7c5b          	.insn	4, 0xcb9c7c5b
    8009232a:	7d11                	lui	s10,0xfffe4
    8009232c:	725940ab          	.insn	4, 0x725940ab
    80092330:	dd80                	sw	s0,56(a1)
    80092332:	95a6                	add	a1,a1,s1
    80092334:	578a6177          	.insn	4, 0x578a6177
    80092338:	ecbd                	bnez	s1,800923b6 <begin_signature+0x13b6>
    8009233a:	9e1c                	.insn	2, 0x9e1c
    8009233c:	1071                	c.nop	-4
    8009233e:	2536                	fld	fa0,328(sp)
    80092340:	7585                	lui	a1,0xfffe1
    80092342:	6c9a                	ld	s9,384(sp)
    80092344:	0e62                	slli	t3,t3,0x18
    80092346:	79dd                	lui	s3,0xffff7
    80092348:	9889                	andi	s1,s1,-30
    8009234a:	1c8249f3          	.insn	4, 0x1c8249f3
    8009234e:	6b39                	lui	s6,0xe
    80092350:	3f3c4307          	.insn	4, 0x3f3c4307
    80092354:	c83e                	sw	a5,16(sp)
    80092356:	57ee                	lw	a5,248(sp)
    80092358:	5cb6                	lw	s9,108(sp)
    8009235a:	eea8                	sd	a0,88(a3)
    8009235c:	3c66                	fld	fs8,120(sp)
    8009235e:	2bdf 6082 61aa      	.insn	6, 0x61aa60822bdf
    80092364:	ff12                	sd	tp,440(sp)
    80092366:	d0c15523          	.insn	4, 0xd0c15523
    8009236a:	39e44747          	fmsub.s	fa4,fs0,ft10,ft7,rmm
    8009236e:	1c78453b          	.insn	4, 0x1c78453b
    80092372:	9248b427          	fsd	ft4,-1752(a7)
    80092376:	0761                	addi	a4,a4,24
    80092378:	e2b5                	bnez	a3,800923dc <begin_signature+0x13dc>
    8009237a:	9791                	srai	a5,a5,0x24
    8009237c:	f6c8                	sd	a0,168(a3)
    8009237e:	43bd                	li	t2,15
    80092380:	26fd                	addiw	a3,a3,31 # ffffffffffff801f <_end+0xffffffff7ff5f5bb>
    80092382:	d408                	sw	a0,40(s0)
    80092384:	8fe6                	mv	t6,s9
    80092386:	5dea6bf3          	csrrsi	s7,0x5de,20
    8009238a:	03822703          	lw	a4,56(tp) # 38 <_tbss_end+0x38>
    8009238e:	775d                	lui	a4,0xffff7
    80092390:	88b1                	andi	s1,s1,12
    80092392:	7af5                	lui	s5,0xffffd
    80092394:	e500                	sd	s0,8(a0)
    80092396:	1d85                	addi	s11,s11,-31
    80092398:	1cd4                	addi	a3,sp,628
    8009239a:	b79d329b          	.insn	4, 0xb79d329b
    8009239e:	15f2                	slli	a1,a1,0x3c
    800923a0:	099c                	addi	a5,sp,208
    800923a2:	f4ad                	bnez	s1,8009230c <begin_signature+0x130c>
    800923a4:	9382                	jalr	t2
    800923a6:	4e2b2837          	lui	a6,0x4e2b2
    800923aa:	5da8                	lw	a0,120(a1)
    800923ac:	aade                	fsd	fs7,336(sp)
    800923ae:	4bb8                	lw	a4,80(a5)
    800923b0:	5b24                	lw	s1,112(a4)
    800923b2:	9225586b          	.insn	4, 0x9225586b
    800923b6:	5744                	lw	s1,44(a4)
    800923b8:	35a6                	fld	fa1,104(sp)
    800923ba:	a7f2                	fsd	ft8,456(sp)
    800923bc:	74f5                	lui	s1,0xffffd
    800923be:	5e8f3cdb          	.insn	4, 0x5e8f3cdb
    800923c2:	ee7f a356 5ae8 c9ce 	.insn	22, 0x55d31ad46a15e19f71bbbf5843bcc9ce5ae8a356ee7f
    800923ca:	43bc bf58 71bb e19f 
    800923d2:	6a15 1ad4 55d3 
    800923d8:	1e1a                	slli	t3,t3,0x26
    800923da:	7dac                	ld	a1,120(a1)
    800923dc:	4c74                	lw	a3,92(s0)
    800923de:	4020                	lw	s0,64(s0)
    800923e0:	54f1                	li	s1,-4
    800923e2:	fe3e                	sd	a5,312(sp)
    800923e4:	98fa                	add	a7,a7,t5
    800923e6:	2bff 586c bc01 6640 	.insn	14, 0x56d8b41818296640bc01586c2bff
    800923ee:	1829 b418 56d8 
    800923f4:	7c2e                	ld	s8,232(sp)
    800923f6:	77ee                	ld	a5,248(sp)
    800923f8:	46ea                	lw	a3,152(sp)
    800923fa:	ffec                	sd	a1,248(a5)
    800923fc:	1135                	addi	sp,sp,-19
    800923fe:	2a08                	fld	fa0,16(a2)
    80092400:	7280                	ld	s0,32(a3)
    80092402:	649a                	ld	s1,384(sp)
    80092404:	2604144f          	.insn	4, 0x2604144f
    80092408:	fb86                	sd	ra,496(sp)
    8009240a:	e132                	sd	a2,128(sp)
    8009240c:	051a                	slli	a0,a0,0x6
    8009240e:	28d4                	fld	fa3,144(s1)
    80092410:	8b96                	mv	s7,t0
    80092412:	30ec                	fld	fa1,224(s1)
    80092414:	9aac                	.insn	2, 0x9aac
    80092416:	2336                	fld	ft6,328(sp)
    80092418:	f2ed                	bnez	a3,800923fa <begin_signature+0x13fa>
    8009241a:	f9ee                	sd	s11,240(sp)
    8009241c:	6fba                	ld	t6,392(sp)
    8009241e:	01f5                	addi	gp,gp,29
    80092420:	4e04a53f 50f8605a 	.insn	8, 0x50f8605a4e04a53f
    80092428:	f571                	bnez	a0,800923f4 <begin_signature+0x13f4>
    8009242a:	cdc5                	beqz	a1,800924e2 <begin_signature+0x14e2>
    8009242c:	5e81                	li	t4,-32
    8009242e:	268c                	fld	fa1,8(a3)
    80092430:	57e2                	lw	a5,56(sp)
    80092432:	8845                	andi	s0,s0,17
    80092434:	53fd9e27          	.insn	4, 0x53fd9e27
    80092438:	bfa1                	j	80092390 <begin_signature+0x1390>
    8009243a:	e5dd                	bnez	a1,800924e8 <begin_signature+0x14e8>
    8009243c:	a922                	fsd	fs0,144(sp)
    8009243e:	40c0                	lw	s0,4(s1)
    80092440:	f516                	sd	t0,168(sp)
    80092442:	af3c                	fsd	fa5,88(a4)
    80092444:	49760783          	lb	a5,1175(a2)
    80092448:	0c05fe57          	.insn	4, 0x0c05fe57
    8009244c:	c530                	sw	a2,72(a0)
    8009244e:	c33313d3          	.insn	4, 0xc33313d3
    80092452:	e136                	sd	a3,128(sp)
    80092454:	4e44                	lw	s1,28(a2)
    80092456:	346a70ef          	jal	8013979c <_end+0xa0d38>
    8009245a:	af86                	fsd	ft1,472(sp)
    8009245c:	1652                	slli	a2,a2,0x34
    8009245e:	54f8                	lw	a4,108(s1)
    80092460:	1635                	addi	a2,a2,-19
    80092462:	1929                	addi	s2,s2,-22
    80092464:	e0cd                	bnez	s1,80092506 <begin_signature+0x1506>
    80092466:	4f3d                	li	t5,15
    80092468:	0a65                	addi	s4,s4,25
    8009246a:	8689                	srai	a3,a3,0x2
    8009246c:	5c28d74f          	.insn	4, 0x5c28d74f
    80092470:	112943af          	.insn	4, 0x112943af
    80092474:	3631                	addiw	a2,a2,-20
    80092476:	79595aeb          	.insn	4, 0x79595aeb
    8009247a:	255c                	fld	fa5,136(a0)
    8009247c:	d44e                	sw	s3,40(sp)
    8009247e:	7206                	ld	tp,96(sp)
    80092480:	d1e1                	beqz	a1,80092440 <begin_signature+0x1440>
    80092482:	bae5                	j	80091e7a <begin_signature+0xe7a>
    80092484:	9555                	srai	a0,a0,0x35
    80092486:	77631bab          	.insn	4, 0x77631bab
    8009248a:	342d                	addiw	s0,s0,-21 # ffffffffffff2feb <_end+0xffffffff7ff5a587>
    8009248c:	71b6bf03          	ld	t5,1819(a3)
    80092490:	20c4                	fld	fs1,128(s1)
    80092492:	1d45                	addi	s10,s10,-15 # fffffffffffe3ff1 <_end+0xffffffff7ff4b58d>
    80092494:	8525                	srai	a0,a0,0x9
    80092496:	141e                	slli	s0,s0,0x27
    80092498:	90c1                	srli	s1,s1,0x30
    8009249a:	fb96e56b          	.insn	4, 0xfb96e56b
    8009249e:	4ee2                	lw	t4,24(sp)
    800924a0:	c9ac                	sw	a1,80(a1)
    800924a2:	f5c1                	bnez	a1,8009242a <begin_signature+0x142a>
    800924a4:	914d                	srli	a0,a0,0x33
    800924a6:	9a660903          	lb	s2,-1626(a2)
    800924aa:	e17d                	bnez	a0,80092590 <begin_signature+0x1590>
    800924ac:	36ae                	fld	fa3,232(sp)
    800924ae:	37ed                	addiw	a5,a5,-5
    800924b0:	fffd                	bnez	a5,800924ae <begin_signature+0x14ae>
    800924b2:	e455                	bnez	s0,8009255e <begin_signature+0x155e>
    800924b4:	87f6                	mv	a5,t4
    800924b6:	212e                	fld	ft2,200(sp)
    800924b8:	27631d77          	.insn	4, 0x27631d77
    800924bc:	1588                	addi	a0,sp,736
    800924be:	5864                	lw	s1,116(s0)
    800924c0:	0d86                	slli	s11,s11,0x1
    800924c2:	0f92                	slli	t6,t6,0x4
    800924c4:	a8e6                	fsd	fs9,80(sp)
    800924c6:	510e                	lw	sp,224(sp)
    800924c8:	2d51                	addiw	s10,s10,20
    800924ca:	daae                	sw	a1,116(sp)
    800924cc:	b202                	fsd	ft0,288(sp)
    800924ce:	36be                	fld	fa3,488(sp)
    800924d0:	434e                	lw	t1,208(sp)
    800924d2:	27f91187          	.insn	4, 0x27f91187
    800924d6:	922e2bbf 85705b93 	.insn	8, 0x85705b93922e2bbf
    800924de:	36f8                	fld	fa4,232(a3)
    800924e0:	c089                	beqz	s1,800924e2 <begin_signature+0x14e2>
    800924e2:	2bed57e7          	.insn	4, 0x2bed57e7
    800924e6:	50c0                	lw	s0,36(s1)
    800924e8:	1c16                	slli	s8,s8,0x25
    800924ea:	b0c01aab          	.insn	4, 0xb0c01aab
    800924ee:	43bd698b          	.insn	4, 0x43bd698b
    800924f2:	c574                	sw	a3,76(a0)
    800924f4:	6ead                	lui	t4,0xb
    800924f6:	496a                	lw	s2,152(sp)
    800924f8:	ecd37abb          	.insn	4, 0xecd37abb
    800924fc:	23fe                	fld	ft7,472(sp)
    800924fe:	40ae                	lw	ra,200(sp)
    80092500:	2ced                	addiw	s9,s9,27 # ffffffffb56431df <_end+0xffffffff355aa77b>
    80092502:	accc7df3          	csrrci	s11,0xacc,24
    80092506:	4f88                	lw	a0,24(a5)
    80092508:	b360                	fsd	fs0,224(a4)
    8009250a:	ff7c                	sd	a5,248(a4)
    8009250c:	3d35eceb          	.insn	4, 0x3d35eceb
    80092510:	432a                	lw	t1,136(sp)
    80092512:	378c79af          	.insn	4, 0x378c79af
    80092516:	5e51                	li	t3,-12
    80092518:	d286                	sw	ra,100(sp)
    8009251a:	ac74                	fsd	fa3,216(s0)
    8009251c:	84e1                	srai	s1,s1,0x18
    8009251e:	53a1                	li	t2,-24
    80092520:	b90f8d23          	sb	a6,-1126(t6) # 12b9a <_tbss_end+0x12b9a>
    80092524:	7b91                	lui	s7,0xfffe4
    80092526:	a88041a3          	.insn	4, 0xa88041a3
    8009252a:	f9ba                	sd	a4,240(sp)
    8009252c:	7078                	ld	a4,224(s0)
    8009252e:	469f b1d1 0bf4      	.insn	6, 0x0bf4b1d1469f
    80092534:	dcba                	sw	a4,120(sp)
    80092536:	6d6c                	ld	a1,216(a0)
    80092538:	1d11                	addi	s10,s10,-28
    8009253a:	fc91fa9b          	.insn	4, 0xfc91fa9b
    8009253e:	80395c2f          	.insn	4, 0x80395c2f
    80092542:	f8f9                	bnez	s1,80092518 <begin_signature+0x1518>
    80092544:	d334                	sw	a3,96(a4)
    80092546:	46845e97          	auipc	t4,0x46845
    8009254a:	42b6a0eb          	.insn	4, 0x42b6a0eb
    8009254e:	37ac                	fld	fa1,104(a5)
    80092550:	a3e4b887          	fld	fa7,-1474(s1) # ffffffffffffca3e <_end+0xffffffff7ff63fda>
    80092554:	282e                	fld	fa6,200(sp)
    80092556:	7955                	lui	s2,0xffff5
    80092558:	f592                	sd	tp,232(sp)
    8009255a:	56bc                	lw	a5,104(a3)
    8009255c:	458e548f          	.insn	4, 0x458e548f
    80092560:	cf8c                	sw	a1,24(a5)
    80092562:	e4c9                	bnez	s1,800925ec <begin_signature+0x15ec>
    80092564:	f374                	sd	a3,224(a4)
    80092566:	2a20                	fld	fs0,80(a2)
    80092568:	2cdd                	addiw	s9,s9,23
    8009256a:	4bf4                	lw	a3,84(a5)
    8009256c:	465d                	li	a2,23
    8009256e:	7dac                	ld	a1,120(a1)
    80092570:	95e5                	srai	a1,a1,0x39
    80092572:	c934edc7          	fmsub.s	fs11,fs1,fs3,fs9,unknown
    80092576:	7fda                	ld	t6,432(sp)
    80092578:	bc0d                	j	80091faa <begin_signature+0xfaa>
    8009257a:	5535                	li	a0,-19
    8009257c:	6a9a                	ld	s5,384(sp)
    8009257e:	1e8d                	addi	t4,t4,-29 # c68d7529 <_end+0x4683eac5>
    80092580:	1ac0                	addi	s0,sp,372
    80092582:	df3884eb          	.insn	4, 0xdf3884eb
    80092586:	7bad                	lui	s7,0xfffeb
    80092588:	b815                	j	80091dbc <begin_signature+0xdbc>
    8009258a:	9af82f5b          	.insn	4, 0x9af82f5b
    8009258e:	027a                	slli	tp,tp,0x1e
    80092590:	822e                	mv	tp,a1
    80092592:	54d2                	lw	s1,52(sp)
    80092594:	53b55133          	.insn	4, 0x53b55133
    80092598:	5be1                	li	s7,-8
    8009259a:	3c3d                	addiw	s8,s8,-17 # fffffffffffe6fef <_end+0xffffffff7ff4e58b>
    8009259c:	e47c                	sd	a5,200(s0)
    8009259e:	1109                	addi	sp,sp,-30
    800925a0:	2e8d                	addiw	t4,t4,3
    800925a2:	87de                	mv	a5,s7
    800925a4:	167585fb          	.insn	4, 0x167585fb
    800925a8:	8c06                	mv	s8,ra
    800925aa:	603330ff 8ba85dc8 	.insn	16, 0xe4ef140d908fd93c8ba85dc8603330ff
    800925b2:	908fd93c e4ef140d 
    800925ba:	b03522d7          	.insn	4, 0xb03522d7
    800925be:	2235                	addiw	tp,tp,13 # d <_tbss_end+0xd>
    800925c0:	9b8d2c33          	.insn	4, 0x9b8d2c33
    800925c4:	ec7a                	sd	t5,24(sp)
    800925c6:	7d39                	lui	s10,0xfffee
    800925c8:	adaaa287          	flw	ft5,-1318(s5) # ffffffffffffcada <_end+0xffffffff7ff64076>
    800925cc:	7576                	ld	a0,376(sp)
    800925ce:	7b3e                	ld	s6,488(sp)
    800925d0:	4bf1                	li	s7,28
    800925d2:	b9db64b3          	.insn	4, 0xb9db64b3
    800925d6:	4b6a                	lw	s6,152(sp)
    800925d8:	bf35d7c3          	.insn	4, 0xbf35d7c3
    800925dc:	1a036483          	lwu	s1,416(t1)
    800925e0:	3a55                	addiw	s4,s4,-11
    800925e2:	f240                	sd	s0,160(a2)
    800925e4:	639c77d7          	.insn	4, 0x639c77d7
    800925e8:	1ce1                	addi	s9,s9,-8
    800925ea:	47c3e277          	.insn	4, 0x47c3e277
    800925ee:	22fa                	fld	ft5,408(sp)
    800925f0:	8bc9                	andi	a5,a5,18
    800925f2:	e5ea                	sd	s10,200(sp)
    800925f4:	280e                	fld	fa6,192(sp)
    800925f6:	2a093333          	.insn	4, 0x2a093333
    800925fa:	dc04                	sw	s1,56(s0)
    800925fc:	dbf9                	beqz	a5,800925d2 <begin_signature+0x15d2>
    800925fe:	1ed8                	addi	a4,sp,884
    80092600:	4795                	li	a5,5
    80092602:	d196                	sw	t0,224(sp)
    80092604:	e660                	sd	s0,200(a2)
    80092606:	2ed8                	fld	fa4,152(a3)
    80092608:	a0cd                	j	800926ea <begin_signature+0x16ea>
    8009260a:	46f2360f          	.insn	4, 0x46f2360f
    8009260e:	164c                	addi	a1,sp,804
    80092610:	68c4                	ld	s1,144(s1)
    80092612:	7a3d                	lui	s4,0xfffef
    80092614:	e548                	sd	a0,136(a0)
    80092616:	ed3c393f 9205c752 	.insn	8, 0x9205c752ed3c393f
    8009261e:	3400                	fld	fs0,40(s0)
    80092620:	e748                	sd	a0,136(a4)
    80092622:	481e                	lw	a6,196(sp)
    80092624:	407c                	lw	a5,68(s0)
    80092626:	81f605f3          	.insn	4, 0x81f605f3
    8009262a:	5982                	lw	s3,32(sp)
    8009262c:	26ae                	fld	fa3,200(sp)
    8009262e:	5698                	lw	a4,40(a3)
    80092630:	fe573cbf 5c5f1c8c 	.insn	8, 0x5c5f1c8cfe573cbf
    80092638:	b594                	fsd	fa3,40(a1)
    8009263a:	3766                	fld	fa4,120(sp)
    8009263c:	3f44                	fld	fs1,184(a4)
    8009263e:	4a392357          	.insn	4, 0x4a392357
    80092642:	61df 438f 43f8      	.insn	6, 0x43f8438f61df
    80092648:	45dc                	lw	a5,12(a1)
    8009264a:	6b213633          	.insn	4, 0x6b213633
    8009264e:	4b89                	li	s7,2
    80092650:	aa1a                	fsd	ft6,272(sp)
    80092652:	bb4e                	fsd	fs3,432(sp)
    80092654:	3ba0                	fld	fs0,112(a5)
    80092656:	6e6e                	ld	t3,216(sp)
    80092658:	0a1a                	slli	s4,s4,0x6
    8009265a:	0c02                	c.slli64	s8
    8009265c:	2c61                	addiw	s8,s8,24
    8009265e:	71aa                	ld	gp,168(sp)
    80092660:	e82bd117          	auipc	sp,0xe82bd
    80092664:	1b9f 3839 c6d7      	.insn	6, 0xc6d738391b9f
    8009266a:	bf4f7883          	.insn	4, 0xbf4f7883
    8009266e:	152e                	slli	a0,a0,0x2b
    80092670:	a18ac517          	auipc	a0,0xa18ac
    80092674:	b5c6                	fsd	fa7,232(sp)
    80092676:	1159                	addi	sp,sp,-10 # 6834f656 <_tbss_end+0x6834f656>
    80092678:	d1d34627          	.insn	4, 0xd1d34627
    8009267c:	8f5e                	mv	t5,s7
    8009267e:	09a0                	addi	s0,sp,216
    80092680:	3109                	addiw	sp,sp,-30
    80092682:	857e                	mv	a0,t6
    80092684:	3745                	addiw	a4,a4,-15 # ffffffffffff6ff1 <_end+0xffffffff7ff5e58d>
    80092686:	6291                	lui	t0,0x4
    80092688:	dd52                	sw	s4,184(sp)
    8009268a:	5154                	lw	a3,36(a0)
    8009268c:	1435                	addi	s0,s0,-19
    8009268e:	1312                	slli	t1,t1,0x24
    80092690:	acbc                	fsd	fa5,88(s1)
    80092692:	1921                	addi	s2,s2,-24 # ffffffffffff4fe8 <_end+0xffffffff7ff5c584>
    80092694:	06c7313b          	.insn	4, 0x06c7313b
    80092698:	54854f4b          	.insn	4, 0x54854f4b
    8009269c:	a85e                	fsd	fs7,16(sp)
    8009269e:	441e                	lw	s0,196(sp)
    800926a0:	f1dfcffb          	.insn	4, 0xf1dfcffb
    800926a4:	8c79                	and	s0,s0,a4
    800926a6:	1ac6                	slli	s5,s5,0x31
    800926a8:	b03a                	fsd	fa4,32(sp)
    800926aa:	07ff 755a 09c2 2e77 	.insn	10, 0x7f6f2e7709c2755a07ff
    800926b2:	7f6f 
    800926b4:	290f5583          	lhu	a1,656(t5)
    800926b8:	7a629bbf 05718f60 	.insn	8, 0x05718f607a629bbf
    800926c0:	ede6                	sd	s9,216(sp)
    800926c2:	f44e                	sd	s3,40(sp)
    800926c4:	2708                	fld	fa0,8(a4)
    800926c6:	69555ca7          	.insn	4, 0x69555ca7
    800926ca:	1bdc                	addi	a5,sp,500
    800926cc:	761ca3af          	.insn	4, 0x761ca3af
    800926d0:	e8940c47          	fmsub.s	fs8,fs0,fs1,ft9,rne
    800926d4:	3d0a                	fld	fs10,160(sp)
    800926d6:	911c5c9b          	.insn	4, 0x911c5c9b
    800926da:	5ce8                	lw	a0,124(s1)
    800926dc:	083a                	slli	a6,a6,0xe
    800926de:	4912                	lw	s2,4(sp)
    800926e0:	2e0e                	fld	ft8,192(sp)
    800926e2:	a4ad                	j	8009294c <begin_signature+0x194c>
    800926e4:	51b9                	li	gp,-18
    800926e6:	4b71                	li	s6,28
    800926e8:	ed99                	bnez	a1,80092706 <begin_signature+0x1706>
    800926ea:	a54dbd0f          	.insn	4, 0xa54dbd0f
    800926ee:	6d1d                	lui	s10,0x7
    800926f0:	e771                	bnez	a4,800927bc <begin_signature+0x17bc>
    800926f2:	14b5f4cf          	.insn	4, 0x14b5f4cf
    800926f6:	15df 588d 8622      	.insn	6, 0x8622588d15df
    800926fc:	50327aab          	.insn	4, 0x50327aab
    80092700:	f9101d97          	auipc	s11,0xf9101
    80092704:	530d2803          	lw	a6,1328(s10) # 7530 <_tbss_end+0x7530>
    80092708:	0580                	addi	s0,sp,704
    8009270a:	29c2                	fld	fs3,16(sp)
    8009270c:	cc5f 618d e6f7      	.insn	6, 0xe6f7618dcc5f
    80092712:	b676                	fsd	ft9,296(sp)
    80092714:	f89d                	bnez	s1,8009264a <begin_signature+0x164a>
    80092716:	2ade                	fld	fs5,464(sp)
    80092718:	72b2                	ld	t0,296(sp)
    8009271a:	2ca8                	fld	fa0,88(s1)
    8009271c:	30f9                	addiw	ra,ra,-2 # ffffffff95125ffe <_end+0xffffffff1508d59a>
    8009271e:	cbeb7b97          	auipc	s7,0xcbeb7
    80092722:	7050c5a3          	.insn	4, 0x7050c5a3
    80092726:	5612                	lw	a2,36(sp)
    80092728:	1b54                	addi	a3,sp,436
    8009272a:	ca817a77          	.insn	4, 0xca817a77
    8009272e:	207e                	fld	ft0,472(sp)
    80092730:	b689                	j	80092272 <begin_signature+0x1272>
    80092732:	7a3c55ff 4a241193 	.insn	20, 0x56a75ff9f0205659bb4f64304a2411937a3c55ff
    8009273a:	bb4f6430 f0205659 
    80092742:	56a75ff9 
    80092746:	9e5f3bff 2db1a49b 	.insn	16, 0xfce051692dce791f2db1a49b9e5f3bff
    8009274e:	2dce791f fce05169 
    80092756:	574e                	lw	a4,240(sp)
    80092758:	741e                	ld	s0,480(sp)
    8009275a:	7534121b          	.insn	4, 0x7534121b
    8009275e:	5c14                	lw	a3,56(s0)
    80092760:	d68e33db          	.insn	4, 0xd68e33db
    80092764:	eef4                	sd	a3,216(a3)
    80092766:	0d2d                	addi	s10,s10,11
    80092768:	c9b8                	sw	a4,80(a1)
    8009276a:	9f9696ab          	.insn	4, 0x9f9696ab
    8009276e:	66ed                	lui	a3,0x1b
    80092770:	8692                	mv	a3,tp
    80092772:	eb64702f          	.insn	4, 0xeb64702f
    80092776:	1e56                	slli	t3,t3,0x35
    80092778:	462cc0cf          	.insn	4, 0x462cc0cf
    8009277c:	60e63c3b          	.insn	4, 0x60e63c3b
    80092780:	bc4d                	j	80092232 <begin_signature+0x1232>
    80092782:	6cb0                	ld	a2,88(s1)
    80092784:	0dfd                	addi	s11,s11,31 # 7919371f <_tbss_end+0x7919371f>
    80092786:	73c0                	ld	s0,160(a5)
    80092788:	3038                	fld	fa4,96(s0)
    8009278a:	b4f8                	fsd	fa4,232(s1)
    8009278c:	e1ca                	sd	s2,192(sp)
    8009278e:	07f1                	addi	a5,a5,28
    80092790:	1eb5                	addi	t4,t4,-19
    80092792:	37e4                	fld	fs1,232(a5)
    80092794:	19a34463          	blt	t1,s10,8009291c <begin_signature+0x191c>
    80092798:	b470                	fsd	fa2,232(s0)
    8009279a:	bae7d217          	auipc	tp,0xbae7d
    8009279e:	3845                	addiw	a6,a6,-15 # 4e2b1ff1 <_tbss_end+0x4e2b1ff1>
    800927a0:	e26db927          	fsd	ft6,-462(s11)
    800927a4:	38a0e6b3          	.insn	4, 0x38a0e6b3
    800927a8:	2ac6                	fld	fs5,80(sp)
    800927aa:	398e                	fld	fs3,224(sp)
    800927ac:	e83e                	sd	a5,16(sp)
    800927ae:	5c2a                	lw	s8,168(sp)
    800927b0:	8f04                	.insn	2, 0x8f04
    800927b2:	f5c8                	sd	a0,168(a1)
    800927b4:	583117a3          	sh	gp,1423(sp)
    800927b8:	55df 9fe8 7292      	.insn	6, 0x72929fe855df
    800927be:	2202                	fld	ft4,0(sp)
    800927c0:	f4fe                	sd	t6,104(sp)
    800927c2:	3484                	fld	fs1,40(s1)
    800927c4:	377dcb8b          	.insn	4, 0x377dcb8b
    800927c8:	975d                	srai	a4,a4,0x37
    800927ca:	bdf4                	fsd	fa3,248(a1)
    800927cc:	9ec2                	add	t4,t4,a6
    800927ce:	31ec                	fld	fa1,224(a1)
    800927d0:	4d78                	lw	a4,92(a0)
    800927d2:	6c028617          	auipc	a2,0x6c028
    800927d6:	138d                	addi	t2,t2,-29
    800927d8:	b168                	fsd	fa0,224(a0)
    800927da:	2521                	addiw	a0,a0,8 # 2193e678 <_tbss_end+0x2193e678>
    800927dc:	c3c8                	sw	a0,4(a5)
    800927de:	1b90483b          	.insn	4, 0x1b90483b
    800927e2:	9cecd3ef          	jal	t2,8005f9b0 <label+0x5b37a>
    800927e6:	45fc                	lw	a5,76(a1)
    800927e8:	cd42e753          	.insn	4, 0xcd42e753
    800927ec:	8895                	andi	s1,s1,5
    800927ee:	5099                	li	ra,-26
    800927f0:	3bd8                	fld	fa4,176(a5)
    800927f2:	328c3d27          	fsd	fs0,826(s8)
    800927f6:	2080                	fld	fs0,0(s1)
    800927f8:	1da08d23          	sb	s10,474(ra)
    800927fc:	b931                	j	80092418 <begin_signature+0x1418>
    800927fe:	34d4                	fld	fa3,168(s1)
    80092800:	cc16                	sw	t0,24(sp)
    80092802:	840a                	mv	s0,sp
    80092804:	1cec                	addi	a1,sp,636
    80092806:	390d                	addiw	s2,s2,-29
    80092808:	0950                	addi	a2,sp,148
    8009280a:	6b43b543          	fmadd.d	fa0,ft7,fs4,fa3,rup
    8009280e:	2616                	fld	fa2,320(sp)
    80092810:	0288                	addi	a0,sp,320
    80092812:	6384                	ld	s1,0(a5)
    80092814:	257cd87f cb3f90e2 	.insn	20, 0x0f1bff079fd8e7f46b8e7a10cb3f90e2257cd87f
    8009281c:	6b8e7a10 9fd8e7f4 
    80092824:	0f1bff07 
    80092828:	14d6                	slli	s1,s1,0x35
    8009282a:	fcbd                	bnez	s1,800927a8 <begin_signature+0x17a8>
    8009282c:	bc99                	j	80092282 <begin_signature+0x1282>
    8009282e:	44e6                	lw	s1,88(sp)
    80092830:	80acbd0f          	.insn	4, 0x80acbd0f
    80092834:	0453eb6b          	.insn	4, 0x0453eb6b
    80092838:	83dd                	srli	a5,a5,0x17
    8009283a:	4a70                	lw	a2,84(a2)
    8009283c:	a9c1                	j	80092d0c <begin_signature+0x1d0c>
    8009283e:	0ead                	addi	t4,t4,11
    80092840:	b8aa                	fsd	fa0,112(sp)
    80092842:	0c8c                	addi	a1,sp,592
    80092844:	ede6                	sd	s9,216(sp)
    80092846:	0d7c                	addi	a5,sp,668
    80092848:	98487567          	.insn	4, 0x98487567
    8009284c:	1f999c27          	.insn	4, 0x1f999c27
    80092850:	699851d3          	.insn	4, 0x699851d3
    80092854:	5c84                	lw	s1,56(s1)
    80092856:	b758001b          	addiw	zero,a6,-1163
    8009285a:	a3d22203          	lw	tp,-1475(tp) # 3af0f1d7 <_tbss_end+0x3af0f1d7>
    8009285e:	183a02ef          	jal	t0,801331e0 <_end+0x9a77c>
    80092862:	6bf1d76b          	.insn	4, 0x6bf1d76b
    80092866:	2844                	fld	fs1,144(s0)
    80092868:	e3f2ec53          	.insn	4, 0xe3f2ec53
    8009286c:	3f6d                	addiw	t5,t5,-5
    8009286e:	64cc                	ld	a1,136(s1)
    80092870:	d08d1b47          	fmsub.s	fs6,fs10,fs0,fs10,rtz
    80092874:	7bf7eb9b          	.insn	4, 0x7bf7eb9b
    80092878:	d906                	sw	ra,176(sp)
    8009287a:	e7d0                	sd	a2,136(a5)
    8009287c:	0b16                	slli	s6,s6,0x5
    8009287e:	2565                	addiw	a0,a0,25
    80092880:	5602                	lw	a2,32(sp)
    80092882:	5756                	lw	a4,116(sp)
    80092884:	70c6                	ld	ra,112(sp)
    80092886:	5ed1                	li	t4,-12
    80092888:	04a9                	addi	s1,s1,10
    8009288a:	413d                	li	sp,15
    8009288c:	2a8a                	fld	fs5,128(sp)
    8009288e:	44c4                	lw	s1,12(s1)
    80092890:	f379                	bnez	a4,80092856 <begin_signature+0x1856>
    80092892:	4561                	li	a0,24
    80092894:	b146                	fsd	fa7,160(sp)
    80092896:	6b42                	ld	s6,16(sp)
    80092898:	4ffc                	lw	a5,92(a5)
    8009289a:	831c                	.insn	2, 0x831c
    8009289c:	6451f033          	.insn	4, 0x6451f033
    800928a0:	dc85b723          	sd	s0,-562(a1) # fffffffffffe0dce <_end+0xffffffff7ff4836a>
    800928a4:	7630c5fb          	.insn	4, 0x7630c5fb
    800928a8:	6389                	lui	t2,0x2
    800928aa:	c28a                	sw	sp,68(sp)
    800928ac:	f9ce                	sd	s3,240(sp)
    800928ae:	442e                	lw	s0,200(sp)
    800928b0:	02df a613 b624      	.insn	6, 0xb624a61302df
    800928b6:	5114                	lw	a3,32(a0)
    800928b8:	d3d02a7b          	.insn	4, 0xd3d02a7b
    800928bc:	25bf2943          	.insn	4, 0x25bf2943
    800928c0:	0080d14b          	fnmsub.s	ft2,ft1,fs0,ft0,unknown
    800928c4:	2093c2fb          	.insn	4, 0x2093c2fb
    800928c8:	f5c6                	sd	a7,232(sp)
    800928ca:	cd09                	beqz	a0,800928e4 <begin_signature+0x18e4>
    800928cc:	2d5a                	fld	fs10,400(sp)
    800928ce:	718b6ff7          	.insn	4, 0x718b6ff7
    800928d2:	5550                	lw	a2,44(a0)
    800928d4:	2e041617          	auipc	a2,0x2e041
    800928d8:	263c                	fld	fa5,72(a2)
    800928da:	abde947b          	.insn	4, 0xabde947b
    800928de:	3d1d                	addiw	s10,s10,-25
    800928e0:	4a51                	li	s4,20
    800928e2:	6cfd                	lui	s9,0x1f
    800928e4:	bcf9                	j	800923c2 <begin_signature+0x13c2>
    800928e6:	02c2                	slli	t0,t0,0x10
    800928e8:	759da24f          	.insn	4, 0x759da24f
    800928ec:	86e8                	.insn	2, 0x86e8
    800928ee:	6b48542f          	.insn	4, 0x6b48542f
    800928f2:	218a                	fld	ft3,128(sp)
    800928f4:	0381                	addi	t2,t2,0 # 2000 <_tbss_end+0x2000>
    800928f6:	7091                	lui	ra,0xfffe4
    800928f8:	bcd0                	fsd	fa2,184(s1)
    800928fa:	7d9ff747          	.insn	4, 0x7d9ff747
    800928fe:	739c598b          	.insn	4, 0x739c598b
    80092902:	873318fb          	.insn	4, 0x873318fb
    80092906:	2345                	addiw	t1,t1,17
    80092908:	587e                	lw	a6,252(sp)
    8009290a:	9e72                	add	t3,t3,t3
    8009290c:	2a85                	addiw	s5,s5,1
    8009290e:	1ec4                	addi	s1,sp,884
    80092910:	126e                	slli	tp,tp,0x3b
    80092912:	015d                	addi	sp,sp,23
    80092914:	11e2                	slli	gp,gp,0x38
    80092916:	42aa                	lw	t0,136(sp)
    80092918:	e22a                	sd	a0,256(sp)
    8009291a:	af6f982b          	.insn	4, 0xaf6f982b
    8009291e:	6d79165b          	.insn	4, 0x6d79165b
    80092922:	74ad                	lui	s1,0xfffeb
    80092924:	04f2                	slli	s1,s1,0x1c
    80092926:	3ff5                	addiw	t6,t6,-3
    80092928:	2e9ae283          	lwu	t0,745(s5)
    8009292c:	5490                	lw	a2,40(s1)
    8009292e:	00f1                	addi	ra,ra,28 # fffffffffffe401c <_end+0xffffffff7ff4b5b8>
    80092930:	8d9c                	.insn	2, 0x8d9c
    80092932:	709d                	lui	ra,0xfffe7
    80092934:	d13a                	sw	a4,160(sp)
    80092936:	02b4                	addi	a3,sp,328
    80092938:	0858                	addi	a4,sp,20
    8009293a:	ea94                	sd	a3,16(a3)
    8009293c:	49275823          	.insn	4, 0x49275823
    80092940:	8395fe67          	.insn	4, 0x8395fe67
    80092944:	428c09bf c6a1934b 	.insn	8, 0xc6a1934b428c09bf
    8009294c:	8586                	mv	a1,ra
    8009294e:	676c                	ld	a1,200(a4)
    80092950:	ede5                	bnez	a1,80092a48 <begin_signature+0x1a48>
    80092952:	6cae                	ld	s9,200(sp)
    80092954:	1412                	slli	s0,s0,0x24
    80092956:	733a                	ld	t1,424(sp)
    80092958:	da8a                	sw	sp,116(sp)
    8009295a:	95f1                	srai	a1,a1,0x3c
    8009295c:	a2d4                	fsd	fa3,128(a3)
    8009295e:	1edf 704c 93cb      	.insn	6, 0x93cb704c1edf
    80092964:	c50d                	beqz	a0,8009298e <begin_signature+0x198e>
    80092966:	4a7d                	li	s4,31
    80092968:	3b16                	fld	fs6,352(sp)
    8009296a:	028a                	slli	t0,t0,0x2
    8009296c:	57849023          	sh	s8,1376(s1) # fffffffffffeb560 <_end+0xffffffff7ff52afc>
    80092970:	1076                	c.slli	zero,0x3d
    80092972:	3bd4                	fld	fa3,176(a5)
    80092974:	5082740b          	.insn	4, 0x5082740b
    80092978:	88aa                	mv	a7,a0
    8009297a:	865c                	.insn	2, 0x865c
    8009297c:	f3e8                	sd	a0,224(a5)
    8009297e:	39c2                	fld	fs3,48(sp)
    80092980:	a404                	fsd	fs1,8(s0)
    80092982:	6c5cc9db          	.insn	4, 0x6c5cc9db
    80092986:	7f01                	lui	t5,0xfffe0
    80092988:	c51a                	sw	t1,136(sp)
    8009298a:	063c                	addi	a5,sp,776
    8009298c:	46dec1cf          	.insn	4, 0x46dec1cf
    80092990:	3c00                	fld	fs0,56(s0)
    80092992:	ee86                	sd	ra,344(sp)
    80092994:	53ce7fdb          	.insn	4, 0x53ce7fdb
    80092998:	16762dab          	.insn	4, 0x16762dab
    8009299c:	ed85                	bnez	a1,800929d4 <begin_signature+0x19d4>
    8009299e:	6f6e                	ld	t5,216(sp)
    800929a0:	1a3f6cbb          	.insn	4, 0x1a3f6cbb
    800929a4:	cf39                	beqz	a4,80092a02 <begin_signature+0x1a02>
    800929a6:	5664                	lw	s1,108(a2)
    800929a8:	1c40                	addi	s0,sp,564
    800929aa:	9111                	srli	a0,a0,0x24
    800929ac:	ec4c                	sd	a1,152(s0)
    800929ae:	c2ed035b          	.insn	4, 0xc2ed035b
    800929b2:	1889                	addi	a7,a7,-30
    800929b4:	78a1                	lui	a7,0xfffe8
    800929b6:	62617093          	andi	ra,sp,1574
    800929ba:	59d2                	lw	s3,52(sp)
    800929bc:	7d42                	ld	s10,48(sp)
    800929be:	5a1f c801 e6b5      	.insn	6, 0xe6b5c8015a1f
    800929c4:	a911                	j	80092dd8 <begin_signature+0x1dd8>
    800929c6:	659f a043 19f9      	.insn	6, 0x19f9a043659f
    800929cc:	08b8                	addi	a4,sp,88
    800929ce:	1d58                	addi	a4,sp,692
    800929d0:	a50fbc57          	.insn	4, 0xa50fbc57
    800929d4:	dd38                	sw	a4,120(a0)
    800929d6:	1304                	addi	s1,sp,416
    800929d8:	f042                	sd	a6,32(sp)
    800929da:	cb54                	sw	a3,20(a4)
    800929dc:	6e78                	ld	a4,216(a2)
    800929de:	1dea                	slli	s11,s11,0x3a
    800929e0:	6628                	ld	a0,72(a2)
    800929e2:	c2f4                	sw	a3,68(a3)
    800929e4:	6998                	ld	a4,16(a1)
    800929e6:	0b4a                	slli	s6,s6,0x12
    800929e8:	ec7f 1b16 d43d 7580 	.insn	22, 0x7f6d84b99d3923a55ad3d27826877580d43d1b16ec7f
    800929f0:	2687 d278 5ad3 23a5 
    800929f8:	9d39 84b9 7f6d 
    800929fe:	15b1                	addi	a1,a1,-20
    80092a00:	a464                	fsd	fs1,200(s0)
    80092a02:	7558                	ld	a4,168(a0)
    80092a04:	f066                	sd	s9,32(sp)
    80092a06:	6770                	ld	a2,200(a4)
    80092a08:	e08e                	sd	gp,64(sp)
    80092a0a:	5a307893          	andi	a7,zero,1443
    80092a0e:	5de8                	lw	a0,124(a1)
    80092a10:	a582                	fsd	ft0,200(sp)
    80092a12:	18be                	slli	a7,a7,0x2f
    80092a14:	9255                	srli	a2,a2,0x35
    80092a16:	6721                	lui	a4,0x8
    80092a18:	c120                	sw	s0,64(a0)
    80092a1a:	b871                	j	800922b6 <begin_signature+0x12b6>
    80092a1c:	1030                	addi	a2,sp,40
    80092a1e:	66a4400f          	.insn	4, 0x66a4400f
    80092a22:	8b415fb3          	.insn	4, 0x8b415fb3
    80092a26:	728e                	ld	t0,224(sp)
    80092a28:	e572                	sd	t3,136(sp)
    80092a2a:	e97a                	sd	t5,144(sp)
    80092a2c:	0bf6                	slli	s7,s7,0x1d
    80092a2e:	c8227d8b          	.insn	4, 0xc8227d8b
    80092a32:	3b467aa3          	.insn	4, 0x3b467aa3
    80092a36:	2a624a8f          	.insn	4, 0x2a624a8f
    80092a3a:	ec0a                	sd	sp,24(sp)
    80092a3c:	2305                	addiw	t1,t1,1
    80092a3e:	aabc57eb          	.insn	4, 0xaabc57eb
    80092a42:	e356                	sd	s5,384(sp)
    80092a44:	9896                	add	a7,a7,t0
    80092a46:	5fe0                	lw	s0,124(a5)
    80092a48:	2c9c                	fld	fa5,24(s1)
    80092a4a:	9840                	.insn	2, 0x9840
    80092a4c:	4454                	lw	a3,12(s0)
    80092a4e:	18c2                	slli	a7,a7,0x30
    80092a50:	7088                	ld	a0,32(s1)
    80092a52:	2ee2                	fld	ft9,24(sp)
    80092a54:	ad04                	fsd	fs1,24(a0)
    80092a56:	0ce6                	slli	s9,s9,0x19
    80092a58:	98760b47          	fmsub.s	fs6,fa2,ft7,fs3,rne
    80092a5c:	ca0c                	sw	a1,16(a2)
    80092a5e:	019d                	addi	gp,gp,7
    80092a60:	3318                	fld	fa4,32(a4)
    80092a62:	57bf4613          	xori	a2,t5,1403
    80092a66:	2c1e                	fld	fs8,448(sp)
    80092a68:	e7a0                	sd	s0,72(a5)
    80092a6a:	4ce0                	lw	s0,92(s1)
    80092a6c:	24b1                	addiw	s1,s1,12
    80092a6e:	0f1f 72f9 f304      	.insn	6, 0xf30472f90f1f
    80092a74:	2cf5a1e3          	.insn	4, 0x2cf5a1e3
    80092a78:	3590f743          	.insn	4, 0x3590f743
    80092a7c:	3ccfa903          	lw	s2,972(t6)
    80092a80:	28a8                	fld	fa0,80(s1)
    80092a82:	a5ac4723          	.insn	4, 0xa5ac4723
    80092a86:	4228                	lw	a0,64(a2)
    80092a88:	0ca6                	slli	s9,s9,0x9
    80092a8a:	0cc7d2bf 83dd3cc5 	.insn	8, 0x83dd3cc50cc7d2bf
    80092a92:	30d2                	fld	ft1,304(sp)
    80092a94:	d4c0                	sw	s0,44(s1)
    80092a96:	478a                	lw	a5,128(sp)
    80092a98:	c992f073          	csrci	hpmcounter25h,5
    80092a9c:	072a                	slli	a4,a4,0xa
    80092a9e:	6640                	ld	s0,136(a2)
    80092aa0:	0ea5                	addi	t4,t4,9
    80092aa2:	54c2                	lw	s1,48(sp)
    80092aa4:	61c931af          	amoand.d	gp,t3,(s2)
    80092aa8:	9ff2                	add	t6,t6,t3
    80092aaa:	a940                	fsd	fs0,144(a0)
    80092aac:	ec9d                	bnez	s1,80092aea <begin_signature+0x1aea>
    80092aae:	33d83283          	ld	t0,829(a6)
    80092ab2:	2658                	fld	fa4,136(a2)
    80092ab4:	5ed2                	lw	t4,52(sp)
    80092ab6:	b5914bd3          	.insn	4, 0xb5914bd3
    80092aba:	efc1                	bnez	a5,80092b52 <begin_signature+0x1b52>
    80092abc:	46e8cd63          	blt	a7,a4,80092f36 <begin_signature+0x1f36>
    80092ac0:	959e                	add	a1,a1,t2
    80092ac2:	da1f 2a79 48b3      	.insn	6, 0x48b32a79da1f
    80092ac8:	240c                	fld	fa1,8(s0)
    80092aca:	cb4d                	beqz	a4,80092b7c <begin_signature+0x1b7c>
    80092acc:	8c56                	mv	s8,s5
    80092ace:	305e79ab          	.insn	4, 0x305e79ab
    80092ad2:	84c8                	.insn	2, 0x84c8
    80092ad4:	f9d2                	sd	s4,240(sp)
    80092ad6:	5ab0                	lw	a2,112(a3)
    80092ad8:	c385                	beqz	a5,80092af8 <begin_signature+0x1af8>
    80092ada:	b3f1                	j	800928a6 <begin_signature+0x18a6>
    80092adc:	345e                	fld	fs0,496(sp)
    80092ade:	434a                	lw	t1,144(sp)
    80092ae0:	11d8                	addi	a4,sp,228
    80092ae2:	832e                	mv	t1,a1
    80092ae4:	d73a                	sw	a4,172(sp)
    80092ae6:	2a55                	addiw	s4,s4,21 # fffffffffffef015 <_end+0xffffffff7ff565b1>
    80092ae8:	5a99                	li	s5,-26
    80092aea:	8e76da87          	.insn	4, 0x8e76da87
    80092aee:	8b004ce7          	.insn	4, 0x8b004ce7
    80092af2:	6471                	lui	s0,0x1c
    80092af4:	c63a                	sw	a4,12(sp)
    80092af6:	5a98                	lw	a4,48(a3)
    80092af8:	18ec                	addi	a1,sp,124
    80092afa:	6d0fa957          	.insn	4, 0x6d0fa957
    80092afe:	4393162b          	.insn	4, 0x4393162b
    80092b02:	2711                	addiw	a4,a4,4 # 8004 <_tbss_end+0x8004>
    80092b04:	6655f57b          	.insn	4, 0x6655f57b
    80092b08:	c032                	sw	a2,0(sp)
    80092b0a:	b90d                	j	8009273c <begin_signature+0x173c>
    80092b0c:	7b3ba9f7          	.insn	4, 0x7b3ba9f7
    80092b10:	49e0                	lw	s0,84(a1)
    80092b12:	3342                	fld	ft6,48(sp)
    80092b14:	0bb2                	slli	s7,s7,0xc
    80092b16:	604d                	c.lui	zero,0x13
    80092b18:	eba5                	bnez	a5,80092b88 <begin_signature+0x1b88>
    80092b1a:	50cf005b          	.insn	4, 0x50cf005b
    80092b1e:	4a70                	lw	a2,84(a2)
    80092b20:	99976747          	fmsub.s	fa4,fa4,fs9,fs3,unknown
    80092b24:	bc48                	fsd	fa0,184(s0)
    80092b26:	e5fd1f47          	.insn	4, 0xe5fd1f47
    80092b2a:	c7b0e6e3          	bltu	ra,s11,80092796 <begin_signature+0x1796>
    80092b2e:	619f ef5b 93bb      	.insn	6, 0x93bbef5b619f
    80092b34:	00daf0bb          	.insn	4, 0x00daf0bb
    80092b38:	e5ff 814a 56b4 4e76 	.insn	22, 0x0b0e11494e1237a0d8e8ef67d7ec4e7656b4814ae5ff
    80092b40:	d7ec ef67 d8e8 37a0 
    80092b48:	4e12 1149 0b0e 
    80092b4e:	759e                	ld	a1,480(sp)
    80092b50:	f481                	bnez	s1,80092a58 <begin_signature+0x1a58>
    80092b52:	3746                	fld	fa4,112(sp)
    80092b54:	ffa4                	sd	s1,120(a5)
    80092b56:	bdb568fb          	.insn	4, 0xbdb568fb
    80092b5a:	0dfe                	slli	s11,s11,0x1f
    80092b5c:	a5fe                	fsd	ft11,200(sp)
    80092b5e:	6e6c0d4b          	.insn	4, 0x6e6c0d4b
    80092b62:	121a                	slli	tp,tp,0x26
    80092b64:	c5ec                	sw	a1,76(a1)
    80092b66:	04fd                	addi	s1,s1,31
    80092b68:	bfc4                	fsd	fs1,184(a5)
    80092b6a:	faf4                	sd	a3,240(a3)
    80092b6c:	ced6                	sw	s5,92(sp)
    80092b6e:	4f0e                	lw	t5,192(sp)
    80092b70:	49e1                	li	s3,24
    80092b72:	0dde                	slli	s11,s11,0x17
    80092b74:	2b15                	addiw	s6,s6,5 # e005 <_tbss_end+0xe005>
    80092b76:	28fb1d2f          	.insn	4, 0x28fb1d2f
    80092b7a:	bba00fcb          	fnmsub.d	ft11,ft0,fs10,fs7,rne
    80092b7e:	3934                	fld	fa3,112(a0)
    80092b80:	14d4                	addi	a3,sp,612
    80092b82:	84459873          	csrrw	a6,0x844,a1
    80092b86:	04cd                	addi	s1,s1,19
    80092b88:	3c7c                	fld	fa5,248(s0)
    80092b8a:	a5ad                	j	800931f4 <begin_signature+0x21f4>
    80092b8c:	b68e                	fsd	ft3,360(sp)
    80092b8e:	593d                	li	s2,-17
    80092b90:	0429cccb          	.insn	4, 0x0429cccb
    80092b94:	12db2e5b          	.insn	4, 0x12db2e5b
    80092b98:	eb49                	bnez	a4,80092c2a <begin_signature+0x1c2a>
    80092b9a:	36b8                	fld	fa4,104(a3)
    80092b9c:	880a                	mv	a6,sp
    80092b9e:	7f2c64c7          	.insn	4, 0x7f2c64c7
    80092ba2:	d3c9                	beqz	a5,80092b24 <begin_signature+0x1b24>
    80092ba4:	24b5                	addiw	s1,s1,13
    80092ba6:	14934b73          	.insn	4, 0x14934b73
    80092baa:	4aed                	li	s5,27
    80092bac:	6c08                	ld	a0,24(s0)
    80092bae:	5e21                	li	t3,-24
    80092bb0:	867e                	mv	a2,t6
    80092bb2:	7bfe                	ld	s7,504(sp)
    80092bb4:	8e90                	.insn	2, 0x8e90
    80092bb6:	5aea                	lw	s5,184(sp)
    80092bb8:	8b38                	.insn	2, 0x8b38
    80092bba:	b99a                	fsd	ft6,240(sp)
    80092bbc:	7e988dc7          	.insn	4, 0x7e988dc7
    80092bc0:	297c                	fld	fa5,208(a0)
    80092bc2:	04bc                	addi	a5,sp,584
    80092bc4:	62a6                	ld	t0,72(sp)
    80092bc6:	1f01                	addi	t5,t5,-32 # fffffffffffdffe0 <_end+0xffffffff7ff4757c>
    80092bc8:	b535                	j	800929f4 <begin_signature+0x19f4>
    80092bca:	4862                	lw	a6,24(sp)
    80092bcc:	4a59                	li	s4,22
    80092bce:	2256                	fld	ft4,336(sp)
    80092bd0:	cf06efef          	jal	t6,800010c0 <i0000000271+0x2>
    80092bd4:	736f6d37          	lui	s10,0x736f6
    80092bd8:	91d1                	srli	a1,a1,0x34
    80092bda:	33fd                	addiw	t2,t2,-1
    80092bdc:	367c                	fld	fa5,232(a2)
    80092bde:	46e5                	li	a3,25
    80092be0:	05e0                	addi	s0,sp,716
    80092be2:	fde1                	bnez	a1,80092bba <begin_signature+0x1bba>
    80092be4:	4651                	li	a2,20
    80092be6:	23ce77a7          	.insn	4, 0x23ce77a7
    80092bea:	eb66208f          	.insn	4, 0xeb66208f
    80092bee:	1e9f e2a1 b0fc      	.insn	6, 0xb0fce2a11e9f
    80092bf4:	6703030b          	.insn	4, 0x6703030b
    80092bf8:	bed6                	fsd	fs5,376(sp)
    80092bfa:	3742                	fld	fa4,48(sp)
    80092bfc:	be14                	fsd	fa3,56(a2)
    80092bfe:	cd5b3c33          	.insn	4, 0xcd5b3c33
    80092c02:	72ed                	lui	t0,0xffffb
    80092c04:	4f78                	lw	a4,92(a4)
    80092c06:	60da                	ld	ra,400(sp)
    80092c08:	01b7a9d3          	fadd.s	fs3,fa5,fs11,rdn
    80092c0c:	2618                	fld	fa4,8(a2)
    80092c0e:	6006                	.insn	2, 0x6006
    80092c10:	0c09                	addi	s8,s8,2
    80092c12:	3152                	fld	ft2,304(sp)
    80092c14:	7c36                	ld	s8,360(sp)
    80092c16:	2ab9                	addiw	s5,s5,14
    80092c18:	eefc                	sd	a5,216(a3)
    80092c1a:	efe4                	sd	s1,216(a5)
    80092c1c:	47a991c3          	.insn	4, 0x47a991c3
    80092c20:	793d                	lui	s2,0xfffef
    80092c22:	735d4897          	auipc	a7,0x735d4
    80092c26:	e4101a07          	.insn	4, 0xe4101a07
    80092c2a:	58702807          	flw	fa6,1415(zero) # 587 <_tbss_end+0x587>
    80092c2e:	38b2                	fld	fa7,296(sp)
    80092c30:	efd4                	sd	a3,152(a5)
    80092c32:	491ade07          	.insn	4, 0x491ade07
    80092c36:	5fd6                	lw	t6,116(sp)
    80092c38:	1d70                	addi	a2,sp,700
    80092c3a:	6b89                	lui	s7,0x2
    80092c3c:	4ee7295b          	.insn	4, 0x4ee7295b
    80092c40:	3218                	fld	fa4,32(a2)
    80092c42:	155e                	slli	a0,a0,0x37
    80092c44:	5676                	lw	a2,124(sp)
    80092c46:	10f5                	addi	ra,ra,-3 # fffffffffffe6ffd <_end+0xffffffff7ff4e599>
    80092c48:	cfcc                	sw	a1,28(a5)
    80092c4a:	496a                	lw	s2,152(sp)
    80092c4c:	50bc91ef          	jal	gp,8015c956 <_end+0xc3ef2>
    80092c50:	e3dd                	bnez	a5,80092cf6 <begin_signature+0x1cf6>
    80092c52:	3778                	fld	fa4,232(a4)
    80092c54:	7a9e                	ld	s5,480(sp)
    80092c56:	0afe0073          	.insn	4, 0x0afe0073
    80092c5a:	b85d                	j	80092510 <begin_signature+0x1510>
    80092c5c:	d64d                	beqz	a2,80092c06 <begin_signature+0x1c06>
    80092c5e:	8efd0a8b          	.insn	4, 0x8efd0a8b
    80092c62:	6738                	ld	a4,72(a4)
    80092c64:	d75e                	sw	s7,172(sp)
    80092c66:	7ecd                	lui	t4,0xffff3
    80092c68:	14db86e7          	jalr	a3,333(s7) # 214d <_tbss_end+0x214d>
    80092c6c:	7c4ff607          	.insn	4, 0x7c4ff607
    80092c70:	33a89d1b          	.insn	4, 0x33a89d1b
    80092c74:	7265e1b7          	lui	gp,0x7265e
    80092c78:	edba                	sd	a4,216(sp)
    80092c7a:	abb1                	j	800931d6 <begin_signature+0x21d6>
    80092c7c:	7693234f          	.insn	4, 0x7693234f
    80092c80:	f83e431b          	.insn	4, 0xf83e431b
    80092c84:	f132                	sd	a2,160(sp)
    80092c86:	10fc                	addi	a5,sp,108
    80092c88:	63b5                	lui	t2,0xd
    80092c8a:	db0f59b7          	lui	s3,0xdb0f5
    80092c8e:	3801                	addiw	a6,a6,-32
    80092c90:	453e                	lw	a0,204(sp)
    80092c92:	e896                	sd	t0,80(sp)
    80092c94:	23ff 4634 56c7 47e2 	.insn	14, 0x6a86123af4cb47e256c7463423ff
    80092c9c:	f4cb 123a 6a86 
    80092ca2:	16e5                	addi	a3,a3,-7 # 1aff9 <_tbss_end+0x1aff9>
    80092ca4:	adf8                	fsd	fa4,216(a1)
    80092ca6:	30be                	fld	ft1,488(sp)
    80092ca8:	0dcba32b          	.insn	4, 0x0dcba32b
    80092cac:	913d                	srli	a0,a0,0x2f
    80092cae:	7a4c                	ld	a1,176(a2)
    80092cb0:	f1e08bef          	jal	s7,7ff9b3ce <_tbss_end+0x7ff9b3ce>
    80092cb4:	0d663c87          	fld	fs9,214(a2) # ae0d39aa <_end+0x2e03af46>
    80092cb8:	0781                	addi	a5,a5,0
    80092cba:	687d                	lui	a6,0x1f
    80092cbc:	7e04                	ld	s1,56(a2)
    80092cbe:	4a86                	lw	s5,64(sp)
    80092cc0:	bc42                	fsd	fa6,56(sp)
    80092cc2:	1461                	addi	s0,s0,-8 # 1bff8 <_tbss_end+0x1bff8>
    80092cc4:	e8da                	sd	s6,80(sp)
    80092cc6:	6030                	ld	a2,64(s0)
    80092cc8:	8facb2b7          	lui	t0,0x8facb
    80092ccc:	fb08                	sd	a0,48(a4)
    80092cce:	5aa9                	li	s5,-22
    80092cd0:	ce21ac63          	.insn	4, 0xce21ac63
    80092cd4:	2d46                	fld	fs10,80(sp)
    80092cd6:	15de                	slli	a1,a1,0x37
    80092cd8:	1d65                	addi	s10,s10,-7 # 736f5ff9 <_tbss_end+0x736f5ff9>
    80092cda:	9d130b73          	.insn	4, 0x9d130b73
    80092cde:	6036                	.insn	2, 0x6036
    80092ce0:	4be9                	li	s7,26
    80092ce2:	6e9e                	ld	t4,448(sp)
    80092ce4:	05e4                	addi	s1,sp,716
    80092ce6:	126d                	addi	tp,tp,-5 # fffffffffffffffb <_end+0xffffffff7ff67597>
    80092ce8:	3694                	fld	fa3,40(a3)
    80092cea:	3ae0                	fld	fs0,240(a3)
    80092cec:	dc8c                	sw	a1,56(s1)
    80092cee:	6b15                	lui	s6,0x5
    80092cf0:	db26                	sw	s1,180(sp)
    80092cf2:	8740                	.insn	2, 0x8740
    80092cf4:	283f3463          	.insn	4, 0x283f3463
    80092cf8:	72e2                	ld	t0,56(sp)
    80092cfa:	2c38                	fld	fa4,88(s0)
    80092cfc:	d510                	sw	a2,40(a0)
    80092cfe:	16dd                	addi	a3,a3,-9
    80092d00:	09ba                	slli	s3,s3,0xe
    80092d02:	c1e8                	sw	a0,68(a1)
    80092d04:	9284                	.insn	2, 0x9284
    80092d06:	bfdd756f          	jal	a0,8006a902 <label+0x662cc>
    80092d0a:	cc6ad373          	csrrwi	t1,0xcc6,21
    80092d0e:	1396                	slli	t2,t2,0x25
    80092d10:	7ead                	lui	t4,0xfffeb
    80092d12:	46f5                	li	a3,29
    80092d14:	146a                	slli	s0,s0,0x3a
    80092d16:	018a                	slli	gp,gp,0x2
    80092d18:	92a4                	.insn	2, 0x92a4
    80092d1a:	2434                	fld	fa3,72(s0)
    80092d1c:	55fcd613          	.insn	4, 0x55fcd613
    80092d20:	aa43cd03          	lbu	s10,-1372(t2) # caa4 <_tbss_end+0xcaa4>
    80092d24:	f006                	sd	ra,32(sp)
    80092d26:	e1652b33          	.insn	4, 0xe1652b33
    80092d2a:	3c39                	addiw	s8,s8,-18
    80092d2c:	2272                	fld	ft4,280(sp)
    80092d2e:	0ac1                	addi	s5,s5,16
    80092d30:	b7ad                	j	80092c9a <begin_signature+0x1c9a>
    80092d32:	5ddc                	lw	a5,60(a1)
    80092d34:	31c6f243          	fmadd.s	ft4,fa3,ft8,ft6
    80092d38:	fd5f a34a edc6      	.insn	6, 0xedc6a34afd5f
    80092d3e:	5c64                	lw	s1,124(s0)
    80092d40:	eee1                	bnez	a3,80092e18 <begin_signature+0x1e18>
    80092d42:	7d35                	lui	s10,0xfffed
    80092d44:	f158                	sd	a4,160(a0)
    80092d46:	6f81                	.insn	2, 0x6f81
    80092d48:	12ad                	addi	t0,t0,-21 # ffffffff8facafeb <_end+0xffffffff0fa32587>
    80092d4a:	bde1                	j	80092c22 <begin_signature+0x1c22>
    80092d4c:	c57d                	beqz	a0,80092e3a <begin_signature+0x1e3a>
    80092d4e:	1246                	slli	tp,tp,0x31
    80092d50:	9e7a                	add	t3,t3,t5
    80092d52:	ee1f 4f6e 2591      	.insn	6, 0x25914f6eee1f
    80092d58:	8802                	jr	a6
    80092d5a:	8165                	srli	a0,a0,0x19
    80092d5c:	3d6d1abf e0a6249c 	.insn	8, 0xe0a6249c3d6d1abf
    80092d64:	b085                	j	800925c4 <begin_signature+0x15c4>
    80092d66:	baf341ab          	.insn	4, 0xbaf341ab
    80092d6a:	7f1d                	lui	t5,0xfffe7
    80092d6c:	96c5                	srai	a3,a3,0x31
    80092d6e:	015f 1c1a f712      	.insn	6, 0xf7121c1a015f
    80092d74:	508e                	lw	ra,224(sp)
    80092d76:	458c                	lw	a1,8(a1)
    80092d78:	19b6                	slli	s3,s3,0x2d
    80092d7a:	2df6                	fld	fs11,344(sp)
    80092d7c:	6b41                	lui	s6,0x10
    80092d7e:	6d4d                	lui	s10,0x13
    80092d80:	f2ba                	sd	a4,352(sp)
    80092d82:	b604                	fsd	fs1,40(a2)
    80092d84:	cdd4                	sw	a3,28(a1)
    80092d86:	4228                	lw	a0,64(a2)
    80092d88:	c838                	sw	a4,80(s0)
    80092d8a:	47cd                	li	a5,19
    80092d8c:	d809                	beqz	s0,80092c9e <begin_signature+0x1c9e>
    80092d8e:	0074                	addi	a3,sp,12
    80092d90:	93d5                	srli	a5,a5,0x35
    80092d92:	699b49a3          	.insn	4, 0x699b49a3
    80092d96:	79ca                	ld	s3,176(sp)
    80092d98:	999d                	andi	a1,a1,-25
    80092d9a:	1225                	addi	tp,tp,-23 # ffffffffffffffe9 <_end+0xffffffff7ff67585>
    80092d9c:	42d9ff2b          	.insn	4, 0x42d9ff2b
    80092da0:	5f5e                	lw	t5,244(sp)
    80092da2:	1d58                	addi	a4,sp,692
    80092da4:	343a                	fld	fs0,424(sp)
    80092da6:	88516bd3          	.insn	4, 0x88516bd3
    80092daa:	f85c                	sd	a5,176(s0)
    80092dac:	ff2a                	sd	a0,440(sp)
    80092dae:	5a36                	lw	s4,108(sp)
    80092db0:	0f98                	addi	a4,sp,976
    80092db2:	950fb47b          	.insn	4, 0x950fb47b
    80092db6:	5f26                	lw	t5,104(sp)
    80092db8:	20f8                	fld	fa4,192(s1)
    80092dba:	520d                	li	tp,-29
    80092dbc:	64fa6743          	.insn	4, 0x64fa6743
    80092dc0:	06b7a663          	.insn	4, 0x06b7a663
    80092dc4:	3e582f4b          	.insn	4, 0x3e582f4b
    80092dc8:	278f516f          	jal	sp,80188040 <_end+0xef5dc>
    80092dcc:	1dc5                	addi	s11,s11,-15
    80092dce:	5350                	lw	a2,36(a4)
    80092dd0:	ad9d                	j	80093446 <begin_signature+0x2446>
    80092dd2:	cc44                	sw	s1,28(s0)
    80092dd4:	e61d                	bnez	a2,80092e02 <begin_signature+0x1e02>
    80092dd6:	7bc8                	ld	a0,176(a5)
    80092dd8:	f6f8                	sd	a4,232(a3)
    80092dda:	5869                	li	a6,-6
    80092ddc:	5350                	lw	a2,36(a4)
    80092dde:	41e1                	li	gp,24
    80092de0:	9485                	srai	s1,s1,0x21
    80092de2:	66bb29c3          	.insn	4, 0x66bb29c3
    80092de6:	623844d7          	.insn	4, 0x623844d7
    80092dea:	1d21                	addi	s10,s10,-24 # 12fe8 <_tbss_end+0x12fe8>
    80092dec:	d6b0                	sw	a2,104(a3)
    80092dee:	0f5f 5623 7547      	.insn	6, 0x754756230f5f
    80092df4:	01eff7eb          	.insn	4, 0x01eff7eb
    80092df8:	25e8                	fld	fa0,200(a1)
    80092dfa:	ff5d                	bnez	a4,80092db8 <begin_signature+0x1db8>
    80092dfc:	77643057          	.insn	4, 0x77643057
    80092e00:	5c79                	li	s8,-2
    80092e02:	faffe9fb          	.insn	4, 0xfaffe9fb
    80092e06:	7f1b122b          	.insn	4, 0x7f1b122b
    80092e0a:	2ce5                	addiw	s9,s9,25 # 1f019 <_tbss_end+0x1f019>
    80092e0c:	1f8c                	addi	a1,sp,1008
    80092e0e:	3f7e                	fld	ft10,504(sp)
    80092e10:	4374272f          	amoor.w.rl	a4,s7,(s0)
    80092e14:	a7b6                	fsd	fa3,456(sp)
    80092e16:	4a710883          	lb	a7,1191(sp)
    80092e1a:	8339                	srli	a4,a4,0xe
    80092e1c:	60606927          	.insn	4, 0x60606927
    80092e20:	95ec                	.insn	2, 0x95ec
    80092e22:	848a                	mv	s1,sp
    80092e24:	6af8                	ld	a4,208(a3)
    80092e26:	656e                	ld	a0,216(sp)
    80092e28:	5ddc                	lw	a5,60(a1)
    80092e2a:	fee5                	bnez	a3,80092e22 <begin_signature+0x1e22>
    80092e2c:	15fcc85b          	.insn	4, 0x15fcc85b
    80092e30:	8a6e                	mv	s4,s11
    80092e32:	ea7c                	sd	a5,208(a2)
    80092e34:	b5e9                	j	80092cfe <begin_signature+0x1cfe>
    80092e36:	72d5                	lui	t0,0xffff5
    80092e38:	c1c4                	sw	s1,4(a1)
    80092e3a:	57e0                	lw	s0,108(a5)
    80092e3c:	c330                	sw	a2,64(a4)
    80092e3e:	70a0                	ld	s0,96(s1)
    80092e40:	0a55                	addi	s4,s4,21
    80092e42:	ecee                	sd	s11,88(sp)
    80092e44:	a89c                	fsd	fa5,16(s1)
    80092e46:	08372b47          	fmsub.s	fs6,fa4,ft3,ft1,rdn
    80092e4a:	fe1943a3          	.insn	4, 0xfe1943a3
    80092e4e:	51be                	lw	gp,236(sp)
    80092e50:	d92bd22b          	.insn	4, 0xd92bd22b
    80092e54:	22c4                	fld	fs1,128(a3)
    80092e56:	2bb6                	fld	fs7,328(sp)
    80092e58:	68afdc7f 456b1189 	.insn	20, 0xcc3ce8e3776e46db9b3ec605456b118968afdc7f
    80092e60:	9b3ec605 776e46db 
    80092e68:	cc3ce8e3 
    80092e6c:	2ca157c7          	.insn	4, 0x2ca157c7
    80092e70:	5abc                	lw	a5,112(a3)
    80092e72:	e4ce                	sd	s3,72(sp)
    80092e74:	90e2                	add	ra,ra,s8
    80092e76:	0d3a                	slli	s10,s10,0xe
    80092e78:	b69bc983          	lbu	s3,-1175(s7)
    80092e7c:	746aa013          	slti	zero,s5,1862
    80092e80:	00d8                	addi	a4,sp,68
    80092e82:	037e                	slli	t1,t1,0x1f
    80092e84:	0ec2d7cb          	.insn	4, 0x0ec2d7cb
    80092e88:	41cd                	li	gp,19
    80092e8a:	5b3751a3          	.insn	4, 0x5b3751a3
    80092e8e:	1edf e41f 6f40      	.insn	6, 0x6f40e41f1edf
    80092e94:	26647b73          	csrrci	s6,0x266,8
    80092e98:	967d                	srai	a2,a2,0x3f
    80092e9a:	f414b3bf cc95593d 	.insn	8, 0xcc95593df414b3bf
    80092ea2:	dc3a2147          	.insn	4, 0xdc3a2147
    80092ea6:	6921                	lui	s2,0x8
    80092ea8:	2c42                	fld	fs8,16(sp)
    80092eaa:	3e753073          	csrc	0x3e7,a0
    80092eae:	50f9                	li	ra,-2
    80092eb0:	0975                	addi	s2,s2,29 # 801d <_tbss_end+0x801d>
    80092eb2:	4fd75757          	.insn	4, 0x4fd75757
    80092eb6:	b0900db3          	.insn	4, 0xb0900db3
    80092eba:	74e9                	lui	s1,0xffffa
    80092ebc:	412a                	lw	sp,136(sp)
    80092ebe:	4795                	li	a5,5
    80092ec0:	227c                	fld	fa5,192(a2)
    80092ec2:	c501                	beqz	a0,80092eca <begin_signature+0x1eca>
    80092ec4:	3761                	addiw	a4,a4,-8
    80092ec6:	06b0                	addi	a2,sp,840
    80092ec8:	436d                	li	t1,27
    80092eca:	9672                	add	a2,a2,t3
    80092ecc:	b6b9                	j	80092a1a <begin_signature+0x1a1a>
    80092ece:	42d0                	lw	a2,4(a3)
    80092ed0:	46b2                	lw	a3,12(sp)
    80092ed2:	e070                	sd	a2,192(s0)
    80092ed4:	2b1c4eaf          	.insn	4, 0x2b1c4eaf
    80092ed8:	216d                	addiw	sp,sp,27
    80092eda:	c7f1                	beqz	a5,80092fa6 <begin_signature+0x1fa6>
    80092edc:	ee10                	sd	a2,24(a2)
    80092ede:	42fd                	li	t0,31
    80092ee0:	2eec                	fld	fa1,216(a3)
    80092ee2:	4dc4                	lw	s1,28(a1)
    80092ee4:	4141                	li	sp,16
    80092ee6:	7bb5                	lui	s7,0xfffed
    80092ee8:	433b8597          	auipc	a1,0x433b8
    80092eec:	ea42                	sd	a6,272(sp)
    80092eee:	95610de3          	beq	sp,s6,80092848 <begin_signature+0x1848>
    80092ef2:	dfe0                	sw	s0,124(a5)
    80092ef4:	0b54                	addi	a3,sp,404
    80092ef6:	3614                	fld	fa3,40(a2)
    80092ef8:	d328                	sw	a0,96(a4)
    80092efa:	1c58                	addi	a4,sp,564
    80092efc:	58a2dc7f 6d8bc966 	.insn	20, 0x23e011dfd0176bdf0b28684e6d8bc96658a2dc7f
    80092f04:	0b28684e d0176bdf 
    80092f0c:	23e011df 
    80092f10:	c046                	sw	a7,0(sp)
    80092f12:	0289                	addi	t0,t0,2 # ffffffffffff5002 <_end+0xffffffff7ff5c59e>
    80092f14:	51117717          	auipc	a4,0x51117
    80092f18:	dc02                	sw	zero,56(sp)
    80092f1a:	0c1e                	slli	s8,s8,0x7
    80092f1c:	fd31                	bnez	a0,80092e78 <begin_signature+0x1e78>
    80092f1e:	6cc1                	lui	s9,0x10
    80092f20:	9dce                	add	s11,s11,s3
    80092f22:	e842                	sd	a6,16(sp)
    80092f24:	5172                	lw	sp,60(sp)
    80092f26:	153d                	addi	a0,a0,-17
    80092f28:	3619                	addiw	a2,a2,-26
    80092f2a:	4ad5                	li	s5,21
    80092f2c:	12fd                	addi	t0,t0,-1
    80092f2e:	4cc6                	lw	s9,80(sp)
    80092f30:	eba8                	sd	a0,80(a5)
    80092f32:	e7fa                	sd	t5,456(sp)
    80092f34:	6520                	ld	s0,72(a0)
    80092f36:	06f4                	addi	a3,sp,844
    80092f38:	9700                	.insn	2, 0x9700
    80092f3a:	f35ae2af          	.insn	4, 0xf35ae2af
    80092f3e:	4f80                	lw	s0,24(a5)
    80092f40:	dc74                	sw	a3,124(s0)
    80092f42:	fe26                	sd	s1,312(sp)
    80092f44:	01809163          	bne	ra,s8,80092f46 <begin_signature+0x1f46>
    80092f48:	01bc                	addi	a5,sp,200
    80092f4a:	a78b948f          	.insn	4, 0xa78b948f
    80092f4e:	00d0                	addi	a2,sp,68
    80092f50:	000c7093          	andi	ra,s8,0
    80092f54:	c5d9                	beqz	a1,80092fe2 <begin_signature+0x1fe2>
    80092f56:	74d0                	ld	a2,168(s1)
    80092f58:	be24                	fsd	fs1,120(a2)
    80092f5a:	23f432db          	.insn	4, 0x23f432db
    80092f5e:	20ee                	fld	ft1,216(sp)
    80092f60:	689f f3cf 7b6f      	.insn	6, 0x7b6ff3cf689f
    80092f66:	6569                	lui	a0,0x1a
    80092f68:	f660                	sd	s0,232(a2)
    80092f6a:	13718873          	.insn	4, 0x13718873
    80092f6e:	7e20                	ld	s0,120(a2)
    80092f70:	7552                	ld	a0,304(sp)
    80092f72:	8fb1                	xor	a5,a5,a2
    80092f74:	08fa                	slli	a7,a7,0x1e
    80092f76:	31ed                	addiw	gp,gp,-5 # 7265dffb <_tbss_end+0x7265dffb>
    80092f78:	fc3d                	bnez	s0,80092ef6 <begin_signature+0x1ef6>
    80092f7a:	82d534db          	.insn	4, 0x82d534db
    80092f7e:	762d                	lui	a2,0xfffeb
    80092f80:	96612803          	lw	a6,-1690(sp)
    80092f84:	0aec                	addi	a1,sp,348
    80092f86:	6c91                	lui	s9,0x4
    80092f88:	30cc                	fld	fa1,160(s1)
    80092f8a:	f182                	sd	zero,224(sp)
    80092f8c:	bd81                	j	80092ddc <begin_signature+0x1ddc>
    80092f8e:	17bd57a7          	.insn	4, 0x17bd57a7
    80092f92:	8616234f          	.insn	4, 0x8616234f
    80092f96:	4ad6                	lw	s5,84(sp)
    80092f98:	9d38                	.insn	2, 0x9d38
    80092f9a:	a2ba                	fsd	fa4,320(sp)
    80092f9c:	250a2deb          	.insn	4, 0x250a2deb
    80092fa0:	5dfc                	lw	a5,124(a1)
    80092fa2:	cc30                	sw	a2,88(s0)
    80092fa4:	0dd0                	addi	a2,sp,724
    80092fa6:	ba6b7ff7          	.insn	4, 0xba6b7ff7
    80092faa:	b83e                	fsd	fa5,48(sp)
    80092fac:	a770                	fsd	fa2,200(a4)
    80092fae:	5276                	lw	tp,124(sp)
    80092fb0:	8a75                	andi	a2,a2,29
    80092fb2:	50b75ea3          	.insn	4, 0x50b75ea3
    80092fb6:	440e                	lw	s0,192(sp)
    80092fb8:	46d4                	lw	a3,12(a3)
    80092fba:	0d8a                	slli	s11,s11,0x2
    80092fbc:	5ed3f63b          	.insn	4, 0x5ed3f63b
    80092fc0:	fe92fd97          	auipc	s11,0xfe92f
    80092fc4:	cd34                	sw	a3,88(a0)
    80092fc6:	1e10                	addi	a2,sp,816
    80092fc8:	9b0f9187          	.insn	4, 0x9b0f9187
    80092fcc:	8640                	.insn	2, 0x8640
    80092fce:	52aa47d3          	.insn	4, 0x52aa47d3
    80092fd2:	3e5c                	fld	fa5,184(a2)
    80092fd4:	2d30                	fld	fa2,88(a0)
    80092fd6:	d0412e13          	slti	t3,sp,-764
    80092fda:	b9b2                	fsd	fa2,240(sp)
    80092fdc:	b9a9                	j	80092c36 <begin_signature+0x1c36>
    80092fde:	54a0                	lw	s0,104(s1)
    80092fe0:	d3cf542b          	.insn	4, 0xd3cf542b
    80092fe4:	29a4                	fld	fs1,80(a1)
    80092fe6:	2fad                	addiw	t6,t6,11
    80092fe8:	6ce9                	lui	s9,0x1a
    80092fea:	8258                	.insn	2, 0x8258
    80092fec:	4991b3a3          	sd	s9,1159(gp)
    80092ff0:	001f 4ed6 544d      	.insn	6, 0x544d4ed6001f
    80092ff6:	4a95                	li	s5,5
    80092ff8:	9eb0                	.insn	2, 0x9eb0
    80092ffa:	aa8a                	fsd	ft2,336(sp)
    80092ffc:	0c7e5deb          	.insn	4, 0x0c7e5deb
    80093000:	7bf34dcf          	fnmadd.d	fs11,ft6,ft11,fa5,rmm
    80093004:	80fd                	srli	s1,s1,0x1f
    80093006:	286d                	addiw	a6,a6,27 # 1f01b <_tbss_end+0x1f01b>
    80093008:	9fba                	add	t6,t6,a4
    8009300a:	5141                	li	sp,-16
    8009300c:	2d85                	addiw	s11,s11,1 # 7e9c1fc1 <_tbss_end+0x7e9c1fc1>
    8009300e:	7bb14bdb          	.insn	4, 0x7bb14bdb
    80093012:	86a5                	srai	a3,a3,0x9
    80093014:	5cb9                	li	s9,-18
    80093016:	961e1167          	.insn	4, 0x961e1167
    8009301a:	e851                	bnez	s0,800930ae <begin_signature+0x20ae>
    8009301c:	82f5                	srli	a3,a3,0x1d
    8009301e:	73651153          	.insn	4, 0x73651153
    80093022:	e4c9                	bnez	s1,800930ac <begin_signature+0x20ac>
    80093024:	3dc4                	fld	fs1,184(a1)
    80093026:	67a1                	lui	a5,0x8
    80093028:	26b6                	fld	fa3,328(sp)
    8009302a:	3722                	fld	fa4,40(sp)
    8009302c:	3524                	fld	fs1,104(a0)
    8009302e:	2965                	addiw	s2,s2,25
    80093030:	207e                	fld	ft0,472(sp)
    80093032:	baff1ae7          	.insn	4, 0xbaff1ae7
    80093036:	d2ee5447          	fmsub.d	fs0,ft8,fa4,fs10,unknown
    8009303a:	ac9d                	j	800932b0 <begin_signature+0x22b0>
    8009303c:	831f 36fe 9128      	.insn	6, 0x912836fe831f
    80093042:	a97e                	fsd	ft11,144(sp)
    80093044:	10c9                	addi	ra,ra,-14
    80093046:	7a85                	lui	s5,0xfffe1
    80093048:	2e75                	addiw	t3,t3,29 # fffffffffffe901d <_end+0xffffffff7ff505b9>
    8009304a:	bb8a                	fsd	ft2,496(sp)
    8009304c:	3cbd60cb          	.insn	4, 0x3cbd60cb
    80093050:	69cd                	lui	s3,0x13
    80093052:	e44c79f3          	csrrci	s3,0xe44,24
    80093056:	0d72                	slli	s10,s10,0x1c
    80093058:	4945                	li	s2,17
    8009305a:	7981                	lui	s3,0xfffe0
    8009305c:	de1e                	sw	t2,60(sp)
    8009305e:	6d82                	ld	s11,0(sp)
    80093060:	2e5e                	fld	ft8,464(sp)
    80093062:	b90b4eb3          	.insn	4, 0xb90b4eb3
    80093066:	9f314fb7          	lui	t6,0x9f314
    8009306a:	fa0a                	sd	sp,304(sp)
    8009306c:	26911cb3          	.insn	4, 0x26911cb3
    80093070:	184a                	slli	a6,a6,0x32
    80093072:	8618                	.insn	2, 0x8618
    80093074:	0cf9                	addi	s9,s9,30 # 1a01e <_tbss_end+0x1a01e>
    80093076:	7c3e                	ld	s8,488(sp)
    80093078:	31ad2ae7          	.insn	4, 0x31ad2ae7
    8009307c:	4894                	lw	a3,16(s1)
    8009307e:	15ce                	slli	a1,a1,0x33
    80093080:	2365                	addiw	t1,t1,25
    80093082:	49674bc7          	fmsub.s	fs7,fa4,fs6,fs1,rmm
    80093086:	7849                	lui	a6,0xffff2
    80093088:	8e176f2b          	.insn	4, 0x8e176f2b
    8009308c:	a2f4                	fsd	fa3,192(a3)
    8009308e:	7786                	ld	a5,96(sp)
    80093090:	e67d                	bnez	a2,8009317e <begin_signature+0x217e>
    80093092:	8974                	.insn	2, 0x8974
    80093094:	51ea                	lw	gp,184(sp)
    80093096:	20b81d47          	fmsub.s	fs10,fa6,fa1,ft4,rtz
    8009309a:	2849                	addiw	a6,a6,18 # ffffffffffff2012 <_end+0xffffffff7ff595ae>
    8009309c:	1e8d4b97          	auipc	s7,0x1e8d4
    800930a0:	c924daaf          	.insn	4, 0xc924daaf
    800930a4:	e4ac                	sd	a1,72(s1)
    800930a6:	3e1c3373          	csrrc	t1,0x3e1,s8
    800930aa:	892a                	mv	s2,a0
    800930ac:	0ee84edb          	.insn	4, 0x0ee84edb
    800930b0:	f23e1193          	.insn	4, 0xf23e1193
    800930b4:	8ae2                	mv	s5,s8
    800930b6:	3e82                	fld	ft9,32(sp)
    800930b8:	3934                	fld	fa3,112(a0)
    800930ba:	9e9c                	.insn	2, 0x9e9c
    800930bc:	a839                	j	800930da <begin_signature+0x20da>
    800930be:	5fe25e0f          	.insn	4, 0x5fe25e0f
    800930c2:	54e9                	li	s1,-6
    800930c4:	d94d                	beqz	a0,80093076 <begin_signature+0x2076>
    800930c6:	6c5f 2888 e10b      	.insn	6, 0xe10b28886c5f
    800930cc:	0e85                	addi	t4,t4,1 # fffffffffffeb001 <_end+0xffffffff7ff5259d>
    800930ce:	4fc4                	lw	s1,28(a5)
    800930d0:	9506                	add	a0,a0,ra
    800930d2:	8664                	.insn	2, 0x8664
    800930d4:	61b9c77b          	.insn	4, 0x61b9c77b
    800930d8:	82cd                	srli	a3,a3,0x13
    800930da:	ee5c6b63          	bltu	s8,t0,800927d0 <begin_signature+0x17d0>
    800930de:	4294                	lw	a3,0(a3)
    800930e0:	8ad1                	andi	a3,a3,20
    800930e2:	3e9c                	fld	fa5,56(a3)
    800930e4:	de7e                	sw	t6,60(sp)
    800930e6:	1586                	slli	a1,a1,0x21
    800930e8:	31f511cf          	fnmadd.s	ft3,fa0,ft11,ft6,rtz
    800930ec:	099fedb3          	.insn	4, 0x099fedb3
    800930f0:	a06c                	fsd	fa1,192(s0)
    800930f2:	8b5e                	mv	s6,s7
    800930f4:	325413db          	.insn	4, 0x325413db
    800930f8:	fc9dc92f          	.insn	4, 0xfc9dc92f
    800930fc:	4e75                	li	t3,29
    800930fe:	4312                	lw	t1,4(sp)
    80093100:	1d66                	slli	s10,s10,0x39
    80093102:	efb1                	bnez	a5,8009315e <begin_signature+0x215e>
    80093104:	cbb0                	sw	a2,80(a5)
    80093106:	1269                	addi	tp,tp,-6 # fffffffffffffffa <_end+0xffffffff7ff67596>
    80093108:	04cbb77b          	.insn	4, 0x04cbb77b
    8009310c:	775a                	ld	a4,432(sp)
    8009310e:	3b85                	addiw	s7,s7,-31 # ffffffff9e96707d <_end+0xffffffff1e8ce619>
    80093110:	423c                	lw	a5,64(a2)
    80093112:	688c                	ld	a1,16(s1)
    80093114:	e8a1                	bnez	s1,80093164 <begin_signature+0x2164>
    80093116:	0b2a                	slli	s6,s6,0xa
    80093118:	882e8e0f          	.insn	4, 0x882e8e0f
    8009311c:	af7a                	fsd	ft10,408(sp)
    8009311e:	66c0                	ld	s0,136(a3)
    80093120:	bce2ab1b          	.insn	4, 0xbce2ab1b
    80093124:	be54                	fsd	fa3,184(a2)
    80093126:	66040133          	.insn	4, 0x66040133
    8009312a:	562a6297          	auipc	t0,0x562a6
    8009312e:	433f032b          	.insn	4, 0x433f032b
    80093132:	dbae                	sw	a1,244(sp)
    80093134:	7ae41ca3          	sh	a4,1977(s0)
    80093138:	8edd9ac7          	.insn	4, 0x8edd9ac7
    8009313c:	3d6d                	addiw	s10,s10,-5
    8009313e:	4d84                	lw	s1,24(a1)
    80093140:	8255                	srli	a2,a2,0x15
    80093142:	07cb70eb          	.insn	4, 0x07cb70eb
    80093146:	4d96                	lw	s11,68(sp)
    80093148:	3538                	fld	fa4,104(a0)
    8009314a:	f43d1f37          	lui	t5,0xf43d1
    8009314e:	49fc2723          	sw	t6,1166(s8)
    80093152:	9db4dc0f          	.insn	4, 0x9db4dc0f
    80093156:	6511                	lui	a0,0x4
    80093158:	487f 3d0d eb29 479b 	.insn	18, 0x3c904ce07554a889e2d9479beb293d0d487f
    80093160:	e2d9 a889 7554 4ce0 
    80093168:	3c90 
    8009316a:	f62bb877          	.insn	4, 0xf62bb877
    8009316e:	3db12e03          	lw	t3,987(sp)
    80093172:	ac8e                	fsd	ft3,88(sp)
    80093174:	c344                	sw	s1,4(a4)
    80093176:	1d112167          	.insn	4, 0x1d112167
    8009317a:	03a5                	addi	t2,t2,9
    8009317c:	e571                	bnez	a0,80093248 <begin_signature+0x2248>
    8009317e:	2ff5                	addiw	t6,t6,29 # ffffffff9f31401d <_end+0xffffffff1f27b5b9>
    80093180:	dee9                	beqz	a3,8009315a <begin_signature+0x215a>
    80093182:	9b0046d7          	.insn	4, 0x9b0046d7
    80093186:	34fa                	fld	fs1,440(sp)
    80093188:	3596                	fld	fa1,352(sp)
    8009318a:	3955                	addiw	s2,s2,-11
    8009318c:	ed4e                	sd	s3,152(sp)
    8009318e:	156a                	slli	a0,a0,0x3a
    80093190:	3bc6                	fld	fs7,112(sp)
    80093192:	91f0                	.insn	2, 0x91f0
    80093194:	1ffa                	slli	t6,t6,0x3e
    80093196:	ca970407          	.insn	4, 0xca970407
    8009319a:	ba85                	j	80092b0a <begin_signature+0x1b0a>
    8009319c:	6efa                	ld	t4,408(sp)
    8009319e:	ada52ad3          	.insn	4, 0xada52ad3
    800931a2:	9125                	srli	a0,a0,0x29
    800931a4:	de9e                	sw	t2,124(sp)
    800931a6:	6e8a2e97          	auipc	t4,0x6e8a2
    800931aa:	99df9ae3          	bne	t6,t4,80092b3e <begin_signature+0x1b3e>
    800931ae:	c9f61a4b          	fnmsub.s	fs4,fa2,ft11,fs9,rtz
    800931b2:	dc62                	sw	s8,56(sp)
    800931b4:	52f4                	lw	a3,100(a3)
    800931b6:	4e5d                	li	t3,23
    800931b8:	787d                	lui	a6,0xfffff
    800931ba:	ccf5                	beqz	s1,800932b6 <begin_signature+0x22b6>
    800931bc:	7525614f          	.insn	4, 0x7525614f
    800931c0:	f230                	sd	a2,96(a2)
    800931c2:	fb7c                	sd	a5,240(a4)
    800931c4:	e3c2                	sd	a6,448(sp)
    800931c6:	7e3e                	ld	t3,488(sp)
    800931c8:	ce8d                	beqz	a3,80093202 <begin_signature+0x2202>
    800931ca:	e650                	sd	a2,136(a2)
    800931cc:	499565eb          	.insn	4, 0x499565eb
    800931d0:	b63d7bef          	jal	s7,8006ad32 <label+0x666fc>
    800931d4:	31f12d4b          	fnmsub.s	fs10,ft2,ft11,ft6,rdn
    800931d8:	c26eb017          	auipc	zero,0xc26eb
    800931dc:	4ab9cd4b          	fnmsub.d	fs10,fs3,fa1,fs1,rmm
    800931e0:	a19a                	fsd	ft6,192(sp)
    800931e2:	0f72                	slli	t5,t5,0x1c
    800931e4:	5799                	li	a5,-26
    800931e6:	dc9e7c67          	.insn	4, 0xdc9e7c67
    800931ea:	e368                	sd	a0,192(a4)
    800931ec:	249d                	addiw	s1,s1,7 # ffffffffffffa007 <_end+0xffffffff7ff615a3>
    800931ee:	44d5                	li	s1,21
    800931f0:	0792                	slli	a5,a5,0x4
    800931f2:	62c8                	ld	a0,128(a3)
    800931f4:	c4ad                	beqz	s1,8009325e <begin_signature+0x225e>
    800931f6:	47b9                	li	a5,14
    800931f8:	0625                	addi	a2,a2,9 # fffffffffffeb009 <_end+0xffffffff7ff525a5>
    800931fa:	7375                	lui	t1,0xffffd
    800931fc:	432ef13f b7a6feee 	.insn	8, 0xb7a6feee432ef13f
    80093204:	51ef77eb          	.insn	4, 0x51ef77eb
    80093208:	ce35                	beqz	a2,80093284 <begin_signature+0x2284>
    8009320a:	f7a9                	bnez	a5,80093154 <begin_signature+0x2154>
    8009320c:	2980f20f          	.insn	4, 0x2980f20f
    80093210:	6740                	ld	s0,136(a4)
    80093212:	d379                	beqz	a4,800931d8 <begin_signature+0x21d8>
    80093214:	7d42                	ld	s10,48(sp)
    80093216:	2700                	fld	fs0,8(a4)
    80093218:	bef6                	fsd	ft9,376(sp)
    8009321a:	b47e                	fsd	ft11,40(sp)
    8009321c:	3cb5dc8b          	.insn	4, 0x3cb5dc8b
    80093220:	06d5                	addi	a3,a3,21
    80093222:	6aa0                	ld	s0,80(a3)
    80093224:	16ad                	addi	a3,a3,-21
    80093226:	387e                	fld	fa6,504(sp)
    80093228:	3bcc                	fld	fa1,176(a5)
    8009322a:	07d94dbf 29b1518d 	.insn	8, 0x29b1518d07d94dbf
    80093232:	d64c                	sw	a1,44(a2)
    80093234:	eb01                	bnez	a4,80093244 <begin_signature+0x2244>
    80093236:	7564                	ld	s1,232(a0)
    80093238:	8d15                	sub	a0,a0,a3
    8009323a:	f815                	bnez	s0,8009316e <begin_signature+0x216e>
    8009323c:	1c81                	addi	s9,s9,-32
    8009323e:	1a6e                	slli	s4,s4,0x3b
    80093240:	dfa2                	sw	s0,252(sp)
    80093242:	729364f7          	.insn	4, 0x729364f7
    80093246:	7e7e                	ld	t3,504(sp)
    80093248:	b649                	j	80092dca <begin_signature+0x1dca>
    8009324a:	16b82eab          	.insn	4, 0x16b82eab
    8009324e:	a6816b43          	.insn	4, 0xa6816b43
    80093252:	12bd                	addi	t0,t0,-17 # d6339119 <_end+0x562a06b5>
    80093254:	3d248efb          	.insn	4, 0x3d248efb
    80093258:	b21e                	fsd	ft7,288(sp)
    8009325a:	a9ae                	fsd	fa1,208(sp)
    8009325c:	4125                	li	sp,9
    8009325e:	5798                	lw	a4,40(a5)
    80093260:	b776aca7          	fsw	fs7,-1159(a3)
    80093264:	e9f5                	bnez	a1,80093358 <begin_signature+0x2358>
    80093266:	7c55                	lui	s8,0xffff5
    80093268:	0f32                	slli	t5,t5,0xc
    8009326a:	e3f9                	bnez	a5,80093330 <begin_signature+0x2330>
    8009326c:	1041                	c.nop	-16
    8009326e:	47c6                	lw	a5,80(sp)
    80093270:	20e4                	fld	fs1,192(s1)
    80093272:	804e                	c.mv	zero,s3
    80093274:	2f74                	fld	fa3,216(a4)
    80093276:	1a15                	addi	s4,s4,-27
    80093278:	e4d2                	sd	s4,72(sp)
    8009327a:	e706                	sd	ra,392(sp)
    8009327c:	2a35                	addiw	s4,s4,13
    8009327e:	727110bb          	.insn	4, 0x727110bb
    80093282:	fe62                	sd	s8,312(sp)
    80093284:	2135a293          	slti	t0,a1,531
    80093288:	06c4                	addi	s1,sp,836
    8009328a:	9210                	.insn	2, 0x9210
    8009328c:	d241                	beqz	a2,8009320c <begin_signature+0x220c>
    8009328e:	55a9                	li	a1,-22
    80093290:	ba1c6e2b          	.insn	4, 0xba1c6e2b
    80093294:	4985f8f3          	csrrci	a7,0x498,11
    80093298:	2595                	addiw	a1,a1,5 # ffffffffc344aeed <_end+0xffffffff433b2489>
    8009329a:	5c7e                	lw	s8,252(sp)
    8009329c:	5acad2f3          	csrrwi	t0,0x5ac,21
    800932a0:	883dcd33          	.insn	4, 0x883dcd33
    800932a4:	fc86                	sd	ra,120(sp)
    800932a6:	1bc377c7          	fmsub.d	fa5,ft6,ft8,ft3
    800932aa:	4e5d                	li	t3,23
    800932ac:	2869                	addiw	a6,a6,26 # fffffffffffff01a <_end+0xffffffff7ff665b6>
    800932ae:	5f6c                	lw	a1,124(a4)
    800932b0:	293e2cf3          	csrrs	s9,0x293,t3
    800932b4:	0925                	addi	s2,s2,9
    800932b6:	2fd137ff 4efad80c 	.insn	16, 0x10cb9db94331638c4efad80c2fd137ff
    800932be:	4331638c 10cb9db9 
    800932c6:	04ad                	addi	s1,s1,11
    800932c8:	d73c                	sw	a5,104(a4)
    800932ca:	7850                	ld	a2,176(s0)
    800932cc:	12b0                	addi	a2,sp,360
    800932ce:	4bc8                	lw	a0,20(a5)
    800932d0:	b4b8                	fsd	fa4,104(s1)
    800932d2:	52b2                	lw	t0,44(sp)
    800932d4:	1f06                	slli	t5,t5,0x21
    800932d6:	788e                	ld	a7,224(sp)
    800932d8:	1b6e                	slli	s6,s6,0x3b
    800932da:	3ef0                	fld	fa2,248(a3)
    800932dc:	3a49                	addiw	s4,s4,-14
    800932de:	6bf1                	lui	s7,0x1c
    800932e0:	d29f 112c 4cdd      	.insn	6, 0x4cdd112cd29f
    800932e6:	7b95                	lui	s7,0xfffe5
    800932e8:	9376                	add	t1,t1,t4
    800932ea:	beb4992b          	.insn	4, 0xbeb4992b
    800932ee:	50a5                	li	ra,-23
    800932f0:	5202                	lw	tp,32(sp)
    800932f2:	de51                	beqz	a2,8009328e <begin_signature+0x228e>
    800932f4:	6971                	lui	s2,0x1c
    800932f6:	2c80                	fld	fs0,24(s1)
    800932f8:	e355                	bnez	a4,8009339c <begin_signature+0x239c>
    800932fa:	732b04cb          	fnmsub.d	fs1,fs6,fs2,fa4,rne
    800932fe:	57ae                	lw	a5,232(sp)
    80093300:	86e5                	srai	a3,a3,0x19
    80093302:	4099917b          	.insn	4, 0x4099917b
    80093306:	948340cf          	.insn	4, 0x948340cf
    8009330a:	a8a1                	j	80093362 <begin_signature+0x2362>
    8009330c:	0c7a5d33          	.insn	4, 0x0c7a5d33
    80093310:	193d                	addi	s2,s2,-17 # 1bfef <_tbss_end+0x1bfef>
    80093312:	590d3ab7          	lui	s5,0x590d3
    80093316:	81ec64a7          	.insn	4, 0x81ec64a7
    8009331a:	4b35                	li	s6,13
    8009331c:	737c                	ld	a5,224(a4)
    8009331e:	2c6e7e0b          	.insn	4, 0x2c6e7e0b
    80093322:	9070                	.insn	2, 0x9070
    80093324:	29e9                	addiw	s3,s3,26 # fffffffffffe001a <_end+0xffffffff7ff475b6>
    80093326:	1015                	c.nop	-27
    80093328:	31b5                	addiw	gp,gp,-19
    8009332a:	28fc                	fld	fa5,208(s1)
    8009332c:	0555                	addi	a0,a0,21 # 4015 <_tbss_end+0x4015>
    8009332e:	175a                	slli	a4,a4,0x36
    80093330:	253e                	fld	fa0,456(sp)
    80093332:	1e46                	slli	t3,t3,0x31
    80093334:	183d                	addi	a6,a6,-17
    80093336:	432a                	lw	t1,136(sp)
    80093338:	3ac4                	fld	fs1,176(a3)
    8009333a:	b2da7d4b          	fnmsub.d	fs10,fs4,fa3,fs6
    8009333e:	3309                	addiw	t1,t1,-30 # ffffffffffffcfe2 <_end+0xffffffff7ff6457e>
    80093340:	dc0c                	sw	a1,56(s0)
    80093342:	0a85                	addi	s5,s5,1 # 590d3001 <_tbss_end+0x590d3001>
    80093344:	c4f8                	sw	a4,76(s1)
    80093346:	e9b810f7          	.insn	4, 0xe9b810f7
    8009334a:	4d69                	li	s10,26
    8009334c:	c1a1                	beqz	a1,8009338c <begin_signature+0x238c>
    8009334e:	7d35                	lui	s10,0xfffed
    80093350:	652f570b          	.insn	4, 0x652f570b
    80093354:	2426f5af          	.insn	4, 0x2426f5af
    80093358:	424c                	lw	a1,4(a2)
    8009335a:	5814                	lw	a3,48(s0)
    8009335c:	0d7c                	addi	a5,sp,668
    8009335e:	128a                	slli	t0,t0,0x22
    80093360:	cd4c                	sw	a1,28(a0)
    80093362:	221a                	fld	ft4,384(sp)
    80093364:	7628                	ld	a0,104(a2)
    80093366:	1cb0                	addi	a2,sp,632
    80093368:	c4d4                	sw	a3,12(s1)
    8009336a:	c9c5                	beqz	a1,8009341a <begin_signature+0x241a>
    8009336c:	c0d6                	sw	s5,64(sp)
    8009336e:	55c867a3          	.insn	4, 0x55c867a3
    80093372:	73538ecf          	fnmadd.d	ft9,ft7,fs5,fa4,rne
    80093376:	528a                	lw	t0,160(sp)
    80093378:	e829                	bnez	s0,800933ca <begin_signature+0x23ca>
    8009337a:	a8fc                	fsd	fa5,208(s1)
    8009337c:	9b39                	andi	a4,a4,-18
    8009337e:	30a86f7b          	.insn	4, 0x30a86f7b
    80093382:	222a                	fld	ft4,136(sp)
    80093384:	66ed                	lui	a3,0x1b
    80093386:	4dd4                	lw	a3,28(a1)
    80093388:	d704                	sw	s1,40(a4)
    8009338a:	7012                	.insn	2, 0x7012
    8009338c:	05463877          	.insn	4, 0x05463877
    80093390:	68ae                	ld	a7,200(sp)
    80093392:	0ca6                	slli	s9,s9,0x9
    80093394:	a022                	fsd	fs0,0(sp)
    80093396:	641f5203          	lhu	tp,1601(t5) # fffffffff43d1641 <_end+0xffffffff74338bdd>
    8009339a:	846c                	.insn	2, 0x846c
    8009339c:	1c86                	slli	s9,s9,0x21
    8009339e:	5c45                	li	s8,-15
    800933a0:	2272f673          	csrrci	a2,0x227,5
    800933a4:	67a2                	ld	a5,8(sp)
    800933a6:	4e79                	li	t3,30
    800933a8:	a4b4                	fsd	fa3,72(s1)
    800933aa:	9445                	srai	s0,s0,0x31
    800933ac:	916d                	srli	a0,a0,0x3b
    800933ae:	05b5                	addi	a1,a1,13
    800933b0:	b0de                	fsd	fs7,96(sp)
    800933b2:	49c9                	li	s3,18
    800933b4:	bba4                	fsd	fs1,112(a5)
    800933b6:	17e0                	addi	s0,sp,1004
    800933b8:	3738                	fld	fa4,104(a4)
    800933ba:	545c08eb          	.insn	4, 0x545c08eb
    800933be:	d2bb2fc7          	fmsub.d	ft11,fs6,fa1,fs10,rdn
    800933c2:	0da2                	slli	s11,s11,0x8
    800933c4:	5c44                	lw	s1,60(s0)
    800933c6:	7d09                	lui	s10,0xfffe2
    800933c8:	6726                	ld	a4,72(sp)
    800933ca:	bd98                	fsd	fa4,56(a1)
    800933cc:	82dc                	.insn	2, 0x82dc
    800933ce:	d3da1c6b          	.insn	4, 0xd3da1c6b
    800933d2:	1393e49b          	.insn	4, 0x1393e49b
    800933d6:	e8fc2657          	.insn	4, 0xe8fc2657
    800933da:	bdca                	fsd	fs2,248(sp)
    800933dc:	72d6                	ld	t0,368(sp)
    800933de:	02e13f53          	fadd.d	ft10,ft2,fa4,rup
    800933e2:	55ac                	lw	a1,104(a1)
    800933e4:	9292                	add	t0,t0,tp
    800933e6:	4765                	li	a4,25
    800933e8:	fbed                	bnez	a5,800933da <begin_signature+0x23da>
    800933ea:	0b54                	addi	a3,sp,404
    800933ec:	0cd2                	slli	s9,s9,0x14
    800933ee:	2f09                	addiw	t5,t5,2
    800933f0:	1a04                	addi	s1,sp,304
    800933f2:	3a9a0ba3          	sb	s1,951(s4)
    800933f6:	2c8e                	fld	fs9,192(sp)
    800933f8:	7612196b          	.insn	4, 0x7612196b
    800933fc:	229e                	fld	ft5,448(sp)
    800933fe:	06f5                	addi	a3,a3,29 # 1b01d <_tbss_end+0x1b01d>
    80093400:	d988                	sw	a0,48(a1)
    80093402:	f09f 789e 5b3d      	.insn	6, 0x5b3d789ef09f
    80093408:	d3d8                	sw	a4,36(a5)
    8009340a:	38e1                	addiw	a7,a7,-8 # fffffffff3666c1a <_end+0xffffffff735ce1b6>
    8009340c:	24e5                	addiw	s1,s1,25
    8009340e:	1834                	addi	a3,sp,56
    80093410:	4539                	li	a0,14
    80093412:	3bbbdbb7          	lui	s7,0x3bbbd
    80093416:	5fc8                	lw	a0,60(a5)
    80093418:	d5e0fec7          	.insn	4, 0xd5e0fec7
    8009341c:	861f 0bdf cabe      	.insn	6, 0xcabe0bdf861f
    80093422:	682d                	lui	a6,0xb
    80093424:	ba1e                	fsd	ft7,304(sp)
    80093426:	58f2                	lw	a7,60(sp)
    80093428:	0ab5                	addi	s5,s5,13
    8009342a:	6997c747          	fmsub.s	fa4,fa5,fs9,fa3,rmm
    8009342e:	7bb8                	ld	a4,112(a5)
    80093430:	9616                	add	a2,a2,t0
    80093432:	2ac4                	fld	fs1,144(a3)
    80093434:	087289e3          	beq	t0,t2,80093cc6 <begin_signature+0x2cc6>
    80093438:	869d                	srai	a3,a3,0x7
    8009343a:	a53a                	fsd	fa4,136(sp)
    8009343c:	6ac5                	lui	s5,0x11
    8009343e:	0425                	addi	s0,s0,9
    80093440:	dfc14e6b          	.insn	4, 0xdfc14e6b
    80093444:	95a4                	.insn	2, 0x95a4
    80093446:	3556                	fld	fa0,368(sp)
    80093448:	c3127a5b          	.insn	4, 0xc3127a5b
    8009344c:	eaae                	sd	a1,336(sp)
    8009344e:	a29f464b          	fnmsub.d	fa2,ft10,fs1,fs4,rmm
    80093452:	3fd0                	fld	fa2,184(a5)
    80093454:	4a64                	lw	s1,84(a2)
    80093456:	7545                	lui	a0,0xffff1
    80093458:	f400e1bb          	.insn	4, 0xf400e1bb
    8009345c:	7360021b          	addiw	tp,zero,1846
    80093460:	64dd                	lui	s1,0x17
    80093462:	b280                	fsd	fs0,32(a3)
    80093464:	60ee                	ld	ra,216(sp)
    80093466:	4a11                	li	s4,4
    80093468:	0e6a                	slli	t3,t3,0x1a
    8009346a:	5e95                	li	t4,-27
    8009346c:	9002                	ebreak
    8009346e:	5b44                	lw	s1,52(a4)
    80093470:	45c1                	li	a1,16
    80093472:	3591                	addiw	a1,a1,-28
    80093474:	780c                	ld	a1,48(s0)
    80093476:	21a4                	fld	fs1,64(a1)
    80093478:	274c                	fld	fa1,136(a4)
    8009347a:	3448be53          	.insn	4, 0x3448be53
    8009347e:	e8491e23          	sh	tp,-356(s2)
    80093482:	2545                	addiw	a0,a0,17 # ffffffffffff1011 <_end+0xffffffff7ff585ad>
    80093484:	7d80796b          	.insn	4, 0x7d80796b
    80093488:	fcb62c43          	.insn	4, 0xfcb62c43
    8009348c:	2ad6                	fld	fs5,336(sp)
    8009348e:	5174                	lw	a3,100(a0)
    80093490:	6a5cbda3          	sd	t0,1723(s9)
    80093494:	8509                	srai	a0,a0,0x2
    80093496:	d98c6f23          	.insn	4, 0xd98c6f23
    8009349a:	53da                	lw	t2,180(sp)
    8009349c:	7ec9                	lui	t4,0xffff2
    8009349e:	1844                	addi	s1,sp,52
    800934a0:	95b10ebb          	.insn	4, 0x95b10ebb
    800934a4:	14409827          	.insn	4, 0x14409827
    800934a8:	358c                	fld	fa1,40(a1)
    800934aa:	e984                	sd	s1,16(a1)
    800934ac:	d0c0                	sw	s0,36(s1)
    800934ae:	691e                	ld	s2,448(sp)
    800934b0:	66fc06ab          	.insn	4, 0x66fc06ab
    800934b4:	76ff2647          	.insn	4, 0x76ff2647
    800934b8:	3561                	addiw	a0,a0,-8
    800934ba:	7ae0                	ld	s0,240(a3)
    800934bc:	9704                	.insn	2, 0x9704
    800934be:	10e4                	addi	s1,sp,108
    800934c0:	5b20                	lw	s0,112(a4)
    800934c2:	170c37b7          	lui	a5,0x170c3
    800934c6:	fb431747          	fmsub.d	fa4,ft6,fs4,ft11,rtz
    800934ca:	6d7f 5cde 7ae5 dc1a 	.insn	22, 0x53c8d74a243572b002b3cbfe34f4dc1a7ae55cde6d7f
    800934d2:	34f4 cbfe 02b3 72b0 
    800934da:	2435 d74a 53c8 
    800934e0:	00d6                	slli	ra,ra,0x15
    800934e2:	4050                	lw	a2,4(s0)
    800934e4:	fe59                	bnez	a2,80093482 <begin_signature+0x2482>
    800934e6:	714e                	ld	sp,240(sp)
    800934e8:	d875b7a3          	sd	t2,-625(a1)
    800934ec:	47b6                	lw	a5,76(sp)
    800934ee:	48c0                	lw	s0,20(s1)
    800934f0:	4604                	lw	s1,8(a2)
    800934f2:	63c8                	ld	a0,128(a5)
    800934f4:	bdb1                	j	80093350 <begin_signature+0x2350>
    800934f6:	7b48                	ld	a0,176(a4)
    800934f8:	9706                	add	a4,a4,ra
    800934fa:	2aca                	fld	fs5,144(sp)
    800934fc:	21f2                	fld	ft3,280(sp)
    800934fe:	2f08                	fld	fa0,24(a4)
    80093500:	f2ea                	sd	s10,352(sp)
    80093502:	2900                	fld	fs0,16(a0)
    80093504:	20e1                	addiw	ra,ra,24
    80093506:	3d7d3927          	fsd	fs7,978(s10) # fffffffffffe23d2 <_end+0xffffffff7ff4996e>
    8009350a:	01a4                	addi	s1,sp,200
    8009350c:	b13a                	fsd	fa4,160(sp)
    8009350e:	508c                	lw	a1,32(s1)
    80093510:	d13d7c0b          	.insn	4, 0xd13d7c0b
    80093514:	26cabe47          	.insn	4, 0x26cabe47
    80093518:	58f8                	lw	a4,116(s1)
    8009351a:	5ea8                	lw	a0,120(a3)
    8009351c:	771a                	ld	a4,416(sp)
    8009351e:	d7800d0f          	.insn	4, 0xd7800d0f
    80093522:	75c5                	lui	a1,0xffff1
    80093524:	ee81                	bnez	a3,8009353c <begin_signature+0x253c>
    80093526:	de04757b          	.insn	4, 0xde04757b
    8009352a:	fcc9                	bnez	s1,800934c4 <begin_signature+0x24c4>
    8009352c:	cbe6                	sw	s9,212(sp)
    8009352e:	444a                	lw	s0,144(sp)
    80093530:	5f10                	lw	a2,56(a4)
    80093532:	4366                	lw	t1,88(sp)
    80093534:	b4f5                	j	80093020 <begin_signature+0x2020>
    80093536:	5d5b5bcf          	.insn	4, 0x5d5b5bcf
    8009353a:	2211                	addiw	tp,tp,4 # 4 <_tbss_end+0x4>
    8009353c:	fc3a                	sd	a4,56(sp)
    8009353e:	0cb9                	addi	s9,s9,14
    80093540:	b2c9                	j	80092f02 <begin_signature+0x1f02>
    80093542:	1baa                	slli	s7,s7,0x2a
    80093544:	ae9e                	fsd	ft7,344(sp)
    80093546:	014027ef          	jal	a5,8009555a <end_signature+0x55a>
    8009354a:	ca295eb7          	lui	t4,0xca295
    8009354e:	27fa                	fld	fa5,408(sp)
    80093550:	5f1e                	lw	t5,228(sp)
    80093552:	2b05                	addiw	s6,s6,1 # 10001 <_tbss_end+0x10001>
    80093554:	77fa429b          	.insn	4, 0x77fa429b
    80093558:	bf64                	fsd	fs1,248(a4)
    8009355a:	bc40                	fsd	fs0,184(s0)
    8009355c:	ecbc                	sd	a5,88(s1)
    8009355e:	598c                	lw	a1,48(a1)
    80093560:	35811863          	bne	sp,s8,800938b0 <begin_signature+0x28b0>
    80093564:	2762                	fld	fa4,24(sp)
    80093566:	3c21                	addiw	s8,s8,-24 # ffffffffffff4fe8 <_end+0xffffffff7ff5c584>
    80093568:	2190                	fld	fa2,0(a1)
    8009356a:	0d9f541b          	.insn	4, 0x0d9f541b
    8009356e:	127a                	slli	tp,tp,0x3e
    80093570:	f30cd51b          	.insn	4, 0xf30cd51b
    80093574:	a23d                	j	800936a2 <begin_signature+0x26a2>
    80093576:	7a30                	ld	a2,112(a2)
    80093578:	0921                	addi	s2,s2,8
    8009357a:	dba6                	sw	s1,244(sp)
    8009357c:	fa52                	sd	s4,304(sp)
    8009357e:	e4897c8b          	.insn	4, 0xe4897c8b
    80093582:	3214                	fld	fa3,32(a2)
    80093584:	54b9                	li	s1,-18
    80093586:	4bf9                	li	s7,30
    80093588:	a68a                	fsd	ft2,328(sp)
    8009358a:	4c5f ee49 14e7      	.insn	6, 0x14e7ee494c5f
    80093590:	505a                	.insn	2, 0x505a
    80093592:	6a5a                	ld	s4,400(sp)
    80093594:	34b0                	fld	fa2,104(s1)
    80093596:	3d92                	fld	fs11,288(sp)
    80093598:	1e8a                	slli	t4,t4,0x22
    8009359a:	44212227          	fsw	ft2,1092(sp)
    8009359e:	6c3e49c7          	.insn	4, 0x6c3e49c7
    800935a2:	da15                	beqz	a2,800934d6 <begin_signature+0x24d6>
    800935a4:	6bd9                	lui	s7,0x16
    800935a6:	0076                	c.slli	zero,0x1d
    800935a8:	6330                	ld	a2,64(a4)
    800935aa:	7df1                	lui	s11,0xffffc
    800935ac:	29d2                	fld	fs3,272(sp)
    800935ae:	2595                	addiw	a1,a1,5 # ffffffffffff1005 <_end+0xffffffff7ff585a1>
    800935b0:	92e7e59b          	.insn	4, 0x92e7e59b
    800935b4:	6098                	ld	a4,0(s1)
    800935b6:	23cd3a9b          	.insn	4, 0x23cd3a9b
    800935ba:	27232e97          	auipc	t4,0x27232
    800935be:	df0c5397          	auipc	t2,0xdf0c5
    800935c2:	176d                	addi	a4,a4,-5 # d11a9f0f <_end+0x511114ab>
    800935c4:	618d7b23          	.insn	4, 0x618d7b23
    800935c8:	7bac                	ld	a1,112(a5)
    800935ca:	7c6c                	ld	a1,248(s0)
    800935cc:	33c9                	addiw	t2,t2,-14 # 5f1585b0 <_tbss_end+0x5f1585b0>
    800935ce:	2d16                	fld	fs10,320(sp)
    800935d0:	751e                	ld	a0,480(sp)
    800935d2:	d33f360f          	.insn	4, 0xd33f360f
    800935d6:	4258                	lw	a4,4(a2)
    800935d8:	e919                	bnez	a0,800935ee <begin_signature+0x25ee>
    800935da:	61d5                	lui	gp,0x15
    800935dc:	36f9                	addiw	a3,a3,-2
    800935de:	52c1                	li	t0,-16
    800935e0:	b508                	fsd	fa0,40(a0)
    800935e2:	6894                	ld	a3,16(s1)
    800935e4:	1ce28377          	.insn	4, 0x1ce28377
    800935e8:	71b4f6f3          	csrrci	a3,0x71b,9
    800935ec:	3f581bff a6bd2422 	.insn	12, 0x0f83bedca6bd24223f581bff
    800935f4:	0f83bedc 
    800935f8:	4b34                	lw	a3,80(a4)
    800935fa:	389e                	fld	fa7,480(sp)
    800935fc:	0380                	addi	s0,sp,448
    800935fe:	7e12                	ld	t3,288(sp)
    80093600:	e176                	sd	t4,128(sp)
    80093602:	2b65                	addiw	s6,s6,25
    80093604:	478970af          	.insn	4, 0x478970af
    80093608:	9ccc                	.insn	2, 0x9ccc
    8009360a:	e45c                	sd	a5,136(s0)
    8009360c:	b5d8                	fsd	fa4,168(a1)
    8009360e:	123a                	slli	tp,tp,0x2e
    80093610:	944dc86f          	jal	a6,8006f754 <label+0x6b11e>
    80093614:	29f6                	fld	fs3,344(sp)
    80093616:	7555                	lui	a0,0xffff5
    80093618:	1e10                	addi	a2,sp,816
    8009361a:	3182                	fld	ft3,32(sp)
    8009361c:	c4c0                	sw	s0,12(s1)
    8009361e:	4000                	lw	s0,0(s0)
    80093620:	28fadc03          	lhu	s8,655(s5) # 1128f <_tbss_end+0x1128f>
    80093624:	2000                	fld	fs0,0(s0)
    80093626:	5718                	lw	a4,40(a4)
    80093628:	5552                	lw	a0,52(sp)
    8009362a:	8802                	jr	a6
    8009362c:	6a8c                	ld	a1,16(a3)
    8009362e:	29ed27f3          	csrrs	a5,0x29e,s10
    80093632:	12dd                	addi	t0,t0,-9
    80093634:	496909e7          	jalr	s3,1174(s2)
    80093638:	da6c                	sw	a1,116(a2)
    8009363a:	2856                	fld	fa6,336(sp)
    8009363c:	0aed                	addi	s5,s5,27
    8009363e:	19a85d17          	auipc	s10,0x19a85
    80093642:	e2ff c0c1 49de d0d8 	.insn	22, 0x427d6aa3639f69c16a65cf33bfe3d0d849dec0c1e2ff
    8009364a:	bfe3 cf33 6a65 69c1 
    80093652:	639f 6aa3 427d 
    80093658:	62f9                	lui	t0,0x1e
    8009365a:	e21c                	sd	a5,0(a2)
    8009365c:	5381                	li	t2,-32
    8009365e:	85905d33          	.insn	4, 0x85905d33
    80093662:	65da                	ld	a1,400(sp)
    80093664:	68d0570f          	.insn	4, 0x68d0570f
    80093668:	266e                	fld	fa2,216(sp)
    8009366a:	9782                	jalr	a5
    8009366c:	24b9                	addiw	s1,s1,14 # 1700e <_tbss_end+0x1700e>
    8009366e:	a02a6253          	.insn	4, 0xa02a6253
    80093672:	9c2bb2eb          	.insn	4, 0x9c2bb2eb
    80093676:	3ae1                	addiw	s5,s5,-8
    80093678:	c5a4                	sw	s1,72(a1)
    8009367a:	9c1f 1bb6 4b02      	.insn	6, 0x4b021bb69c1f
    80093680:	0484                	addi	s1,sp,576
    80093682:	cb667423          	.insn	4, 0xcb667423
    80093686:	0ca2                	slli	s9,s9,0x8
    80093688:	f9de                	sd	s7,240(sp)
    8009368a:	7725                	lui	a4,0xfffe9
    8009368c:	8168                	.insn	2, 0x8168
    8009368e:	062c2677          	.insn	4, 0x062c2677
    80093692:	13180653          	fmul.d	fa2,fa6,fa7,rne
    80093696:	36e5667b          	.insn	4, 0x36e5667b
    8009369a:	c273864b          	fnmsub.d	fa2,ft7,ft7,fs8,rne
    8009369e:	7b80                	ld	s0,48(a5)
    800936a0:	3565                	addiw	a0,a0,-7 # ffffffffffff4ff9 <_end+0xffffffff7ff5c595>
    800936a2:	70db9ccb          	fnmsub.s	fs9,fs7,fa3,fa4,rtz
    800936a6:	48fa                	lw	a7,156(sp)
    800936a8:	4e7a                	lw	t3,156(sp)
    800936aa:	d504                	sw	s1,40(a0)
    800936ac:	7a568c9b          	addiw	s9,a3,1957
    800936b0:	e519e9b3          	.insn	4, 0xe519e9b3
    800936b4:	32e6cfc7          	fmsub.d	ft11,fa3,fa4,ft6,rmm
    800936b8:	a282                	fsd	ft0,320(sp)
    800936ba:	21b1                	addiw	gp,gp,12 # 1500c <_tbss_end+0x1500c>
    800936bc:	5c1e                	lw	s8,228(sp)
    800936be:	33ce                	fld	ft7,240(sp)
    800936c0:	ef6af2e7          	.insn	4, 0xef6af2e7
    800936c4:	f111                	bnez	a0,800935c8 <begin_signature+0x25c8>
    800936c6:	bce40f6f          	jal	t5,7ffd3a94 <_tbss_end+0x7ffd3a94>
    800936ca:	6128                	ld	a0,64(a0)
    800936cc:	d2fe                	sw	t6,100(sp)
    800936ce:	70ca                	ld	ra,176(sp)
    800936d0:	f21b7e4f          	fnmadd.d	ft8,fs6,ft1,ft10
    800936d4:	5b24                	lw	s1,112(a4)
    800936d6:	23b6                	fld	ft7,328(sp)
    800936d8:	ae61                	j	80093a70 <begin_signature+0x2a70>
    800936da:	e85f 329d 6849      	.insn	6, 0x6849329de85f
    800936e0:	4788                	lw	a0,8(a5)
    800936e2:	4535                	li	a0,13
    800936e4:	23d6                	fld	ft7,336(sp)
    800936e6:	1dce                	slli	s11,s11,0x33
    800936e8:	2afa                	fld	fs5,408(sp)
    800936ea:	7e166c43          	.insn	4, 0x7e166c43
    800936ee:	6cc8                	ld	a0,152(s1)
    800936f0:	09ea                	slli	s3,s3,0x1a
    800936f2:	3102c023          	.insn	4, 0x3102c023
    800936f6:	6501                	.insn	2, 0x6501
    800936f8:	235c                	fld	fa5,128(a4)
    800936fa:	eb60                	sd	s0,208(a4)
    800936fc:	72a8                	ld	a0,96(a3)
    800936fe:	1feb49e3          	blt	s6,t5,800940f0 <begin_signature+0x30f0>
    80093702:	eaa316d7          	.insn	4, 0xeaa316d7
    80093706:	4e860fef          	jal	t6,800f3bee <_end+0x5b18a>
    8009370a:	3049                	.insn	2, 0x3049
    8009370c:	2d14                	fld	fa3,24(a0)
    8009370e:	1001                	c.nop	-32
    80093710:	a38a                	fsd	ft2,448(sp)
    80093712:	bddd                	j	80093608 <begin_signature+0x2608>
    80093714:	11d8                	addi	a4,sp,228
    80093716:	146c                	addi	a1,sp,556
    80093718:	ba28a1fb          	.insn	4, 0xba28a1fb
    8009371c:	5968                	lw	a0,116(a0)
    8009371e:	2555                	addiw	a0,a0,21
    80093720:	fc02                	sd	zero,56(sp)
    80093722:	603dd51b          	.insn	4, 0x603dd51b
    80093726:	70344303          	lbu	t1,1795(s0)
    8009372a:	190a                	slli	s2,s2,0x22
    8009372c:	352a                	fld	fa0,168(sp)
    8009372e:	2e2a34b7          	lui	s1,0x2e2a3
    80093732:	e834                	sd	a3,80(s0)
    80093734:	d616                	sw	t0,44(sp)
    80093736:	49bc                	lw	a5,80(a1)
    80093738:	e530                	sd	a2,72(a0)
    8009373a:	7be6                	ld	s7,120(sp)
    8009373c:	8a46                	mv	s4,a7
    8009373e:	217d                	addiw	sp,sp,31
    80093740:	b824                	fsd	fs1,112(s0)
    80093742:	7fa9                	lui	t6,0xfffea
    80093744:	0d354353          	.insn	4, 0x0d354353
    80093748:	9cca                	add	s9,s9,s2
    8009374a:	a3c6                	fsd	fa7,448(sp)
    8009374c:	7b94                	ld	a3,48(a5)
    8009374e:	64b91153          	.insn	4, 0x64b91153
    80093752:	6b02                	ld	s6,0(sp)
    80093754:	0b42                	slli	s6,s6,0x10
    80093756:	5fdd                	li	t6,-9
    80093758:	92bd                	srli	a3,a3,0x2f
    8009375a:	ca1c                	sw	a5,16(a2)
    8009375c:	18dd                	addi	a7,a7,-9
    8009375e:	7085                	lui	ra,0xfffe1
    80093760:	f385                	bnez	a5,80093680 <begin_signature+0x2680>
    80093762:	16ac                	addi	a1,sp,872
    80093764:	d5a1                	beqz	a1,800936ac <begin_signature+0x26ac>
    80093766:	9f800cbb          	.insn	4, 0x9f800cbb
    8009376a:	6a02                	ld	s4,0(sp)
    8009376c:	231c                	fld	fa5,0(a4)
    8009376e:	0e74                	addi	a3,sp,796
    80093770:	0ce31633          	.insn	4, 0x0ce31633
    80093774:	764d                	lui	a2,0xffff3
    80093776:	7aad                	lui	s5,0xfffeb
    80093778:	6586                	ld	a1,64(sp)
    8009377a:	b558                	fsd	fa4,168(a0)
    8009377c:	7fbd                	lui	t6,0xfffef
    8009377e:	3910                	fld	fa2,48(a0)
    80093780:	1a71                	addi	s4,s4,-4
    80093782:	65f1e487          	.insn	4, 0x65f1e487
    80093786:	274f522b          	.insn	4, 0x274f522b
    8009378a:	df10                	sw	a2,56(a4)
    8009378c:	b9d5                	j	80093480 <begin_signature+0x2480>
    8009378e:	05d5                	addi	a1,a1,21
    80093790:	96ee3a2f          	.insn	4, 0x96ee3a2f
    80093794:	6924                	ld	s1,80(a0)
    80093796:	55cd                	li	a1,-13
    80093798:	545fde73          	csrrwi	t3,0x545,31
    8009379c:	f88e                	sd	gp,112(sp)
    8009379e:	4331                	li	t1,12
    800937a0:	0199                	addi	gp,gp,6
    800937a2:	e61f f193 454b      	.insn	6, 0x454bf193e61f
    800937a8:	361a                	fld	fa2,416(sp)
    800937aa:	1dd9                	addi	s11,s11,-10 # ffffffffffffbff6 <_end+0xffffffff7ff63592>
    800937ac:	5d26                	lw	s10,104(sp)
    800937ae:	18d1                	addi	a7,a7,-12
    800937b0:	d76f0743          	.insn	4, 0xd76f0743
    800937b4:	edbc                	sd	a5,88(a1)
    800937b6:	63c0                	ld	s0,128(a5)
    800937b8:	a38a                	fsd	ft2,448(sp)
    800937ba:	3b72                	fld	fs6,312(sp)
    800937bc:	5f2162af          	.insn	4, 0x5f2162af
    800937c0:	ec507dd3          	.insn	4, 0xec507dd3
    800937c4:	6949                	lui	s2,0x12
    800937c6:	1a54                	addi	a3,sp,308
    800937c8:	18e6                	slli	a7,a7,0x39
    800937ca:	dd60                	sw	s0,124(a0)
    800937cc:	36cd                	addiw	a3,a3,-13
    800937ce:	3899                	addiw	a7,a7,-26
    800937d0:	f2ec                	sd	a1,224(a3)
    800937d2:	b0e9                	j	8009309c <begin_signature+0x209c>
    800937d4:	e846                	sd	a7,16(sp)
    800937d6:	ca8a37ff 4f131484 	.insn	16, 0x039db6ab0d77760c4f131484ca8a37ff
    800937de:	0d77760c 039db6ab 
    800937e6:	5a98                	lw	a4,48(a3)
    800937e8:	6c24                	ld	s1,88(s0)
    800937ea:	fed5193b          	.insn	4, 0xfed5193b
    800937ee:	4d75528f          	.insn	4, 0x4d75528f
    800937f2:	bd28                	fsd	fa0,120(a0)
    800937f4:	c560                	sw	s0,76(a0)
    800937f6:	7190                	ld	a2,32(a1)
    800937f8:	66f9                	lui	a3,0x1e
    800937fa:	0c4e                	slli	s8,s8,0x13
    800937fc:	c1b8                	sw	a4,64(a1)
    800937fe:	7bf0                	ld	a2,240(a5)
    80093800:	a7f4                	fsd	fa3,200(a5)
    80093802:	5624                	lw	s1,104(a2)
    80093804:	0f28                	addi	a0,sp,920
    80093806:	ab792593          	slti	a1,s2,-1353
    8009380a:	eadd3667          	.insn	4, 0xeadd3667
    8009380e:	52216bdb          	.insn	4, 0x52216bdb
    80093812:	9085                	srli	s1,s1,0x21
    80093814:	6990                	ld	a2,16(a1)
    80093816:	0915                	addi	s2,s2,5 # 12005 <_tbss_end+0x12005>
    80093818:	66ba5c57          	.insn	4, 0x66ba5c57
    8009381c:	26ac                	fld	fa1,72(a3)
    8009381e:	0290                	addi	a2,sp,320
    80093820:	c618                	sw	a4,8(a2)
    80093822:	88e2                	mv	a7,s8
    80093824:	a078                	fsd	fa4,192(s0)
    80093826:	5bed                	li	s7,-5
    80093828:	623f98c3          	fmadd.d	fa7,ft11,ft3,fa2,rtz
    8009382c:	529f 1464 6165      	.insn	6, 0x61651464529f
    80093832:	c37f 9289 35a4 aa79 	.insn	18, 0x0950021a27974cb2d15daa7935a49289c37f
    8009383a:	d15d 4cb2 2797 021a 
    80093842:	0950 
    80093844:	fe6d                	bnez	a2,8009383e <begin_signature+0x283e>
    80093846:	4285                	li	t0,1
    80093848:	2808                	fld	fa0,16(s0)
    8009384a:	a069                	j	800938d4 <begin_signature+0x28d4>
    8009384c:	c9a8                	sw	a0,80(a1)
    8009384e:	27da                	fld	fa5,400(sp)
    80093850:	1bc0                	addi	s0,sp,500
    80093852:	281c                	fld	fa5,16(s0)
    80093854:	ab06                	fsd	ft1,400(sp)
    80093856:	4b00                	lw	s0,16(a4)
    80093858:	84a8                	.insn	2, 0x84a8
    8009385a:	8c537063          	bgeu	t1,t0,8009291a <begin_signature+0x191a>
    8009385e:	3cf9                	addiw	s9,s9,-2
    80093860:	e140                	sd	s0,128(a0)
    80093862:	e581                	bnez	a1,8009386a <begin_signature+0x286a>
    80093864:	c07e                	sw	t6,0(sp)
    80093866:	5865                	li	a6,-7
    80093868:	40df 086f 39a2      	.insn	6, 0x39a2086f40df
    8009386e:	4af4                	lw	a3,84(a3)
    80093870:	58f2                	lw	a7,60(sp)
    80093872:	270abdff c8e65a58 	.insn	16, 0x194f2d8614817232c8e65a58270abdff
    8009387a:	14817232 194f2d86 
    80093882:	40f8                	lw	a4,68(s1)
    80093884:	7476                	ld	s0,376(sp)
    80093886:	914c188f          	.insn	4, 0x914c188f
    8009388a:	1436                	slli	s0,s0,0x2d
    8009388c:	0c9c                	addi	a5,sp,592
    8009388e:	4a04                	lw	s1,16(a2)
    80093890:	91dd                	srli	a1,a1,0x37
    80093892:	d5b1                	beqz	a1,800937de <begin_signature+0x27de>
    80093894:	6932                	ld	s2,264(sp)
    80093896:	764c                	ld	a1,168(a2)
    80093898:	ab86                	fsd	ft1,464(sp)
    8009389a:	6d00                	ld	s0,24(a0)
    8009389c:	3c4d                	addiw	s8,s8,-13
    8009389e:	7535                	lui	a0,0xfffed
    800938a0:	da9e                	sw	t2,116(sp)
    800938a2:	ea62                	sd	s8,272(sp)
    800938a4:	2975                	addiw	s2,s2,29
    800938a6:	b84f0ca3          	sb	tp,-1127(t5)
    800938aa:	90ea                	add	ra,ra,s10
    800938ac:	5735                	li	a4,-19
    800938ae:	62cb5417          	auipc	s0,0x62cb5
    800938b2:	bdbd                	j	80093730 <begin_signature+0x2730>
    800938b4:	bc6c                	fsd	fa1,248(s0)
    800938b6:	7bfe                	ld	s7,504(sp)
    800938b8:	efa6                	sd	s1,472(sp)
    800938ba:	e0f6307b          	.insn	4, 0xe0f6307b
    800938be:	084e                	slli	a6,a6,0x13
    800938c0:	bffc                	fsd	fa5,248(a5)
    800938c2:	3d10                	fld	fa2,56(a0)
    800938c4:	17275b17          	auipc	s6,0x17275
    800938c8:	0b85                	addi	s7,s7,1 # 16001 <_tbss_end+0x16001>
    800938ca:	b27f2ecf          	fnmadd.d	ft9,ft10,ft7,fs6,rdn
    800938ce:	134c                	addi	a1,sp,420
    800938d0:	f75d9ea3          	sh	s5,-131(s11)
    800938d4:	e2b6                	sd	a3,320(sp)
    800938d6:	0fb4                	addi	a3,sp,984
    800938d8:	a914                	fsd	fa3,16(a0)
    800938da:	8e74                	.insn	2, 0x8e74
    800938dc:	14016fcf          	.insn	4, 0x14016fcf
    800938e0:	a0d446db          	.insn	4, 0xa0d446db
    800938e4:	ed7e                	sd	t6,152(sp)
    800938e6:	6e39                	lui	t3,0xe
    800938e8:	b602                	fsd	ft0,296(sp)
    800938ea:	31ae                	fld	ft3,232(sp)
    800938ec:	7cdb19d3          	.insn	4, 0x7cdb19d3
    800938f0:	5121                	li	sp,-24
    800938f2:	5d6d                	li	s10,-5
    800938f4:	6455                	lui	s0,0x15
    800938f6:	6f7c                	ld	a5,216(a4)
    800938f8:	dc43aaf7          	.insn	4, 0xdc43aaf7
    800938fc:	b7e1                	j	800938c4 <begin_signature+0x28c4>
    800938fe:	698c                	ld	a1,16(a1)
    80093900:	60a9                	lui	ra,0xa
    80093902:	822e                	mv	tp,a1
    80093904:	407d                	c.li	zero,31
    80093906:	2f16                	fld	ft10,320(sp)
    80093908:	2ce8                	fld	fa0,216(s1)
    8009390a:	94cd                	srai	s1,s1,0x33
    8009390c:	6ff9                	lui	t6,0x1e
    8009390e:	45d8                	lw	a4,12(a1)
    80093910:	5616                	lw	a2,100(sp)
    80093912:	7ba6                	ld	s7,104(sp)
    80093914:	9f11                	subw	a4,a4,a2
    80093916:	a306294b          	fnmsub.d	fs2,fa2,fa6,fs4,rdn
    8009391a:	0aca                	slli	s5,s5,0x12
    8009391c:	f721                	bnez	a4,80093864 <begin_signature+0x2864>
    8009391e:	5956                	lw	s2,116(sp)
    80093920:	c96a                	sw	s10,144(sp)
    80093922:	edc97c93          	andi	s9,s2,-292
    80093926:	5bbd                	li	s7,-17
    80093928:	99d5                	andi	a1,a1,-11
    8009392a:	e6e4                	sd	s1,200(a3)
    8009392c:	b0c5                	j	8009320c <begin_signature+0x220c>
    8009392e:	5b65                	li	s6,-7
    80093930:	6606                	ld	a2,64(sp)
    80093932:	0c3a                	slli	s8,s8,0xe
    80093934:	08d9                	addi	a7,a7,22
    80093936:	59dd5a1b          	.insn	4, 0x59dd5a1b
    8009393a:	9930                	.insn	2, 0x9930
    8009393c:	49d4618b          	.insn	4, 0x49d4618b
    80093940:	29f8                	fld	fa4,208(a1)
    80093942:	ea6b617b          	.insn	4, 0xea6b617b
    80093946:	4831                	li	a6,12
    80093948:	fe5d                	bnez	a2,80093906 <begin_signature+0x2906>
    8009394a:	5640                	lw	s0,44(a2)
    8009394c:	96ad                	srai	a3,a3,0x2b
    8009394e:	2b4d                	addiw	s6,s6,19 # ffffffff973088d7 <_end+0xffffffff1726fe73>
    80093950:	1229                	addi	tp,tp,-22 # ffffffffffffffea <_end+0xffffffff7ff67586>
    80093952:	a45c                	fsd	fa5,136(s0)
    80093954:	4f4d0937          	lui	s2,0x4f4d0
    80093958:	17f913fb          	.insn	4, 0x17f913fb
    8009395c:	756fe143          	.insn	4, 0x756fe143
    80093960:	dbc0                	sw	s0,52(a5)
    80093962:	ea4a                	sd	s2,272(sp)
    80093964:	fa9c                	sd	a5,48(a3)
    80093966:	6a8e                	ld	s5,192(sp)
    80093968:	af01                	j	80094078 <begin_signature+0x3078>
    8009396a:	6f4e                	ld	t5,208(sp)
    8009396c:	c786                	sw	ra,204(sp)
    8009396e:	2472                	fld	fs0,280(sp)
    80093970:	b71d                	j	80093896 <begin_signature+0x2896>
    80093972:	1751                	addi	a4,a4,-12 # fffffffffffe8ff4 <_end+0xffffffff7ff50590>
    80093974:	21d4                	fld	fa3,128(a1)
    80093976:	11f5                	addi	gp,gp,-3
    80093978:	b6568ce7          	jalr	s9,-1179(a3) # 1db65 <_tbss_end+0x1db65>
    8009397c:	17fd                	addi	a5,a5,-1 # 170c2fff <_tbss_end+0x170c2fff>
    8009397e:	576d                	li	a4,-5
    80093980:	9c79                	.insn	2, 0x9c79
    80093982:	6284                	ld	s1,0(a3)
    80093984:	f51d                	bnez	a0,800938b2 <begin_signature+0x28b2>
    80093986:	2996                	fld	fs3,320(sp)
    80093988:	37e80daf          	.insn	4, 0x37e80daf
    8009398c:	77e2                	ld	a5,56(sp)
    8009398e:	3941                	addiw	s2,s2,-16 # 4f4cfff0 <_tbss_end+0x4f4cfff0>
    80093990:	5915                	li	s2,-27
    80093992:	09a6                	slli	s3,s3,0x9
    80093994:	3cc887b3          	.insn	4, 0x3cc887b3
    80093998:	ac5c                	fsd	fa5,152(s0)
    8009399a:	3f04                	fld	fs1,56(a4)
    8009399c:	690ec2c3          	fmadd.s	ft5,ft9,fa6,fa3,rmm
    800939a0:	b00a6c6f          	jal	s8,80039ca0 <label+0x3566a>
    800939a4:	1cf8                	addi	a4,sp,636
    800939a6:	06ae                	slli	a3,a3,0xb
    800939a8:	171c                	addi	a5,sp,928
    800939aa:	3700fa77          	.insn	4, 0x3700fa77
    800939ae:	5008                	lw	a0,32(s0)
    800939b0:	9ebae073          	csrsi	0x9eb,21
    800939b4:	754c84af          	.insn	4, 0x754c84af
    800939b8:	efa3bc8f          	.insn	4, 0xefa3bc8f
    800939bc:	fe9c                	sd	a5,56(a3)
    800939be:	4660                	lw	s0,76(a2)
    800939c0:	0154                	addi	a3,sp,132
    800939c2:	0e6a                	slli	t3,t3,0x1a
    800939c4:	10c370ab          	.insn	4, 0x10c370ab
    800939c8:	cac2                	sw	a6,84(sp)
    800939ca:	0a3a                	slli	s4,s4,0xe
    800939cc:	a5ce                	fsd	fs3,200(sp)
    800939ce:	1e5a                	slli	t3,t3,0x36
    800939d0:	ae8c                	fsd	fa1,24(a3)
    800939d2:	f765                	bnez	a4,800939ba <begin_signature+0x29ba>
    800939d4:	8fe5                	and	a5,a5,s1
    800939d6:	63b9                	lui	t2,0xe
    800939d8:	4aa871a7          	.insn	4, 0x4aa871a7
    800939dc:	342e8f9b          	addiw	t6,t4,834 # ffffffffa72c58fc <_end+0xffffffff2722ce98>
    800939e0:	3ba4ff7b          	.insn	4, 0x3ba4ff7b
    800939e4:	4f38                	lw	a4,88(a4)
    800939e6:	1e7e                	slli	t3,t3,0x3f
    800939e8:	b2fa                	fsd	ft10,352(sp)
    800939ea:	1104                	addi	s1,sp,160
    800939ec:	0fc0                	addi	s0,sp,980
    800939ee:	6c2f0383          	lb	t2,1730(t5)
    800939f2:	2bc0                	fld	fs0,144(a5)
    800939f4:	7110                	ld	a2,32(a0)
    800939f6:	45fa                	lw	a1,156(sp)
    800939f8:	b49e                	fsd	ft7,104(sp)
    800939fa:	cad8                	sw	a4,20(a3)
    800939fc:	162a                	slli	a2,a2,0x2a
    800939fe:	ee443497          	auipc	s1,0xee443
    80093a02:	dc11                	beqz	s0,8009391e <begin_signature+0x291e>
    80093a04:	5b8d3137          	lui	sp,0x5b8d3
    80093a08:	6684                	ld	s1,8(a3)
    80093a0a:	6b29601b          	.insn	4, 0x6b29601b
    80093a0e:	28a2                	fld	fa7,8(sp)
    80093a10:	e4b1                	bnez	s1,80093a5c <begin_signature+0x2a5c>
    80093a12:	8976                	mv	s2,t4
    80093a14:	601f 12ff 4f87      	.insn	6, 0x4f8712ff601f
    80093a1a:	cc26                	sw	s1,24(sp)
    80093a1c:	65423ff3          	csrrc	t6,0x654,tp
    80093a20:	840a                	mv	s0,sp
    80093a22:	730a                	ld	t1,160(sp)
    80093a24:	ba21                	j	8009333c <begin_signature+0x233c>
    80093a26:	7664                	ld	s1,232(a2)
    80093a28:	50f9                	li	ra,-2
    80093a2a:	dc5d                	beqz	s0,800939e8 <begin_signature+0x29e8>
    80093a2c:	2251                	addiw	tp,tp,20 # 14 <_tbss_end+0x14>
    80093a2e:	6748                	ld	a0,136(a4)
    80093a30:	0db0492f          	.insn	4, 0x0db0492f
    80093a34:	28a4da7b          	.insn	4, 0x28a4da7b
    80093a38:	5eee                	lw	t4,248(sp)
    80093a3a:	5d76                	lw	s10,124(sp)
    80093a3c:	64c8                	ld	a0,136(s1)
    80093a3e:	c93e070b          	.insn	4, 0xc93e070b
    80093a42:	1904                	addi	s1,sp,176
    80093a44:	9eac                	.insn	2, 0x9eac
    80093a46:	968a0007          	.insn	4, 0x968a0007
    80093a4a:	5e1e834b          	.insn	4, 0x5e1e834b
    80093a4e:	70cf104b          	fnmsub.s	ft0,ft10,fa2,fa4,rtz
    80093a52:	2fa5                	addiw	t6,t6,9 # 1e009 <_tbss_end+0x1e009>
    80093a54:	b554                	fsd	fa3,168(a0)
    80093a56:	09b6                	slli	s3,s3,0xd
    80093a58:	e930                	sd	a2,80(a0)
    80093a5a:	1aca                	slli	s5,s5,0x32
    80093a5c:	5425                	li	s0,-23
    80093a5e:	78bf052f          	.insn	4, 0x78bf052f
    80093a62:	31ca09b3          	.insn	4, 0x31ca09b3
    80093a66:	7bda                	ld	s7,432(sp)
    80093a68:	697a                	ld	s2,408(sp)
    80093a6a:	93c36c4f          	fnmadd.d	fs8,ft6,ft8,fs2,unknown
    80093a6e:	3a76                	fld	fs4,376(sp)
    80093a70:	28e3d5f7          	.insn	4, 0x28e3d5f7
    80093a74:	f198                	sd	a4,32(a1)
    80093a76:	53ad                	li	t2,-21
    80093a78:	b889                	j	800932ca <begin_signature+0x22ca>
    80093a7a:	f968                	sd	a0,240(a0)
    80093a7c:	22772e23          	sw	t2,572(a4)
    80093a80:	8489                	srai	s1,s1,0x2
    80093a82:	959f0a43          	.insn	4, 0x959f0a43
    80093a86:	0cd0                	addi	a2,sp,596
    80093a88:	d12ef62b          	.insn	4, 0xd12ef62b
    80093a8c:	af2e                	fsd	fa1,408(sp)
    80093a8e:	7150                	ld	a2,160(a0)
    80093a90:	abd21a23          	sh	t4,-1356(tp) # fffffffffffffab4 <_end+0xffffffff7ff67050>
    80093a94:	e5be                	sd	a5,200(sp)
    80093a96:	50b13bd3          	.insn	4, 0x50b13bd3
    80093a9a:	a831                	j	80093ab6 <begin_signature+0x2ab6>
    80093a9c:	e1d9                	bnez	a1,80093b22 <begin_signature+0x2b22>
    80093a9e:	4236                	lw	tp,76(sp)
    80093aa0:	9868                	.insn	2, 0x9868
    80093aa2:	3f4f0f63          	beq	t5,s4,80093ea0 <begin_signature+0x2ea0>
    80093aa6:	3729                	addiw	a4,a4,-22
    80093aa8:	e1e6                	sd	s9,192(sp)
    80093aaa:	fe0c                	sd	a1,56(a2)
    80093aac:	0fc85bb7          	lui	s7,0xfc85
    80093ab0:	438c                	lw	a1,0(a5)
    80093ab2:	1b6c                	addi	a1,sp,444
    80093ab4:	9ce9                	.insn	2, 0x9ce9
    80093ab6:	b45055b7          	lui	a1,0xb4505
    80093aba:	32b84497          	auipc	s1,0x32b84
    80093abe:	4460                	lw	s0,76(s0)
    80093ac0:	4bdf5467          	.insn	4, 0x4bdf5467
    80093ac4:	287ce713          	ori	a4,s9,647
    80093ac8:	2009                	.insn	2, 0x2009
    80093aca:	60abfdb3          	.insn	4, 0x60abfdb3
    80093ace:	07b0                	addi	a2,sp,968
    80093ad0:	78ff0b2f          	.insn	4, 0x78ff0b2f
    80093ad4:	3912                	fld	fs2,288(sp)
    80093ad6:	2398                	fld	fa4,0(a5)
    80093ad8:	1589                	addi	a1,a1,-30 # ffffffffb4504fe2 <_end+0xffffffff3446c57e>
    80093ada:	80bc                	.insn	2, 0x80bc
    80093adc:	310c                	fld	fa1,32(a0)
    80093ade:	5c8b5423          	.insn	4, 0x5c8b5423
    80093ae2:	453c                	lw	a5,72(a0)
    80093ae4:	10f6                	slli	ra,ra,0x3d
    80093ae6:	4470                	lw	a2,76(s0)
    80093ae8:	9189                	srli	a1,a1,0x22
    80093aea:	2be0                	fld	fs0,208(a5)
    80093aec:	8868                	.insn	2, 0x8868
    80093aee:	edc5248f          	.insn	4, 0xedc5248f
    80093af2:	a55c                	fsd	fa5,136(a0)
    80093af4:	2e12                	fld	ft8,256(sp)
    80093af6:	75f8                	ld	a4,232(a1)
    80093af8:	dd704b0b          	.insn	4, 0xdd704b0b
    80093afc:	3d41                	addiw	s10,s10,-16 # ffffffff99b1862e <_end+0xffffffff19a7fbca>
    80093afe:	1568                	addi	a0,sp,684
    80093b00:	4a49                	li	s4,18
    80093b02:	7ea981e3          	beq	s3,a0,80094ae4 <begin_signature+0x3ae4>
    80093b06:	1be27c4f          	fnmadd.d	fs8,ft4,ft10,ft3
    80093b0a:	7a37628f          	.insn	4, 0x7a37628f
    80093b0e:	4904                	lw	s1,16(a0)
    80093b10:	a94a                	fsd	fs2,144(sp)
    80093b12:	9d82                	jalr	s11
    80093b14:	cb9f 7d6b e857      	.insn	6, 0xe8577d6bcb9f
    80093b1a:	4ce4f36f          	jal	t1,800e2fe8 <_end+0x4a584>
    80093b1e:	0f71                	addi	t5,t5,28
    80093b20:	87a5                	srai	a5,a5,0x9
    80093b22:	ccba                	sw	a4,88(sp)
    80093b24:	a7f4                	fsd	fa3,200(a5)
    80093b26:	1b79                	addi	s6,s6,-2
    80093b28:	9d9c                	.insn	2, 0x9d9c
    80093b2a:	9d5d                	.insn	2, 0x9d5d
    80093b2c:	c921                	beqz	a0,80093b7c <begin_signature+0x2b7c>
    80093b2e:	4e8a                	lw	t4,128(sp)
    80093b30:	1611                	addi	a2,a2,-28 # ffffffffffff2fe4 <_end+0xffffffff7ff5a580>
    80093b32:	d125                	beqz	a0,80093a92 <begin_signature+0x2a92>
    80093b34:	ad89                	j	80094186 <begin_signature+0x3186>
    80093b36:	5590                	lw	a2,40(a1)
    80093b38:	4ff6                	lw	t6,92(sp)
    80093b3a:	b5b8428b          	.insn	4, 0xb5b8428b
    80093b3e:	627d                	lui	tp,0x1f
    80093b40:	aefa                	fsd	ft10,344(sp)
    80093b42:	ed24                	sd	s1,88(a0)
    80093b44:	5c77f17b          	.insn	4, 0x5c77f17b
    80093b48:	18f6                	slli	a7,a7,0x3d
    80093b4a:	541f f713 65a9      	.insn	6, 0x65a9f713541f
    80093b50:	0935                	addi	s2,s2,13
    80093b52:	6e654183          	lbu	gp,1766(a0) # fffffffffffed6e6 <_end+0xffffffff7ff54c82>
    80093b56:	378e                	fld	fa5,224(sp)
    80093b58:	be82                	fsd	ft0,376(sp)
    80093b5a:	eead                	bnez	a3,80093bd4 <begin_signature+0x2bd4>
    80093b5c:	79c415a7          	.insn	4, 0x79c415a7
    80093b60:	9361                	srli	a4,a4,0x38
    80093b62:	41e2                	lw	gp,24(sp)
    80093b64:	c1ae                	sw	a1,192(sp)
    80093b66:	1cc5                	addi	s9,s9,-15
    80093b68:	fb90                	sd	a2,48(a5)
    80093b6a:	24ea                	fld	fs1,152(sp)
    80093b6c:	2238                	fld	fa4,64(a2)
    80093b6e:	973e346f          	jal	s0,800774e0 <label+0x72eaa>
    80093b72:	518e                	lw	gp,224(sp)
    80093b74:	37253f23          	sd	s2,894(a0)
    80093b78:	f785                	bnez	a5,80093aa0 <begin_signature+0x2aa0>
    80093b7a:	ebf4                	sd	a3,208(a5)
    80093b7c:	fc30                	sd	a2,120(s0)
    80093b7e:	4909                	li	s2,2
    80093b80:	1bd75207          	.insn	4, 0x1bd75207
    80093b84:	a161                	j	8009400c <begin_signature+0x300c>
    80093b86:	0db8                	addi	a4,sp,728
    80093b88:	3f96af4b          	.insn	4, 0x3f96af4b
    80093b8c:	5cead167          	.insn	4, 0x5cead167
    80093b90:	6705                	lui	a4,0x1
    80093b92:	573d                	li	a4,-17
    80093b94:	455d                	li	a0,23
    80093b96:	5e35                	li	t3,-19
    80093b98:	17f6                	slli	a5,a5,0x3d
    80093b9a:	b5c0                	fsd	fs0,168(a1)
    80093b9c:	6dd8                	ld	a4,152(a1)
    80093b9e:	6a90                	ld	a2,16(a3)
    80093ba0:	5f7e                	lw	t5,252(sp)
    80093ba2:	17e95143          	.insn	4, 0x17e95143
    80093ba6:	0b7334af          	amoswap.d.rl	s1,s7,(t1)
    80093baa:	a3ff 351d 074c eb03 	.insn	14, 0x50fa103c841deb03074c351da3ff
    80093bb2:	841d 103c 50fa 
    80093bb8:	a158                	fsd	fa4,128(a0)
    80093bba:	d7fd                	beqz	a5,80093ba8 <begin_signature+0x2ba8>
    80093bbc:	5e22                	lw	t3,40(sp)
    80093bbe:	59d5                	li	s3,-11
    80093bc0:	1d8e                	slli	s11,s11,0x23
    80093bc2:	1b18                	addi	a4,sp,432
    80093bc4:	23f8                	fld	fa4,192(a5)
    80093bc6:	1b5a                	slli	s6,s6,0x36
    80093bc8:	bd3e02bf 5f13c76d 	.insn	8, 0x5f13c76dbd3e02bf
    80093bd0:	de39                	beqz	a2,80093b2e <begin_signature+0x2b2e>
    80093bd2:	3d42                	fld	fs10,48(sp)
    80093bd4:	3871                	addiw	a6,a6,-4 # affc <_tbss_end+0xaffc>
    80093bd6:	2031                	.insn	2, 0x2031
    80093bd8:	35a6                	fld	fa1,104(sp)
    80093bda:	ced1                	beqz	a3,80093c76 <begin_signature+0x2c76>
    80093bdc:	f85e                	sd	s7,48(sp)
    80093bde:	2cf9                	addiw	s9,s9,30
    80093be0:	ba9a                	fsd	ft6,368(sp)
    80093be2:	5cb1                	li	s9,-20
    80093be4:	0998                	addi	a4,sp,208
    80093be6:	5c7c                	lw	a5,124(s0)
    80093be8:	ae16                	fsd	ft5,280(sp)
    80093bea:	56d6                	lw	a3,116(sp)
    80093bec:	3226                	fld	ft4,104(sp)
    80093bee:	4232                	lw	tp,12(sp)
    80093bf0:	78f1                	lui	a7,0xffffc
    80093bf2:	c3c5                	beqz	a5,80093c92 <begin_signature+0x2c92>
    80093bf4:	c629                	beqz	a2,80093c3e <begin_signature+0x2c3e>
    80093bf6:	3bb2                	fld	fs7,296(sp)
    80093bf8:	8054                	.insn	2, 0x8054
    80093bfa:	4f2a                	lw	t5,136(sp)
    80093bfc:	53f9                	li	t2,-2
    80093bfe:	457f 72b8 4b6f 6a39 	.insn	18, 0x511ea355d03488a3314d6a394b6f72b8457f
    80093c06:	314d 88a3 d034 a355 
    80093c0e:	511e 
    80093c10:	73c7ba5b          	.insn	4, 0x73c7ba5b
    80093c14:	1486                	slli	s1,s1,0x21
    80093c16:	c498238f          	.insn	4, 0xc498238f
    80093c1a:	fdb352e3          	bge	t1,s11,80093bde <begin_signature+0x2bde>
    80093c1e:	0664                	addi	s1,sp,780
    80093c20:	cfd0                	sw	a2,28(a5)
    80093c22:	df3ba547          	.insn	4, 0xdf3ba547
    80093c26:	6fc6                	ld	t6,80(sp)
    80093c28:	161d                	addi	a2,a2,-25
    80093c2a:	f070                	sd	a2,224(s0)
    80093c2c:	4ef1                	li	t4,28
    80093c2e:	61cc                	ld	a1,128(a1)
    80093c30:	503a                	.insn	2, 0x503a
    80093c32:	093c                	addi	a5,sp,152
    80093c34:	13c2adab          	.insn	4, 0x13c2adab
    80093c38:	77a732e7          	.insn	4, 0x77a732e7
    80093c3c:	7934                	ld	a3,112(a0)
    80093c3e:	093e                	slli	s2,s2,0xf
    80093c40:	13c1                	addi	t2,t2,-16 # dff0 <_tbss_end+0xdff0>
    80093c42:	cd31                	beqz	a0,80093c9e <begin_signature+0x2c9e>
    80093c44:	4f35f0fb          	.insn	4, 0x4f35f0fb
    80093c48:	9bc317cb          	fnmsub.d	fa5,ft6,ft8,fs3,rtz
    80093c4c:	3dfa                	fld	fs11,440(sp)
    80093c4e:	3ab1                	addiw	s5,s5,-20 # fffffffffffeafec <_end+0xffffffff7ff52588>
    80093c50:	2552                	fld	fa0,272(sp)
    80093c52:	642d                	lui	s0,0xb
    80093c54:	433950bb          	.insn	4, 0x433950bb
    80093c58:	2afc                	fld	fa5,208(a3)
    80093c5a:	9421                	srai	s0,s0,0x28
    80093c5c:	68c19e63          	bne	gp,a2,800942f8 <begin_signature+0x32f8>
    80093c60:	e649                	bnez	a2,80093cea <begin_signature+0x2cea>
    80093c62:	16fa                	slli	a3,a3,0x3e
    80093c64:	3a4143c3          	fmadd.d	ft7,ft2,ft4,ft7,rmm
    80093c68:	5322                	lw	t1,40(sp)
    80093c6a:	41cd                	li	gp,19
    80093c6c:	e5aa                	sd	a0,200(sp)
    80093c6e:	4f15                	li	t5,5
    80093c70:	0efc7a53          	.insn	4, 0x0efc7a53
    80093c74:	3d5f 5723 321f      	.insn	6, 0x321f57233d5f
    80093c7a:	321c                	fld	fa5,32(a2)
    80093c7c:	bbd5                	j	80093a70 <begin_signature+0x2a70>
    80093c7e:	1124                	addi	s1,sp,168
    80093c80:	0455                	addi	s0,s0,21 # b015 <_tbss_end+0xb015>
    80093c82:	9564                	.insn	2, 0x9564
    80093c84:	ce72                	sw	t3,28(sp)
    80093c86:	231e                	fld	ft6,448(sp)
    80093c88:	9715                	srai	a4,a4,0x25
    80093c8a:	a62c                	fsd	fa1,72(a2)
    80093c8c:	06ecd75b          	.insn	4, 0x06ecd75b
    80093c90:	0b72                	slli	s6,s6,0x1c
    80093c92:	c7ea                	sw	s10,204(sp)
    80093c94:	f972                	sd	t3,176(sp)
    80093c96:	d5660d43          	.insn	4, 0xd5660d43
    80093c9a:	2609                	addiw	a2,a2,2
    80093c9c:	7dcd                	lui	s11,0xffff3
    80093c9e:	67e9                	lui	a5,0x1a
    80093ca0:	8e2d                	xor	a2,a2,a1
    80093ca2:	614c                	ld	a1,128(a0)
    80093ca4:	577e                	lw	a4,252(sp)
    80093ca6:	3aa0                	fld	fs0,112(a3)
    80093ca8:	b2a6                	fsd	fs1,352(sp)
    80093caa:	1f6d                	addi	t5,t5,-5
    80093cac:	8971                	andi	a0,a0,28
    80093cae:	4834                	lw	a3,80(s0)
    80093cb0:	9de4                	.insn	2, 0x9de4
    80093cb2:	ce9c                	sw	a5,24(a3)
    80093cb4:	85a8                	.insn	2, 0x85a8
    80093cb6:	289a                	fld	fa7,384(sp)
    80093cb8:	6b2c                	ld	a1,80(a4)
    80093cba:	0db9                	addi	s11,s11,14 # ffffffffffff300e <_end+0xffffffff7ff5a5aa>
    80093cbc:	e878                	sd	a4,208(s0)
    80093cbe:	71c02d87          	flw	fs11,1820(zero) # 71c <_tbss_end+0x71c>
    80093cc2:	1901                	addi	s2,s2,-32
    80093cc4:	2a92fd73          	csrrci	s10,0x2a9,5
    80093cc8:	07e5                	addi	a5,a5,25 # 1a019 <_tbss_end+0x1a019>
    80093cca:	f9bd                	bnez	a1,80093c40 <begin_signature+0x2c40>
    80093ccc:	4700                	lw	s0,8(a4)
    80093cce:	6010                	ld	a2,0(s0)
    80093cd0:	76c8                	ld	a0,168(a3)
    80093cd2:	4da6                	lw	s11,72(sp)
    80093cd4:	6245b58f          	.insn	4, 0x6245b58f
    80093cd8:	5dce                	lw	s11,240(sp)
    80093cda:	28b4                	fld	fa3,80(s1)
    80093cdc:	7d7d                	lui	s10,0xfffff
    80093cde:	6462                	ld	s0,24(sp)
    80093ce0:	9030                	.insn	2, 0x9030
    80093ce2:	99b354bf fa6b3dc5 	.insn	8, 0xfa6b3dc599b354bf
    80093cea:	8abc                	.insn	2, 0x8abc
    80093cec:	e6ca                	sd	s2,328(sp)
    80093cee:	33f5                	addiw	t2,t2,-3
    80093cf0:	1c05                	addi	s8,s8,-31
    80093cf2:	05f9b333          	.insn	4, 0x05f9b333
    80093cf6:	366e                	fld	fa2,248(sp)
    80093cf8:	7428                	ld	a0,104(s0)
    80093cfa:	f94d                	bnez	a0,80093cac <begin_signature+0x2cac>
    80093cfc:	357a                	fld	fa0,440(sp)
    80093cfe:	aa5658f7          	.insn	4, 0xaa5658f7
    80093d02:	b0bc                	fsd	fa5,96(s1)
    80093d04:	fc2e                	sd	a1,56(sp)
    80093d06:	b3d208db          	.insn	4, 0xb3d208db
    80093d0a:	3216                	fld	ft4,352(sp)
    80093d0c:	8381                	c.srli64	a5
    80093d0e:	7a2a                	ld	s4,168(sp)
    80093d10:	f4fa                	sd	t5,104(sp)
    80093d12:	08c5                	addi	a7,a7,17 # ffffffffffffc011 <_end+0xffffffff7ff635ad>
    80093d14:	ad88                	fsd	fa0,24(a1)
    80093d16:	3815                	addiw	a6,a6,-27
    80093d18:	0dd33023          	sd	t4,192(t1)
    80093d1c:	4b72e437          	lui	s0,0x4b72e
    80093d20:	6c14                	ld	a3,24(s0)
    80093d22:	b2b2                	fsd	fa2,352(sp)
    80093d24:	947e                	add	s0,s0,t6
    80093d26:	5d5c                	lw	a5,60(a0)
    80093d28:	dfe2                	sw	s8,252(sp)
    80093d2a:	3182                	fld	ft3,32(sp)
    80093d2c:	3737f02f          	.insn	4, 0x3737f02f
    80093d30:	6e89                	lui	t4,0x2
    80093d32:	86fc                	.insn	2, 0x86fc
    80093d34:	15a1                	addi	a1,a1,-24
    80093d36:	2080                	fld	fs0,0(s1)
    80093d38:	528c                	lw	a1,32(a3)
    80093d3a:	42a1ba07          	fld	fs4,1066(gp)
    80093d3e:	0038                	addi	a4,sp,8
    80093d40:	3c3a                	fld	fs8,424(sp)
    80093d42:	d1c37f6b          	.insn	4, 0xd1c37f6b
    80093d46:	58aa                	lw	a7,168(sp)
    80093d48:	a854                	fsd	fa3,144(s0)
    80093d4a:	4046                	.insn	2, 0x4046
    80093d4c:	f43a                	sd	a4,40(sp)
    80093d4e:	5ba8                	lw	a0,112(a5)
    80093d50:	8590                	.insn	2, 0x8590
    80093d52:	fc0d                	bnez	s0,80093c8c <begin_signature+0x2c8c>
    80093d54:	f859                	bnez	s0,80093cea <begin_signature+0x2cea>
    80093d56:	9afb263b          	.insn	4, 0x9afb263b
    80093d5a:	7f2e                	ld	t5,232(sp)
    80093d5c:	fb15                	bnez	a4,80093c90 <begin_signature+0x2c90>
    80093d5e:	c76a40b3          	.insn	4, 0xc76a40b3
    80093d62:	28ae                	fld	fa7,200(sp)
    80093d64:	c7c8                	sw	a0,12(a5)
    80093d66:	0546                	slli	a0,a0,0x11
    80093d68:	dde1                	beqz	a1,80093d40 <begin_signature+0x2d40>
    80093d6a:	7317cfeb          	.insn	4, 0x7317cfeb
    80093d6e:	3d9c640b          	.insn	4, 0x3d9c640b
    80093d72:	0b96                	slli	s7,s7,0x5
    80093d74:	81ec                	.insn	2, 0x81ec
    80093d76:	5309                	li	t1,-30
    80093d78:	ced4                	sw	a3,28(a3)
    80093d7a:	260be087          	.insn	4, 0x260be087
    80093d7e:	6066                	.insn	2, 0x6066
    80093d80:	777d                	lui	a4,0xfffff
    80093d82:	8e718e4b          	.insn	4, 0x8e718e4b
    80093d86:	063e                	slli	a2,a2,0xf
    80093d88:	aeb6                	fsd	fa3,344(sp)
    80093d8a:	c52a                	sw	a0,136(sp)
    80093d8c:	1b16                	slli	s6,s6,0x25
    80093d8e:	0f2d                	addi	t5,t5,11
    80093d90:	5928                	lw	a0,112(a0)
    80093d92:	359d                	addiw	a1,a1,-25
    80093d94:	618ec437          	lui	s0,0x618ec
    80093d98:	21d353f7          	.insn	4, 0x21d353f7
    80093d9c:	97c0                	.insn	2, 0x97c0
    80093d9e:	33226ba3          	.insn	4, 0x33226ba3
    80093da2:	a40c                	fsd	fa1,8(s0)
    80093da4:	b94d                	j	80093a56 <begin_signature+0x2a56>
    80093da6:	16fd                	addi	a3,a3,-1
    80093da8:	f1fe                	sd	t6,224(sp)
    80093daa:	463d                	li	a2,15
    80093dac:	11fc                	addi	a5,sp,236
    80093dae:	4d24570b          	.insn	4, 0x4d24570b
    80093db2:	e836                	sd	a3,16(sp)
    80093db4:	b0e8                	fsd	fa0,224(s1)
    80093db6:	91de2153          	.insn	4, 0x91de2153
    80093dba:	4cb57723          	.insn	4, 0x4cb57723
    80093dbe:	b04b6caf          	.insn	4, 0xb04b6caf
    80093dc2:	0926                	slli	s2,s2,0x9
    80093dc4:	fded                	bnez	a1,80093dbe <begin_signature+0x2dbe>
    80093dc6:	02e2                	slli	t0,t0,0x18
    80093dc8:	7eee                	ld	t4,248(sp)
    80093dca:	a408                	fsd	fa0,8(s0)
    80093dcc:	fc5c                	sd	a5,184(s0)
    80093dce:	48c5                	li	a7,17
    80093dd0:	35792ed3          	.insn	4, 0x35792ed3
    80093dd4:	c1a0                	sw	s0,64(a1)
    80093dd6:	d11450c3          	fmadd.s	ft1,fs0,fa7,fs10,unknown
    80093dda:	9076                	c.add	zero,t4
    80093ddc:	0ba2                	slli	s7,s7,0x8
    80093dde:	17d1                	addi	a5,a5,-12
    80093de0:	45dd                	li	a1,23
    80093de2:	76c6                	ld	a3,112(sp)
    80093de4:	18cdafbb          	.insn	4, 0x18cdafbb
    80093de8:	51fa5b97          	auipc	s7,0x51fa5
    80093dec:	62adbbbf a7f97538 	.insn	8, 0xa7f9753862adbbbf
    80093df4:	5e42818b          	.insn	4, 0x5e42818b
    80093df8:	dce2                	sw	s8,120(sp)
    80093dfa:	b6e4                	fsd	fs1,232(a3)
    80093dfc:	d8ed                	beqz	s1,80093dee <begin_signature+0x2dee>
    80093dfe:	0b12                	slli	s6,s6,0x4
    80093e00:	00ac                	addi	a1,sp,72
    80093e02:	d7f9b6db          	.insn	4, 0xd7f9b6db
    80093e06:	fa164393          	xori	t2,a2,-95
    80093e0a:	3ae8                	fld	fa0,240(a3)
    80093e0c:	6f775db3          	.insn	4, 0x6f775db3
    80093e10:	cc8b09ef          	jal	s3,800442d8 <label+0x3fca2>
    80093e14:	a72c                	fsd	fa1,72(a4)
    80093e16:	47af5837          	lui	a6,0x47af5
    80093e1a:	b948                	fsd	fa0,176(a0)
    80093e1c:	d19c                	sw	a5,32(a1)
    80093e1e:	00c6                	slli	ra,ra,0x11
    80093e20:	7e48                	ld	a0,184(a2)
    80093e22:	a9ec                	fsd	fa1,208(a1)
    80093e24:	be20                	fsd	fs0,120(a2)
    80093e26:	5dfd48f3          	.insn	4, 0x5dfd48f3
    80093e2a:	02c2                	slli	t0,t0,0x10
    80093e2c:	1dbd                	addi	s11,s11,-17
    80093e2e:	6662                	ld	a2,24(sp)
    80093e30:	f8ec                	sd	a1,240(s1)
    80093e32:	897f e809 7628 af06 	.insn	10, 0x0856af067628e809897f
    80093e3a:	0856 
    80093e3c:	b33a                	fsd	fa4,416(sp)
    80093e3e:	60da                	ld	ra,400(sp)
    80093e40:	0e7eb74f          	.insn	4, 0x0e7eb74f
    80093e44:	5dc5                	li	s11,-15
    80093e46:	21c9                	addiw	gp,gp,18
    80093e48:	be95be8f          	.insn	4, 0xbe95be8f
    80093e4c:	a329                	j	80094356 <begin_signature+0x3356>
    80093e4e:	6ec2                	ld	t4,16(sp)
    80093e50:	cedf 28d9 17eb      	.insn	6, 0x17eb28d9cedf
    80093e56:	5076                	.insn	2, 0x5076
    80093e58:	516a                	lw	sp,184(sp)
    80093e5a:	41a67dcf          	fnmadd.s	fs11,fa2,fs10,fs0
    80093e5e:	3a89                	addiw	s5,s5,-30
    80093e60:	2426                	fld	fs0,72(sp)
    80093e62:	72fa                	ld	t0,440(sp)
    80093e64:	91fe                	add	gp,gp,t6
    80093e66:	1270                	addi	a2,sp,300
    80093e68:	94d6                	add	s1,s1,s5
    80093e6a:	a3c1                	j	8009442a <begin_signature+0x342a>
    80093e6c:	b099                	j	800936b2 <begin_signature+0x26b2>
    80093e6e:	703c                	ld	a5,96(s0)
    80093e70:	8e4def97          	auipc	t6,0x8e4de
    80093e74:	0c66                	slli	s8,s8,0x19
    80093e76:	50a1                	li	ra,-24
    80093e78:	cfe6                	sw	s9,220(sp)
    80093e7a:	5135d37b          	.insn	4, 0x5135d37b
    80093e7e:	4b72                	lw	s6,28(sp)
    80093e80:	5408                	lw	a0,40(s0)
    80093e82:	e909                	bnez	a0,80093e94 <begin_signature+0x2e94>
    80093e84:	c822                	sw	s0,16(sp)
    80093e86:	6abd                	lui	s5,0xf
    80093e88:	17de                	slli	a5,a5,0x37
    80093e8a:	431c9673          	csrrw	a2,0x431,s9
    80093e8e:	2521                	addiw	a0,a0,8
    80093e90:	1c6d                	addi	s8,s8,-5
    80093e92:	f540                	sd	s0,168(a0)
    80093e94:	46f0                	lw	a2,76(a3)
    80093e96:	7e65                	lui	t3,0xffff9
    80093e98:	9f6a                	add	t5,t5,s10
    80093e9a:	6fc1                	lui	t6,0x10
    80093e9c:	d9e4                	sw	s1,116(a1)
    80093e9e:	cef64067          	.insn	4, 0xcef64067
    80093ea2:	b710                	fsd	fa2,40(a4)
    80093ea4:	6a94                	ld	a3,16(a3)
    80093ea6:	13e2                	slli	t2,t2,0x38
    80093ea8:	fc7e8e87          	.insn	4, 0xfc7e8e87
    80093eac:	774af33b          	.insn	4, 0x774af33b
    80093eb0:	d554                	sw	a3,44(a0)
    80093eb2:	caa5                	beqz	a3,80093f22 <begin_signature+0x2f22>
    80093eb4:	1b4e                	slli	s6,s6,0x33
    80093eb6:	4f7a                	lw	t5,156(sp)
    80093eb8:	c1926e67          	.insn	4, 0xc1926e67
    80093ebc:	b494                	fsd	fa3,40(s1)
    80093ebe:	13f2                	slli	t2,t2,0x3c
    80093ec0:	d3f5d4db          	.insn	4, 0xd3f5d4db
    80093ec4:	e439                	bnez	s0,80093f12 <begin_signature+0x2f12>
    80093ec6:	2754                	fld	fa3,136(a4)
    80093ec8:	26a0                	fld	fs0,72(a3)
    80093eca:	3e86                	fld	ft9,96(sp)
    80093ecc:	1aa6                	slli	s5,s5,0x29
    80093ece:	53f81df7          	.insn	4, 0x53f81df7
    80093ed2:	49f8                	lw	a4,84(a1)
    80093ed4:	0e29392f          	amoswap.d.aqrl	s2,sp,(s2)
    80093ed8:	4c96                	lw	s9,68(sp)
    80093eda:	4266                	lw	tp,88(sp)
    80093edc:	02fc                	addi	a5,sp,332
    80093ede:	107d                	c.nop	-1
    80093ee0:	befd                	j	80093ade <begin_signature+0x2ade>
    80093ee2:	5140                	lw	s0,36(a0)
    80093ee4:	2e90567b          	.insn	4, 0x2e90567b
    80093ee8:	61ea                	ld	gp,152(sp)
    80093eea:	1b84                	addi	s1,sp,496
    80093eec:	4c31                	li	s8,12
    80093eee:	591c                	lw	a5,48(a0)
    80093ef0:	654c                	ld	a1,136(a0)
    80093ef2:	fcc0                	sd	s0,184(s1)
    80093ef4:	3240fec7          	fmsub.d	ft9,ft1,ft4,ft6
    80093ef8:	38c0                	fld	fs0,176(s1)
    80093efa:	83817bd3          	.insn	4, 0x83817bd3
    80093efe:	5c56                	lw	s8,116(sp)
    80093f00:	4782                	lw	a5,0(sp)
    80093f02:	d93d                	beqz	a0,80093e78 <begin_signature+0x2e78>
    80093f04:	57527e7b          	.insn	4, 0x57527e7b
    80093f08:	a1e2                	fsd	fs8,192(sp)
    80093f0a:	8138                	.insn	2, 0x8138
    80093f0c:	eabd                	bnez	a3,80093f82 <begin_signature+0x2f82>
    80093f0e:	64d91503          	lh	a0,1613(s2)
    80093f12:	e771                	bnez	a4,80093fde <begin_signature+0x2fde>
    80093f14:	4474b083          	ld	ra,1095(s1) # b2c17f01 <_end+0x32b7f49d>
    80093f18:	a6a530ab          	.insn	4, 0xa6a530ab
    80093f1c:	0b1a                	slli	s6,s6,0x6
    80093f1e:	6142                	ld	sp,16(sp)
    80093f20:	8bf143f7          	.insn	4, 0x8bf143f7
    80093f24:	79a0                	ld	s0,112(a1)
    80093f26:	4c08                	lw	a0,24(s0)
    80093f28:	8488                	.insn	2, 0x8488
    80093f2a:	5511d037          	lui	zero,0x5511d
    80093f2e:	27e6                	fld	fa5,88(sp)
    80093f30:	f976d7e7          	.insn	4, 0xf976d7e7
    80093f34:	cf09                	beqz	a4,80093f4e <begin_signature+0x2f4e>
    80093f36:	500e                	.insn	2, 0x500e
    80093f38:	4d85                	li	s11,1
    80093f3a:	a590                	fsd	fa2,8(a1)
    80093f3c:	b6ce                	fsd	fs3,360(sp)
    80093f3e:	7e18                	ld	a4,56(a2)
    80093f40:	d6b4                	sw	a3,104(a3)
    80093f42:	3dd2                	fld	fs11,304(sp)
    80093f44:	3168                	fld	fa0,224(a0)
    80093f46:	76b9                	lui	a3,0xfffee
    80093f48:	7118                	ld	a4,32(a0)
    80093f4a:	8670                	.insn	2, 0x8670
    80093f4c:	26e05003          	lhu	zero,622(zero) # 26e <_tbss_end+0x26e>
    80093f50:	c65d                	beqz	a2,80093ffe <begin_signature+0x2ffe>
    80093f52:	51fe                	lw	gp,252(sp)
    80093f54:	4267db23          	.insn	4, 0x4267db23
    80093f58:	29c1                	addiw	s3,s3,16
    80093f5a:	ee46                	sd	a7,280(sp)
    80093f5c:	9e71                	.insn	2, 0x9e71
    80093f5e:	a66259bf f8509319 	.insn	8, 0xf8509319a66259bf
    80093f66:	0bfd                	addi	s7,s7,31 # d2038e07 <_end+0x51fa03a3>
    80093f68:	47b5                	li	a5,13
    80093f6a:	11f1                	addi	gp,gp,-4
    80093f6c:	62f38e87          	.insn	4, 0x62f38e87
    80093f70:	6750                	ld	a2,136(a4)
    80093f72:	6a9492b7          	lui	t0,0x6a949
    80093f76:	1d58                	addi	a4,sp,692
    80093f78:	a484                	fsd	fs1,8(s1)
    80093f7a:	e47a                	sd	t5,8(sp)
    80093f7c:	3982                	fld	fs3,32(sp)
    80093f7e:	25604047          	.insn	4, 0x25604047
    80093f82:	b9788883          	lb	a7,-1129(a7)
    80093f86:	7256                	ld	tp,368(sp)
    80093f88:	505f9157          	.insn	4, 0x505f9157
    80093f8c:	174f8b9b          	addiw	s7,t6,372 # 10174 <_tbss_end+0x10174>
    80093f90:	48ff 825f dfae 3947 	.insn	18, 0x85b5516b8bc7f43e9c373947dfae825f48ff
    80093f98:	9c37 f43e 8bc7 516b 
    80093fa0:	85b5 
    80093fa2:	837f7423          	.insn	4, 0x837f7423
    80093fa6:	0164                	addi	s1,sp,140
    80093fa8:	e444                	sd	s1,136(s0)
    80093faa:	31210277          	.insn	4, 0x31210277
    80093fae:	66f5                	lui	a3,0x1d
    80093fb0:	1808                	addi	a0,sp,48
    80093fb2:	4b8a5123          	.insn	4, 0x4b8a5123
    80093fb6:	00f5                	addi	ra,ra,29 # a01d <_tbss_end+0xa01d>
    80093fb8:	490c                	lw	a1,16(a0)
    80093fba:	b068                	fsd	fa0,224(s0)
    80093fbc:	e488                	sd	a0,8(s1)
    80093fbe:	e9033ab7          	lui	s5,0xe9033
    80093fc2:	9041                	srli	s0,s0,0x30
    80093fc4:	789d                	lui	a7,0xfffe7
    80093fc6:	243e                	fld	fs0,456(sp)
    80093fc8:	0515                	addi	a0,a0,5
    80093fca:	542c                	lw	a1,104(s0)
    80093fcc:	cf19                	beqz	a4,80093fea <begin_signature+0x2fea>
    80093fce:	1270                	addi	a2,sp,300
    80093fd0:	2baf9423          	sh	s10,680(t6)
    80093fd4:	909e                	add	ra,ra,t2
    80093fd6:	4b95                	li	s7,5
    80093fd8:	efba                	sd	a4,472(sp)
    80093fda:	312d                	addiw	sp,sp,-21 # 5b8d2feb <_tbss_end+0x5b8d2feb>
    80093fdc:	718fbfd7          	.insn	4, 0x718fbfd7
    80093fe0:	fb98                	sd	a4,48(a5)
    80093fe2:	76b9                	lui	a3,0xfffee
    80093fe4:	3655                	addiw	a2,a2,-11
    80093fe6:	4e74                	lw	a3,92(a2)
    80093fe8:	e009                	bnez	s0,80093fea <begin_signature+0x2fea>
    80093fea:	2dbd                	addiw	s11,s11,15
    80093fec:	3c64                	fld	fs1,248(s0)
    80093fee:	2f50                	fld	fa2,152(a4)
    80093ff0:	85b2                	mv	a1,a2
    80093ff2:	b6bd77e3          	bgeu	s10,a1,80093b60 <begin_signature+0x2b60>
    80093ff6:	4965                	li	s2,25
    80093ff8:	5f1e                	lw	t5,228(sp)
    80093ffa:	ff58                	sd	a4,184(a4)
    80093ffc:	3866                	fld	fa6,120(sp)
    80093ffe:	e125116f          	jal	sp,7ffe5610 <_tbss_end+0x7ffe5610>
    80094002:	eb32                	sd	a2,400(sp)
    80094004:	32c2                	fld	ft5,48(sp)
    80094006:	447a                	lw	s0,156(sp)
    80094008:	07e9                	addi	a5,a5,26
    8009400a:	f052                	sd	s4,32(sp)
    8009400c:	3fcd                	addiw	t6,t6,-13
    8009400e:	b2607fc7          	fmsub.d	ft11,ft0,ft6,fs6
    80094012:	37be                	fld	fa5,488(sp)
    80094014:	8621                	srai	a2,a2,0x8
    80094016:	0f59763b          	.insn	4, 0x0f59763b
    8009401a:	d8ee                	sw	s11,112(sp)
    8009401c:	025456cb          	fnmsub.d	fa3,fs0,ft5,ft0,unknown
    80094020:	5c05                	li	s8,-31
    80094022:	4b50e843          	fmadd.d	fa6,ft1,fs5,fs1,unknown
    80094026:	462c                	lw	a1,72(a2)
    80094028:	0929d3fb          	.insn	4, 0x0929d3fb
    8009402c:	7d4e                	ld	s10,240(sp)
    8009402e:	a83a59eb          	.insn	4, 0xa83a59eb
    80094032:	09a8ce93          	xori	t4,a7,154
    80094036:	4639                	li	a2,14
    80094038:	1a45                	addi	s4,s4,-15
    8009403a:	5ae1                	li	s5,-8
    8009403c:	979c                	.insn	2, 0x979c
    8009403e:	4df977e3          	bgeu	s2,t6,80094d0c <begin_signature+0x3d0c>
    80094042:	c355                	beqz	a4,800940e6 <begin_signature+0x30e6>
    80094044:	77a1                	lui	a5,0xfffe8
    80094046:	714d                	addi	sp,sp,-336
    80094048:	12b5                	addi	t0,t0,-19 # 6a948fed <_tbss_end+0x6a948fed>
    8009404a:	57ca                	lw	a5,176(sp)
    8009404c:	604818ff 1426f192 	.insn	12, 0x2cb212f31426f192604818ff
    80094054:	2cb212f3 
    80094058:	1a10                	addi	a2,sp,304
    8009405a:	faf4                	sd	a3,240(a3)
    8009405c:	5486                	lw	s1,96(sp)
    8009405e:	db203e57          	.insn	4, 0xdb203e57
    80094062:	0e29                	addi	t3,t3,10 # ffffffffffff900a <_end+0xffffffff7ff605a6>
    80094064:	165ccc5b          	.insn	4, 0x165ccc5b
    80094068:	e562                	sd	s8,136(sp)
    8009406a:	b7b8                	fsd	fa4,104(a5)
    8009406c:	e30a                	sd	sp,384(sp)
    8009406e:	3e56                	fld	ft8,368(sp)
    80094070:	f30c                	sd	a1,32(a4)
    80094072:	16a45f17          	auipc	t5,0x16a45
    80094076:	2676                	fld	fa2,344(sp)
    80094078:	da5dd083          	lhu	ra,-603(s11)
    8009407c:	0810                	addi	a2,sp,16
    8009407e:	2cad                	addiw	s9,s9,11
    80094080:	d272                	sw	t3,36(sp)
    80094082:	5092                	lw	ra,36(sp)
    80094084:	1d14                	addi	a3,sp,688
    80094086:	3431                	addiw	s0,s0,-20 # 618ebfec <_tbss_end+0x618ebfec>
    80094088:	5e5e                	lw	t3,244(sp)
    8009408a:	a6bc                	fsd	fa5,72(a3)
    8009408c:	560a                	lw	a2,160(sp)
    8009408e:	2d1d                	addiw	s10,s10,7 # fffffffffffff007 <_end+0xffffffff7ff665a3>
    80094090:	c9bd                	beqz	a1,80094106 <begin_signature+0x3106>
    80094092:	6b33e2a3          	.insn	4, 0x6b33e2a3
    80094096:	684c                	ld	a1,144(s0)
    80094098:	7db34e9b          	.insn	4, 0x7db34e9b
    8009409c:	8900                	.insn	2, 0x8900
    8009409e:	229f 6046 e321      	.insn	6, 0xe3216046229f
    800940a4:	c7c6                	sw	a7,204(sp)
    800940a6:	e677414f          	.insn	4, 0xe677414f
    800940aa:	f59154e3          	bge	sp,s9,80093ff2 <begin_signature+0x2ff2>
    800940ae:	21a4                	fld	fs1,64(a1)
    800940b0:	22fa                	fld	ft5,408(sp)
    800940b2:	b4cbf637          	lui	a2,0xb4cbf
    800940b6:	3edf f541 e435      	.insn	6, 0xe435f5413edf
    800940bc:	b529                	j	80093ec6 <begin_signature+0x2ec6>
    800940be:	4151                	li	sp,20
    800940c0:	38e033bb          	.insn	4, 0x38e033bb
    800940c4:	a778                	fsd	fa4,200(a4)
    800940c6:	566e                	lw	a2,248(sp)
    800940c8:	a711                	j	800947cc <begin_signature+0x37cc>
    800940ca:	d643ac97          	auipc	s9,0xd643a
    800940ce:	7202                	ld	tp,32(sp)
    800940d0:	04e5                	addi	s1,s1,25
    800940d2:	0540                	addi	s0,sp,644
    800940d4:	234e989b          	.insn	4, 0x234e989b
    800940d8:	2162                	fld	ft2,24(sp)
    800940da:	4f20                	lw	s0,88(a4)
    800940dc:	97c8                	.insn	2, 0x97c8
    800940de:	34f1                	addiw	s1,s1,-4
    800940e0:	7742                	ld	a4,48(sp)
    800940e2:	ee9e                	sd	t2,344(sp)
    800940e4:	cea6                	sw	s1,92(sp)
    800940e6:	3f2e                	fld	ft10,232(sp)
    800940e8:	112a                	slli	sp,sp,0x2a
    800940ea:	351e                	fld	fa0,480(sp)
    800940ec:	3df2                	fld	fs11,312(sp)
    800940ee:	63c8                	ld	a0,128(a5)
    800940f0:	7664                	ld	s1,232(a2)
    800940f2:	ecd4                	sd	a3,152(s1)
    800940f4:	410ae90f          	.insn	4, 0x410ae90f
    800940f8:	b390                	fsd	fa2,32(a5)
    800940fa:	4e65                	li	t3,25
    800940fc:	efa1                	bnez	a5,80094154 <begin_signature+0x3154>
    800940fe:	490c                	lw	a1,16(a0)
    80094100:	7cfa087b          	.insn	4, 0x7cfa087b
    80094104:	b780                	fsd	fs0,40(a5)
    80094106:	f19f54d3          	.insn	4, 0xf19f54d3
    8009410a:	ecad                	bnez	s1,80094184 <begin_signature+0x3184>
    8009410c:	9b45                	andi	a4,a4,-15
    8009410e:	1939                	addi	s2,s2,-18
    80094110:	4cc8                	lw	a0,28(s1)
    80094112:	1dca4257          	.insn	4, 0x1dca4257
    80094116:	2782                	fld	fa5,0(sp)
    80094118:	a95c                	fsd	fa5,144(a0)
    8009411a:	fe086e93          	ori	t4,a6,-32
    8009411e:	440a                	lw	s0,128(sp)
    80094120:	364a                	fld	fa2,176(sp)
    80094122:	0aa2                	slli	s5,s5,0x8
    80094124:	5ff41d7f b65a4dc6 	.insn	12, 0x47e346a2b65a4dc65ff41d7f
    8009412c:	47e346a2 
    80094130:	f1f9                	bnez	a1,800940f6 <begin_signature+0x30f6>
    80094132:	afb9                	j	80094890 <begin_signature+0x3890>
    80094134:	e2da                	sd	s6,320(sp)
    80094136:	48c6                	lw	a7,80(sp)
    80094138:	ac3a                	fsd	fa4,24(sp)
    8009413a:	970a                	add	a4,a4,sp
    8009413c:	e38d                	bnez	a5,8009415e <begin_signature+0x315e>
    8009413e:	43c6                	lw	t2,80(sp)
    80094140:	f729                	bnez	a4,8009408a <begin_signature+0x308a>
    80094142:	05aa                	slli	a1,a1,0xa
    80094144:	2ff5                	addiw	t6,t6,29
    80094146:	46f0                	lw	a2,76(a3)
    80094148:	7c90                	ld	a2,56(s1)
    8009414a:	4aed                	li	s5,27
    8009414c:	68ff 6e5b 26b0 b93a 	.insn	22, 0xde450dd7b1a3b2f444d20a1b3c59b93a26b06e5b68ff
    80094154:	3c59 0a1b 44d2 b2f4 
    8009415c:	b1a3 0dd7 de45 
    80094162:	ed62                	sd	s8,152(sp)
    80094164:	c0cc                	sw	a1,4(s1)
    80094166:	3974022f          	.insn	4, 0x3974022f
    8009416a:	03c2                	slli	t2,t2,0x10
    8009416c:	3dcd                	addiw	s11,s11,-13
    8009416e:	3d86                	fld	fs11,96(sp)
    80094170:	9411                	srai	s0,s0,0x24
    80094172:	642d7a23          	.insn	4, 0x642d7a23
    80094176:	550e0ea3          	sb	a6,1373(t3)
    8009417a:	b7ae                	fsd	fa1,488(sp)
    8009417c:	e2ad                	bnez	a3,800941de <begin_signature+0x31de>
    8009417e:	20e2                	fld	ft1,24(sp)
    80094180:	601f a137 6c58      	.insn	6, 0x6c58a137601f
    80094186:	0320                	addi	s0,sp,392
    80094188:	f376                	sd	t4,416(sp)
    8009418a:	e1e0                	sd	s0,192(a1)
    8009418c:	06b9                	addi	a3,a3,14 # fffffffffffee00e <_end+0xffffffff7ff555aa>
    8009418e:	3aaa                	fld	fs5,168(sp)
    80094190:	90a4                	.insn	2, 0x90a4
    80094192:	6b11                	lui	s6,0x4
    80094194:	2a7630d7          	.insn	4, 0x2a7630d7
    80094198:	39b5                	addiw	s3,s3,-19
    8009419a:	b4c98bcb          	.insn	4, 0xb4c98bcb
    8009419e:	db602ec7          	fmsub.d	ft9,ft0,fs6,fs11,rdn
    800941a2:	5c80                	lw	s0,56(s1)
    800941a4:	23ce6407          	.insn	4, 0x23ce6407
    800941a8:	173a8fdb          	.insn	4, 0x173a8fdb
    800941ac:	de71                	beqz	a2,80094188 <begin_signature+0x3188>
    800941ae:	3190                	fld	fa2,32(a1)
    800941b0:	2e24                	fld	fs1,88(a2)
    800941b2:	3bdd                	addiw	s7,s7,-9
    800941b4:	463a                	lw	a2,140(sp)
    800941b6:	4352                	lw	t1,20(sp)
    800941b8:	44ec                	lw	a1,76(s1)
    800941ba:	e951                	bnez	a0,8009424e <begin_signature+0x324e>
    800941bc:	2561                	addiw	a0,a0,24
    800941be:	54a9                	li	s1,-22
    800941c0:	c62316c7          	.insn	4, 0xc62316c7
    800941c4:	283f2693          	slti	a3,t5,643
    800941c8:	ad75                	j	80094884 <begin_signature+0x3884>
    800941ca:	4aa8                	lw	a0,80(a3)
    800941cc:	04d0e57b          	.insn	4, 0x04d0e57b
    800941d0:	71ee                	ld	gp,248(sp)
    800941d2:	be98                	fsd	fa4,56(a3)
    800941d4:	7ad3fccf          	fnmadd.d	fs9,ft7,fa3,fa5
    800941d8:	8b1e                	mv	s6,t2
    800941da:	8212                	mv	tp,tp
    800941dc:	15d56e33          	.insn	4, 0x15d56e33
    800941e0:	4a94                	lw	a3,16(a3)
    800941e2:	9205                	srli	a2,a2,0x21
    800941e4:	afc2                	fsd	fa6,472(sp)
    800941e6:	3579                	addiw	a0,a0,-2
    800941e8:	1765                	addi	a4,a4,-7 # ffffffffffffeff9 <_end+0xffffffff7ff66595>
    800941ea:	97ce                	add	a5,a5,s3
    800941ec:	9725                	srai	a4,a4,0x29
    800941ee:	39c0                	fld	fs0,176(a1)
    800941f0:	693d                	lui	s2,0xf
    800941f2:	54ce                	lw	s1,240(sp)
    800941f4:	76e380d7          	.insn	4, 0x76e380d7
    800941f8:	6ba4                	ld	s1,80(a5)
    800941fa:	8275                	srli	a2,a2,0x1d
    800941fc:	af09                	j	8009490e <begin_signature+0x390e>
    800941fe:	11e5                	addi	gp,gp,-7
    80094200:	1eb622eb          	.insn	4, 0x1eb622eb
    80094204:	d5fd                	beqz	a1,800941f2 <begin_signature+0x31f2>
    80094206:	045f 7cfe ce8b      	.insn	6, 0xce8b7cfe045f
    8009420c:	389c                	fld	fa5,48(s1)
    8009420e:	4e7c                	lw	a5,92(a2)
    80094210:	cdf4                	sw	a3,92(a1)
    80094212:	a002                	fsd	ft0,0(sp)
    80094214:	98aa                	add	a7,a7,a0
    80094216:	6b6e                	ld	s6,216(sp)
    80094218:	4b98                	lw	a4,16(a5)
    8009421a:	e84d                	bnez	s0,800942cc <begin_signature+0x32cc>
    8009421c:	8319                	srli	a4,a4,0x6
    8009421e:	4625                	li	a2,9
    80094220:	71ec                	ld	a1,224(a1)
    80094222:	4503ddf3          	csrrwi	s11,0x450,7
    80094226:	3716                	fld	fa4,352(sp)
    80094228:	0c8d                	addi	s9,s9,3 # 564ce0cd <_tbss_end+0x564ce0cd>
    8009422a:	7b550ad7          	.insn	4, 0x7b550ad7
    8009422e:	1362                	slli	t1,t1,0x38
    80094230:	16e1                	addi	a3,a3,-8
    80094232:	457c                	lw	a5,76(a0)
    80094234:	cb5a                	sw	s6,148(sp)
    80094236:	5525                	li	a0,-23
    80094238:	a5e6dafb          	.insn	4, 0xa5e6dafb
    8009423c:	eadc                	sd	a5,144(a3)
    8009423e:	169e3c5b          	.insn	4, 0x169e3c5b
    80094242:	4310e60b          	.insn	4, 0x4310e60b
    80094246:	9961238f          	.insn	4, 0x9961238f
    8009424a:	1bec9c8f          	.insn	4, 0x1bec9c8f
    8009424e:	0248                	addi	a0,sp,260
    80094250:	0729                	addi	a4,a4,10
    80094252:	4df4                	lw	a3,92(a1)
    80094254:	cc5a                	sw	s6,24(sp)
    80094256:	0395                	addi	t2,t2,5
    80094258:	0cc4                	addi	s1,sp,596
    8009425a:	fb7cd7cf          	fnmadd.d	fa5,fs9,fs7,ft11,unknown
    8009425e:	7ca4                	ld	s1,120(s1)
    80094260:	9645                	srai	a2,a2,0x31
    80094262:	831d                	srli	a4,a4,0x7
    80094264:	1544                	addi	s1,sp,676
    80094266:	5495                	li	s1,-27
    80094268:	8e08                	.insn	2, 0x8e08
    8009426a:	4754                	lw	a3,12(a4)
    8009426c:	2c6cd003          	lhu	zero,710(s9)
    80094270:	1d5f 0fb7 6b66      	.insn	6, 0x6b660fb71d5f
    80094276:	6cb1                	lui	s9,0xc
    80094278:	052e                	slli	a0,a0,0xb
    8009427a:	a94c                	fsd	fa1,144(a0)
    8009427c:	dca8                	sw	a0,120(s1)
    8009427e:	b68512f3          	csrrw	t0,0xb68,a0
    80094282:	992c                	.insn	2, 0x992c
    80094284:	28bef52b          	.insn	4, 0x28bef52b
    80094288:	de0d                	beqz	a2,800941c2 <begin_signature+0x31c2>
    8009428a:	d1f9                	beqz	a1,80094250 <begin_signature+0x3250>
    8009428c:	63ed                	lui	t2,0x1b
    8009428e:	4375                	li	t1,29
    80094290:	d811                	beqz	s0,800941a4 <begin_signature+0x31a4>
    80094292:	4bc51cab          	.insn	4, 0x4bc51cab
    80094296:	055c1b6f          	jal	s6,80155aea <_end+0xbd086>
    8009429a:	2c8a                	fld	fs9,128(sp)
    8009429c:	19d6                	slli	s3,s3,0x35
    8009429e:	6575                	lui	a0,0x1d
    800942a0:	08f4                	addi	a3,sp,92
    800942a2:	1352                	slli	t1,t1,0x34
    800942a4:	0e76                	slli	t3,t3,0x1d
    800942a6:	120a                	slli	tp,tp,0x22
    800942a8:	3818                	fld	fa4,48(s0)
    800942aa:	967c                	.insn	2, 0x967c
    800942ac:	ba98                	fsd	fa4,48(a3)
    800942ae:	3c20                	fld	fs0,120(s0)
    800942b0:	e7b9                	bnez	a5,800942fe <begin_signature+0x32fe>
    800942b2:	a05f 44ce 17ca      	.insn	6, 0x17ca44cea05f
    800942b8:	b811                	j	80093acc <begin_signature+0x2acc>
    800942ba:	1021                	c.nop	-24
    800942bc:	c7e9                	beqz	a5,80094386 <begin_signature+0x3386>
    800942be:	2e62                	fld	ft8,24(sp)
    800942c0:	1d8d                	addi	s11,s11,-29
    800942c2:	01f0                	addi	a2,sp,204
    800942c4:	28f8                	fld	fa4,208(s1)
    800942c6:	4496                	lw	s1,68(sp)
    800942c8:	0135ee4f          	fnmadd.s	ft8,fa1,fs3,ft0,unknown
    800942cc:	43826043          	fmadd.d	ft0,ft4,fs8,fs0,unknown
    800942d0:	13b1                	addi	t2,t2,-20 # 1afec <_tbss_end+0x1afec>
    800942d2:	bed4                	fsd	fa3,184(a3)
    800942d4:	e921                	bnez	a0,80094324 <begin_signature+0x3324>
    800942d6:	3edd                	addiw	t4,t4,-9 # 1ff7 <_tbss_end+0x1ff7>
    800942d8:	3f45                	addiw	t5,t5,-15 # ffffffff96ad9063 <_end+0xffffffff16a405ff>
    800942da:	7a54                	ld	a3,176(a2)
    800942dc:	4fda                	lw	t6,148(sp)
    800942de:	2395                	addiw	t2,t2,5
    800942e0:	1062                	c.slli	zero,0x38
    800942e2:	e3a3ece7          	.insn	4, 0xe3a3ece7
    800942e6:	9fbc2a8f          	.insn	4, 0x9fbc2a8f
    800942ea:	b104                	fsd	fs1,32(a0)
    800942ec:	5598                	lw	a4,40(a1)
    800942ee:	7b3e                	ld	s6,488(sp)
    800942f0:	80c8                	.insn	2, 0x80c8
    800942f2:	8d40                	.insn	2, 0x8d40
    800942f4:	6bf327eb          	.insn	4, 0x6bf327eb
    800942f8:	e4ed                	bnez	s1,800943e2 <begin_signature+0x33e2>
    800942fa:	0200                	addi	s0,sp,256
    800942fc:	4aad                	li	s5,11
    800942fe:	2684                	fld	fs1,8(a3)
    80094300:	fa6d                	bnez	a2,800942f2 <begin_signature+0x32f2>
    80094302:	072e                	slli	a4,a4,0xb
    80094304:	e752                	sd	s4,392(sp)
    80094306:	87bb5bdb          	.insn	4, 0x87bb5bdb
    8009430a:	b622                	fsd	fs0,296(sp)
    8009430c:	e5e0                	sd	s0,200(a1)
    8009430e:	3868                	fld	fa0,240(s0)
    80094310:	9c9bf7d7          	.insn	4, 0x9c9bf7d7
    80094314:	10efc9af          	.insn	4, 0x10efc9af
    80094318:	9060                	.insn	2, 0x9060
    8009431a:	1015236b          	.insn	4, 0x1015236b
    8009431e:	6036                	.insn	2, 0x6036
    80094320:	2445                	addiw	s0,s0,17
    80094322:	8de8                	.insn	2, 0x8de8
    80094324:	1c537c1b          	.insn	4, 0x1c537c1b
    80094328:	07fc                	addi	a5,sp,972
    8009432a:	926e                	add	tp,tp,s11
    8009432c:	1682                	slli	a3,a3,0x20
    8009432e:	6b5a                	ld	s6,400(sp)
    80094330:	a1e5                	j	80094818 <begin_signature+0x3818>
    80094332:	8d28                	.insn	2, 0x8d28
    80094334:	5d65                	li	s10,-7
    80094336:	2439                	addiw	s0,s0,14
    80094338:	723c                	ld	a5,96(a2)
    8009433a:	823c                	.insn	2, 0x823c
    8009433c:	bb1e                	fsd	ft7,432(sp)
    8009433e:	7506                	ld	a0,96(sp)
    80094340:	762a                	ld	a2,168(sp)
    80094342:	4aa27bab          	.insn	4, 0x4aa27bab
    80094346:	10cd                	addi	ra,ra,-13
    80094348:	0c89d33b          	.insn	4, 0x0c89d33b
    8009434c:	167d                	addi	a2,a2,-1 # ffffffffb4cbefff <_end+0xffffffff34c2659b>
    8009434e:	4d49                	li	s10,18
    80094350:	f318                	sd	a4,32(a4)
    80094352:	d9b6                	sw	a3,240(sp)
    80094354:	eece                	sd	s3,344(sp)
    80094356:	45a1                	li	a1,8
    80094358:	54d0                	lw	a2,44(s1)
    8009435a:	51a16bb7          	lui	s7,0x51a16
    8009435e:	7006                	.insn	2, 0x7006
    80094360:	1721                	addi	a4,a4,-24
    80094362:	3d5a                	fld	fs10,432(sp)
    80094364:	265dbf47          	.insn	4, 0x265dbf47
    80094368:	1c2d                	addi	s8,s8,-21
    8009436a:	560d                	li	a2,-29
    8009436c:	2092                	fld	ft1,256(sp)
    8009436e:	48da                	lw	a7,148(sp)
    80094370:	c24d                	beqz	a2,80094412 <begin_signature+0x3412>
    80094372:	7565                	lui	a0,0xffff9
    80094374:	b324                	fsd	fs1,96(a4)
    80094376:	ea0d197b          	.insn	4, 0xea0d197b
    8009437a:	d9a8                	sw	a0,112(a1)
    8009437c:	47931443          	.insn	4, 0x47931443
    80094380:	71fa                	ld	gp,440(sp)
    80094382:	887f 48e6 7f64 8ce8 	.insn	10, 0xd8168ce87f6448e6887f
    8009438a:	d816 
    8009438c:	33e8                	fld	fa0,224(a5)
    8009438e:	11bc                	addi	a5,sp,232
    80094390:	e90c1d57          	.insn	4, 0xe90c1d57
    80094394:	3490                	fld	fa2,40(s1)
    80094396:	7b6a                	ld	s6,184(sp)
    80094398:	34e8                	fld	fa0,232(s1)
    8009439a:	f169                	bnez	a0,8009435c <begin_signature+0x335c>
    8009439c:	1278                	addi	a4,sp,300
    8009439e:	4782                	lw	a5,0(sp)
    800943a0:	60483a27          	fsd	ft4,1556(a6) # 47af5614 <_tbss_end+0x47af5614>
    800943a4:	29d4                	fld	fa3,144(a1)
    800943a6:	0d95                	addi	s11,s11,5
    800943a8:	d94d23af          	.insn	4, 0xd94d23af
    800943ac:	9c28                	.insn	2, 0x9c28
    800943ae:	0639                	addi	a2,a2,14
    800943b0:	a042                	fsd	fa6,0(sp)
    800943b2:	3d169293          	.insn	4, 0x3d169293
    800943b6:	2765                	addiw	a4,a4,25
    800943b8:	9f3c                	.insn	2, 0x9f3c
    800943ba:	c59e                	sw	t2,200(sp)
    800943bc:	b30e                	fsd	ft3,416(sp)
    800943be:	4936                	lw	s2,76(sp)
    800943c0:	e699                	bnez	a3,800943ce <begin_signature+0x33ce>
    800943c2:	a67d                	j	80094770 <begin_signature+0x3770>
    800943c4:	8741                	srai	a4,a4,0x10
    800943c6:	c8467387          	.insn	4, 0xc8467387
    800943ca:	6fc1                	lui	t6,0x10
    800943cc:	0ae76ccf          	fnmadd.d	fs9,fa4,fa4,ft1,unknown
    800943d0:	be90                	fsd	fa2,56(a3)
    800943d2:	207e                	fld	ft0,472(sp)
    800943d4:	4df6363b          	.insn	4, 0x4df6363b
    800943d8:	fa65                	bnez	a2,800943c8 <begin_signature+0x33c8>
    800943da:	e32edecf          	fnmadd.d	ft9,ft9,fs2,ft8,unknown
    800943de:	08e4                	addi	s1,sp,92
    800943e0:	fcf0                	sd	a2,248(s1)
    800943e2:	6949                	lui	s2,0x12
    800943e4:	4d7fc35b          	.insn	4, 0x4d7fc35b
    800943e8:	61e8                	ld	a0,192(a1)
    800943ea:	50b0d997          	auipc	s3,0x50b0d
    800943ee:	864c6d8f          	.insn	4, 0x864c6d8f
    800943f2:	fe59                	bnez	a2,80094390 <begin_signature+0x3390>
    800943f4:	8a09                	andi	a2,a2,2
    800943f6:	5e61                	li	t3,-8
    800943f8:	5195dd17          	auipc	s10,0x5195d
    800943fc:	36c5                	addiw	a3,a3,-15
    800943fe:	6d71                	lui	s10,0x1c
    80094400:	d921                	beqz	a0,80094350 <begin_signature+0x3350>
    80094402:	d668653f d4da490d 	.insn	8, 0xd4da490dd668653f
    8009440a:	5ed6                	lw	t4,116(sp)
    8009440c:	713ddf63          	bge	s11,s3,80094b2a <begin_signature+0x3b2a>
    80094410:	96de                	add	a3,a3,s7
    80094412:	6544                	ld	s1,136(a0)
    80094414:	3116d5f7          	.insn	4, 0x3116d5f7
    80094418:	30ce                	fld	ft1,240(sp)
    8009441a:	3370                	fld	fa2,224(a4)
    8009441c:	0ddc693f 809971bf 	.insn	8, 0x809971bf0ddc693f
    80094424:	d394                	sw	a3,32(a5)
    80094426:	2846                	fld	fa6,80(sp)
    80094428:	4a45                	li	s4,17
    8009442a:	3ea1                	addiw	t4,t4,-24
    8009442c:	0a2d                	addi	s4,s4,11
    8009442e:	5ced                	li	s9,-5
    80094430:	8506                	mv	a0,ra
    80094432:	0e89a693          	slti	a3,s3,232
    80094436:	097665ab          	.insn	4, 0x097665ab
    8009443a:	41f6                	lw	gp,92(sp)
    8009443c:	8a2e                	mv	s4,a1
    8009443e:	2b4e                	fld	fs6,208(sp)
    80094440:	e6c6                	sd	a7,328(sp)
    80094442:	b108                	fsd	fa0,32(a0)
    80094444:	7079bddb          	.insn	4, 0x7079bddb
    80094448:	0f9f e5af 6340      	.insn	6, 0x6340e5af0f9f
    8009444e:	3cc2                	fld	fs9,48(sp)
    80094450:	2bef66d7          	.insn	4, 0x2bef66d7
    80094454:	9870                	.insn	2, 0x9870
    80094456:	76a2                	ld	a3,40(sp)
    80094458:	2aba                	fld	fs5,392(sp)
    8009445a:	4459                	li	s0,22
    8009445c:	6b95                	lui	s7,0x5
    8009445e:	2fd2                	fld	ft11,272(sp)
    80094460:	aad8                	fsd	fa4,144(a3)
    80094462:	5a0e                	lw	s4,224(sp)
    80094464:	6c37b947          	.insn	4, 0x6c37b947
    80094468:	f7169583          	lh	a1,-143(a3)
    8009446c:	913a                	add	sp,sp,a4
    8009446e:	7919                	lui	s2,0xfffe6
    80094470:	c40d                	beqz	s0,8009449a <begin_signature+0x349a>
    80094472:	1c6037db          	.insn	4, 0x1c6037db
    80094476:	79b9                	lui	s3,0xfffee
    80094478:	9658                	.insn	2, 0x9658
    8009447a:	1e58                	addi	a4,sp,820
    8009447c:	4ff9                	li	t6,30
    8009447e:	1421                	addi	s0,s0,-24
    80094480:	07fab123          	sd	t6,98(s5) # ffffffffe9033062 <_end+0xffffffff68f9a5fe>
    80094484:	52de                	lw	t0,244(sp)
    80094486:	5451                	li	s0,-12
    80094488:	27d9                	addiw	a5,a5,22 # fffffffffffe8016 <_end+0xffffffff7ff4f5b2>
    8009448a:	99d9b61b          	.insn	4, 0x99d9b61b
    8009448e:	4f8e1043          	.insn	4, 0x4f8e1043
    80094492:	dfc4c4fb          	.insn	4, 0xdfc4c4fb
    80094496:	7291                	lui	t0,0xfffe4
    80094498:	3b3ecabf 6c1b305b 	.insn	8, 0x6c1b305b3b3ecabf
    800944a0:	d1ba                	sw	a4,224(sp)
    800944a2:	0b7d                	addi	s6,s6,31 # 401f <_tbss_end+0x401f>
    800944a4:	2db45ba7          	.insn	4, 0x2db45ba7
    800944a8:	d342b443          	fmadd.d	fs0,ft5,fs4,fs10,rup
    800944ac:	1425486f          	jal	a6,800e85ee <_end+0x4fb8a>
    800944b0:	7964                	ld	s1,240(a0)
    800944b2:	618a                	ld	gp,128(sp)
    800944b4:	1e329a9b          	.insn	4, 0x1e329a9b
    800944b8:	aac0                	fsd	fs0,144(a3)
    800944ba:	ad08                	fsd	fa0,24(a0)
    800944bc:	da1f 472a 457b      	.insn	6, 0x457b472ada1f
    800944c2:	2732                	fld	fa4,264(sp)
    800944c4:	03771607          	.insn	4, 0x03771607
    800944c8:	8686                	mv	a3,ra
    800944ca:	0d16                	slli	s10,s10,0x5
    800944cc:	36097faf          	.insn	4, 0x36097faf
    800944d0:	b8fe                	fsd	ft11,112(sp)
    800944d2:	a162                	fsd	fs8,128(sp)
    800944d4:	31da6cc7          	fmsub.s	fs9,fs4,ft9,ft6,unknown
    800944d8:	8898                	.insn	2, 0x8898
    800944da:	46dbb927          	fsd	fa3,1138(s7) # 5472 <_tbss_end+0x5472>
    800944de:	1755                	addi	a4,a4,-11
    800944e0:	6bbb8a07          	.insn	4, 0x6bbb8a07
    800944e4:	af1f 68ca 24f3      	.insn	6, 0x24f368caaf1f
    800944ea:	bb7e                	fsd	ft11,432(sp)
    800944ec:	2c4d                	addiw	s8,s8,19
    800944ee:	1ab6                	slli	s5,s5,0x2d
    800944f0:	faf93a0f          	.insn	4, 0xfaf93a0f
    800944f4:	636bd157          	.insn	4, 0x636bd157
    800944f8:	a49a7b87          	.insn	4, 0xa49a7b87
    800944fc:	112734fb          	.insn	4, 0x112734fb
    80094500:	023b3357          	.insn	4, 0x023b3357
    80094504:	3aee                	fld	fs5,248(sp)
    80094506:	2978                	fld	fa4,208(a0)
    80094508:	e427f8cf          	.insn	4, 0xe427f8cf
    8009450c:	ddaa                	sw	a0,248(sp)
    8009450e:	55c4                	lw	s1,44(a1)
    80094510:	5c46                	lw	s8,112(sp)
    80094512:	2846a8e7          	.insn	4, 0x2846a8e7
    80094516:	025538f3          	csrrc	a7,0x25,a0
    8009451a:	c4cd                	beqz	s1,800945c4 <begin_signature+0x35c4>
    8009451c:	6b3ece6f          	jal	t3,801813ce <_end+0xe896a>
    80094520:	da26e30b          	.insn	4, 0xda26e30b
    80094524:	6fe1e7af          	.insn	4, 0x6fe1e7af
    80094528:	8742                	mv	a4,a6
    8009452a:	39be                	fld	fs3,488(sp)
    8009452c:	89fd                	andi	a1,a1,31
    8009452e:	979d2393          	slti	t2,s10,-1671
    80094532:	79ea                	ld	s3,184(sp)
    80094534:	1c22                	slli	s8,s8,0x28
    80094536:	6308                	ld	a0,0(a4)
    80094538:	83bd                	srli	a5,a5,0xf
    8009453a:	4569                	li	a0,26
    8009453c:	4651                	li	a2,20
    8009453e:	5fb8                	lw	a4,120(a5)
    80094540:	6076be5b          	.insn	4, 0x6076be5b
    80094544:	645d                	lui	s0,0x17
    80094546:	1a42                	slli	s4,s4,0x30
    80094548:	2cd8                	fld	fa4,152(s1)
    8009454a:	b005                	j	80093d6a <begin_signature+0x2d6a>
    8009454c:	38ad                	addiw	a7,a7,-21 # fffffffffffe6feb <_end+0xffffffff7ff4e587>
    8009454e:	167d                	addi	a2,a2,-1
    80094550:	a34a                	fsd	fs2,384(sp)
    80094552:	a704                	fsd	fs1,8(a4)
    80094554:	87dd                	srai	a5,a5,0x17
    80094556:	9b807607          	.insn	4, 0x9b807607
    8009455a:	fdf99023          	sh	t6,-64(s3) # fffffffffffedfc0 <_end+0xffffffff7ff5555c>
    8009455e:	368c                	fld	fa1,40(a3)
    80094560:	136c                	addi	a1,sp,428
    80094562:	9b5e                	add	s6,s6,s7
    80094564:	41fc                	lw	a5,68(a1)
    80094566:	2cfc                	fld	fa5,216(s1)
    80094568:	3adc                	fld	fa5,176(a3)
    8009456a:	dce2                	sw	s8,120(sp)
    8009456c:	cc09                	beqz	s0,80094586 <begin_signature+0x3586>
    8009456e:	07b2                	slli	a5,a5,0xc
    80094570:	ffb6                	sd	a3,504(sp)
    80094572:	616ac4a3          	.insn	4, 0x616ac4a3
    80094576:	977a47c3          	.insn	4, 0x977a47c3
    8009457a:	4ae2                	lw	s5,24(sp)
    8009457c:	d0a0                	sw	s0,96(s1)
    8009457e:	45e2                	lw	a1,24(sp)
    80094580:	8680                	.insn	2, 0x8680
    80094582:	274bffbf fa1441bc 	.insn	8, 0xfa1441bc274bffbf
    8009458a:	762a                	ld	a2,168(sp)
    8009458c:	1036                	c.slli	zero,0x2d
    8009458e:	6edd                	lui	t4,0x17
    80094590:	1ab5                	addi	s5,s5,-19
    80094592:	aac0                	fsd	fs0,144(a3)
    80094594:	9a58                	.insn	2, 0x9a58
    80094596:	52bd                	li	t0,-17
    80094598:	241a                	fld	fs0,384(sp)
    8009459a:	60cc                	ld	a1,128(s1)
    8009459c:	8779                	srai	a4,a4,0x1e
    8009459e:	62e1                	lui	t0,0x18
    800945a0:	fb65                	bnez	a4,80094590 <begin_signature+0x3590>
    800945a2:	4a36d0db          	.insn	4, 0x4a36d0db
    800945a6:	2bd2                	fld	fs7,272(sp)
    800945a8:	e558                	sd	a4,136(a0)
    800945aa:	b368                	fsd	fa0,224(a4)
    800945ac:	e2de                	sd	s7,320(sp)
    800945ae:	0c76                	slli	s8,s8,0x1d
    800945b0:	14177adb          	.insn	4, 0x14177adb
    800945b4:	bd04                	fsd	fs1,56(a0)
    800945b6:	2f7c                	fld	fa5,216(a4)
    800945b8:	d949                	beqz	a0,8009454a <begin_signature+0x354a>
    800945ba:	ccb5                	beqz	s1,80094636 <begin_signature+0x3636>
    800945bc:	176525d7          	.insn	4, 0x176525d7
    800945c0:	38e9                	addiw	a7,a7,-6
    800945c2:	31d8                	fld	fa4,160(a1)
    800945c4:	ddf8                	sw	a4,124(a1)
    800945c6:	078d                	addi	a5,a5,3
    800945c8:	d856                	sw	s5,48(sp)
    800945ca:	04dc618b          	.insn	4, 0x04dc618b
    800945ce:	a2bd12f3          	csrrw	t0,0xa2b,s10
    800945d2:	d966                	sw	s9,176(sp)
    800945d4:	02d9                	addi	t0,t0,22 # 18016 <_tbss_end+0x18016>
    800945d6:	5ffd7da3          	.insn	4, 0x5ffd7da3
    800945da:	cf10                	sw	a2,24(a4)
    800945dc:	131a                	slli	t1,t1,0x26
    800945de:	679a                	ld	a5,384(sp)
    800945e0:	9246                	add	tp,tp,a7
    800945e2:	e6fc                	sd	a5,200(a3)
    800945e4:	4600                	lw	s0,8(a2)
    800945e6:	1004                	addi	s1,sp,32
    800945e8:	a3a1                	j	80094b30 <begin_signature+0x3b30>
    800945ea:	cbe9                	beqz	a5,800946bc <begin_signature+0x36bc>
    800945ec:	3ae6                	fld	fs5,120(sp)
    800945ee:	4675                	li	a2,29
    800945f0:	2771                	addiw	a4,a4,28
    800945f2:	0aba                	slli	s5,s5,0xe
    800945f4:	7d9c                	ld	a5,56(a1)
    800945f6:	2378                	fld	fa4,192(a4)
    800945f8:	5a48                	lw	a0,52(a2)
    800945fa:	0874                	addi	a3,sp,28
    800945fc:	7148                	ld	a0,160(a0)
    800945fe:	56c2                	lw	a3,48(sp)
    80094600:	10ec                	addi	a1,sp,108
    80094602:	408c                	lw	a1,0(s1)
    80094604:	24bd656f          	jal	a0,8016b04e <_end+0xd25ea>
    80094608:	a8b1                	j	80094664 <begin_signature+0x3664>
    8009460a:	7504                	ld	s1,40(a0)
    8009460c:	756e                	ld	a0,248(sp)
    8009460e:	329d                	addiw	t0,t0,-25
    80094610:	de01                	beqz	a2,80094528 <begin_signature+0x3528>
    80094612:	3bb0                	fld	fa2,112(a5)
    80094614:	192a752f          	.insn	4, 0x192a752f
    80094618:	66a2                	ld	a3,8(sp)
    8009461a:	ef1c                	sd	a5,24(a4)
    8009461c:	b59c                	fsd	fa5,40(a1)
    8009461e:	1c1e                	slli	s8,s8,0x27
    80094620:	957c                	.insn	2, 0x957c
    80094622:	29260a0b          	.insn	4, 0x29260a0b
    80094626:	6df1072f          	.insn	4, 0x6df1072f
    8009462a:	4064                	lw	s1,68(s0)
    8009462c:	782b5aff c5b55a3f 	.insn	20, 0x200857ecc542ccfc1c6c82bfc5b55a3f782b5aff
    80094634:	1c6c82bf c542ccfc 
    8009463c:	200857ec 
    80094640:	d709                	beqz	a4,8009454a <begin_signature+0x354a>
    80094642:	a50ab587          	fld	fa1,-1456(s5)
    80094646:	6a0a                	ld	s4,128(sp)
    80094648:	9316                	add	t1,t1,t0
    8009464a:	323d                	addiw	tp,tp,-17 # 1efef <_tbss_end+0x1efef>
    8009464c:	0b0d                	addi	s6,s6,3
    8009464e:	599d                	li	s3,-25
    80094650:	533d                	li	t1,-17
    80094652:	1326                	slli	t1,t1,0x29
    80094654:	6239                	lui	tp,0xe
    80094656:	6d0a                	ld	s10,128(sp)
    80094658:	4166                	lw	sp,88(sp)
    8009465a:	4988                	lw	a0,16(a1)
    8009465c:	4ffd                	li	t6,31
    8009465e:	4178                	lw	a4,68(a0)
    80094660:	d618                	sw	a4,40(a2)
    80094662:	afb5                	j	80094dde <begin_signature+0x3dde>
    80094664:	61b4788f          	.insn	4, 0x61b4788f
    80094668:	0ad0                	addi	a2,sp,340
    8009466a:	41f9                	li	gp,30
    8009466c:	f28a                	sd	sp,352(sp)
    8009466e:	3ef71807          	.insn	4, 0x3ef71807
    80094672:	6102                	ld	sp,0(sp)
    80094674:	f7bc                	sd	a5,104(a5)
    80094676:	310d                	addiw	sp,sp,-29
    80094678:	6d16ed33          	.insn	4, 0x6d16ed33
    8009467c:	a269                	j	80094806 <begin_signature+0x3806>
    8009467e:	0fe4                	addi	s1,sp,988
    80094680:	5574                	lw	a3,108(a0)
    80094682:	56dc                	lw	a5,44(a3)
    80094684:	0e3c                	addi	a5,sp,792
    80094686:	3a95                	addiw	s5,s5,-27
    80094688:	095d                	addi	s2,s2,23 # fffffffffffe6017 <_end+0xffffffff7ff4d5b3>
    8009468a:	4622                	lw	a2,8(sp)
    8009468c:	d976                	sw	t4,176(sp)
    8009468e:	7bdd6c67          	.insn	4, 0x7bdd6c67
    80094692:	e3e5                	bnez	a5,80094772 <begin_signature+0x3772>
    80094694:	c30c                	sw	a1,0(a4)
    80094696:	2ca5                	addiw	s9,s9,9 # c009 <_tbss_end+0xc009>
    80094698:	566d                	li	a2,-5
    8009469a:	1e5e                	slli	t3,t3,0x37
    8009469c:	71f0                	ld	a2,224(a1)
    8009469e:	2ca0                	fld	fs0,88(s1)
    800946a0:	e00c                	sd	a1,0(s0)
    800946a2:	e395                	bnez	a5,800946c6 <begin_signature+0x36c6>
    800946a4:	e800                	sd	s0,16(s0)
    800946a6:	2722                	fld	fa4,8(sp)
    800946a8:	4dcd                	li	s11,19
    800946aa:	e82e5713          	.insn	4, 0xe82e5713
    800946ae:	00a5                	addi	ra,ra,9
    800946b0:	7122                	ld	sp,40(sp)
    800946b2:	0d92                	slli	s11,s11,0x4
    800946b4:	fcbe                	sd	a5,120(sp)
    800946b6:	15d9                	addi	a1,a1,-10
    800946b8:	86c61f13          	.insn	4, 0x86c61f13
    800946bc:	ac7f 3c8d 1e44 bf7a 	.insn	14, 0x5a0f69035703bf7a1e443c8dac7f
    800946c4:	5703 6903 5a0f 
    800946ca:	29f2                	fld	fs3,280(sp)
    800946cc:	237c8a6b          	.insn	4, 0x237c8a6b
    800946d0:	18d0                	addi	a2,sp,116
    800946d2:	a344                	fsd	fs1,128(a4)
    800946d4:	4b2e                	lw	s6,200(sp)
    800946d6:	22610b5b          	.insn	4, 0x22610b5b
    800946da:	330e                	fld	ft6,224(sp)
    800946dc:	a621                	j	800949e4 <begin_signature+0x39e4>
    800946de:	8b4332a3          	sd	s4,-1883(t1)
    800946e2:	a122                	fsd	fs0,128(sp)
    800946e4:	4fa8                	lw	a0,88(a5)
    800946e6:	73f1                	lui	t2,0xffffc
    800946e8:	7d74                	ld	a3,248(a0)
    800946ea:	5329                	li	t1,-22
    800946ec:	1ce932cb          	.insn	4, 0x1ce932cb
    800946f0:	081e                	slli	a6,a6,0x7
    800946f2:	ec1c                	sd	a5,24(s0)
    800946f4:	f2dc                	sd	a5,160(a3)
    800946f6:	4449                	li	s0,18
    800946f8:	f4e1                	bnez	s1,800946c0 <begin_signature+0x36c0>
    800946fa:	722d                	lui	tp,0xfffeb
    800946fc:	0c6d                	addi	s8,s8,27
    800946fe:	37e9                	addiw	a5,a5,-6
    80094700:	0105e49b          	.insn	4, 0x0105e49b
    80094704:	5f05                	li	t5,-31
    80094706:	2eba                	fld	ft9,392(sp)
    80094708:	77963b3b          	.insn	4, 0x77963b3b
    8009470c:	9954                	.insn	2, 0x9954
    8009470e:	3764                	fld	fs1,232(a4)
    80094710:	804a                	c.mv	zero,s2
    80094712:	b403abaf          	.insn	4, 0xb403abaf
    80094716:	b0922a77          	.insn	4, 0xb0922a77
    8009471a:	c13e                	sw	a5,128(sp)
    8009471c:	e955                	bnez	a0,800947d0 <begin_signature+0x37d0>
    8009471e:	5a36                	lw	s4,108(sp)
    80094720:	70aa                	ld	ra,168(sp)
    80094722:	12fe                	slli	t0,t0,0x3f
    80094724:	4580df93          	.insn	4, 0x4580df93
    80094728:	f77e                	sd	t6,424(sp)
    8009472a:	6362                	ld	t1,24(sp)
    8009472c:	2cc6                	fld	fs9,80(sp)
    8009472e:	86c13eab          	.insn	4, 0x86c13eab
    80094732:	d7b39877          	.insn	4, 0xd7b39877
    80094736:	0e0e                	slli	t3,t3,0x3
    80094738:	485c                	lw	a5,20(s0)
    8009473a:	9d60                	.insn	2, 0x9d60
    8009473c:	8159                	srli	a0,a0,0x16
    8009473e:	006e                	c.slli	zero,0x1b
    80094740:	f9b9                	bnez	a1,80094696 <begin_signature+0x3696>
    80094742:	ecec9f0f          	.insn	4, 0xecec9f0f
    80094746:	2136                	fld	ft2,328(sp)
    80094748:	5f19                	li	t5,-26
    8009474a:	52df d503 1d55      	.insn	6, 0x1d55d50352df
    80094750:	32c9                	addiw	t0,t0,-14
    80094752:	0d76                	slli	s10,s10,0x1d
    80094754:	0e32f707          	.insn	4, 0x0e32f707
    80094758:	a115                	j	80094b7c <begin_signature+0x3b7c>
    8009475a:	ca95                	beqz	a3,8009478e <begin_signature+0x378e>
    8009475c:	08edeac3          	fmadd.s	fs5,fs11,fa4,ft1,unknown
    80094760:	4770                	lw	a2,76(a4)
    80094762:	a8788173          	.insn	4, 0xa8788173
    80094766:	77c5                	lui	a5,0xffff1
    80094768:	cda28ab7          	lui	s5,0xcda28
    8009476c:	a2e8                	fsd	fa0,192(a3)
    8009476e:	2fa9                	addiw	t6,t6,10 # 1000a <_tbss_end+0x1000a>
    80094770:	450e                	lw	a0,192(sp)
    80094772:	814e                	mv	sp,s3
    80094774:	8779                	srai	a4,a4,0x1e
    80094776:	2170                	fld	fa2,192(a0)
    80094778:	205f 5f16 8494      	.insn	6, 0x84945f16205f
    8009477e:	7ef8                	ld	a4,248(a3)
    80094780:	b8b2                	fsd	fa2,112(sp)
    80094782:	0014                	.insn	2, 0x0014
    80094784:	78fa                	ld	a7,440(sp)
    80094786:	5948                	lw	a0,52(a0)
    80094788:	8909                	andi	a0,a0,2
    8009478a:	ef98                	sd	a4,24(a5)
    8009478c:	d22a                	sw	a0,36(sp)
    8009478e:	5ec449f7          	.insn	4, 0x5ec449f7
    80094792:	63cc                	ld	a1,128(a5)
    80094794:	ced9                	beqz	a3,80094832 <begin_signature+0x3832>
    80094796:	5edd                	li	t4,-9
    80094798:	4368                	lw	a0,68(a4)
    8009479a:	2969                	addiw	s2,s2,26
    8009479c:	fb09                	bnez	a4,800946ae <begin_signature+0x36ae>
    8009479e:	0922                	slli	s2,s2,0x8
    800947a0:	8e52                	mv	t3,s4
    800947a2:	0d2694f7          	.insn	4, 0x0d2694f7
    800947a6:	28c5                	addiw	a7,a7,17
    800947a8:	5741                	li	a4,-16
    800947aa:	4a49                	li	s4,18
    800947ac:	69c9                	lui	s3,0x12
    800947ae:	1f5a094f          	.insn	4, 0x1f5a094f
    800947b2:	3f7d                	addiw	t5,t5,-1
    800947b4:	1f28e7cf          	.insn	4, 0x1f28e7cf
    800947b8:	66b0                	ld	a2,72(a3)
    800947ba:	bbe9                	j	80094594 <begin_signature+0x3594>
    800947bc:	710a25cf          	fnmadd.s	fa1,fs4,fa6,fa4,rdn
    800947c0:	a84c                	fsd	fa1,144(s0)
    800947c2:	0706                	slli	a4,a4,0x1
    800947c4:	1022                	c.slli	zero,0x28
    800947c6:	b5ee6edb          	.insn	4, 0xb5ee6edb
    800947ca:	46197abf cec03f56 	.insn	8, 0xcec03f5646197abf
    800947d2:	0f99                	addi	t6,t6,6
    800947d4:	8099                	srli	s1,s1,0x6
    800947d6:	6ba4                	ld	s1,80(a5)
    800947d8:	fe76                	sd	t4,312(sp)
    800947da:	dc3bba23          	sd	gp,-556(s7)
    800947de:	0e6c                	addi	a1,sp,796
    800947e0:	874acc67          	.insn	4, 0x874acc67
    800947e4:	756745b3          	.insn	4, 0x756745b3
    800947e8:	6988                	ld	a0,16(a1)
    800947ea:	0f39                	addi	t5,t5,14
    800947ec:	61b398fb          	.insn	4, 0x61b398fb
    800947f0:	92e8                	.insn	2, 0x92e8
    800947f2:	8a86                	mv	s5,ra
    800947f4:	c962                	sw	s8,144(sp)
    800947f6:	730d1a7b          	.insn	4, 0x730d1a7b
    800947fa:	6700                	ld	s0,8(a4)
    800947fc:	2cd9eebf 71bf122f 	.insn	8, 0x71bf122f2cd9eebf
    80094804:	93a2                	add	t2,t2,s0
    80094806:	148d                	addi	s1,s1,-29
    80094808:	fc91                	bnez	s1,80094724 <begin_signature+0x3724>
    8009480a:	fdec                	sd	a1,248(a1)
    8009480c:	503cff17          	auipc	t5,0x503cf
    80094810:	5c26                	lw	s8,104(sp)
    80094812:	d490                	sw	a2,40(s1)
    80094814:	6a18ca9b          	.insn	4, 0x6a18ca9b
    80094818:	579c773f 6f1c1879 	.insn	8, 0x6f1c1879579c773f
    80094820:	84a5                	srai	s1,s1,0x9
    80094822:	adbd                	j	80094ea0 <begin_signature+0x3ea0>
    80094824:	d8ce                	sw	s3,112(sp)
    80094826:	e93b6217          	auipc	tp,0xe93b6
    8009482a:	5ff6                	lw	t6,124(sp)
    8009482c:	46c12753          	.insn	4, 0x46c12753
    80094830:	1342                	slli	t1,t1,0x30
    80094832:	7976                	ld	s2,376(sp)
    80094834:	d804                	sw	s1,48(s0)
    80094836:	39d9                	addiw	s3,s3,-10 # 11ff6 <_tbss_end+0x11ff6>
    80094838:	2af9                	addiw	s5,s5,30 # ffffffffcda2801e <_end+0xffffffff4d98f5ba>
    8009483a:	cbcc                	sw	a1,20(a5)
    8009483c:	8786                	mv	a5,ra
    8009483e:	6b4a                	ld	s6,144(sp)
    80094840:	da57064b          	fnmsub.d	fa2,fa4,ft5,fs11,rne
    80094844:	a03e                	fsd	fa5,0(sp)
    80094846:	23b4                	fld	fa3,64(a5)
    80094848:	4309                	li	t1,2
    8009484a:	a6ed2273          	csrrs	tp,0xa6e,s10
    8009484e:	336e                	fld	ft6,248(sp)
    80094850:	a4bd1303          	lh	t1,-1461(s10) # 1ba4b <_tbss_end+0x1ba4b>
    80094854:	5821                	li	a6,-24
    80094856:	892c462b          	.insn	4, 0x892c462b
    8009485a:	0e689ce3          	bne	a7,t1,80095152 <end_signature+0x152>
    8009485e:	d16b28d3          	.insn	4, 0xd16b28d3
    80094862:	a53e                	fsd	fa5,136(sp)
    80094864:	5f59a90b          	.insn	4, 0x5f59a90b
    80094868:	51bc                	lw	a5,96(a1)
    8009486a:	7f8a                	ld	t6,160(sp)
    8009486c:	230e                	fld	ft6,192(sp)
    8009486e:	08a9                	addi	a7,a7,10
    80094870:	ae477313          	andi	t1,a4,-1308
    80094874:	4e332c6f          	jal	s8,800c7556 <_end+0x2eaf2>
    80094878:	85d4                	.insn	2, 0x85d4
    8009487a:	230c                	fld	fa1,0(a4)
    8009487c:	87fa                	mv	a5,t5
    8009487e:	0909                	addi	s2,s2,2
    80094880:	9fb6                	add	t6,t6,a3
    80094882:	8672                	mv	a2,t3
    80094884:	ac28                	fsd	fa0,88(s0)
    80094886:	0be4                	addi	s1,sp,476
    80094888:	1a96                	slli	s5,s5,0x25
    8009488a:	007f 7a62 2c67 bcd6 	.insn	10, 0x12f7bcd62c677a62007f
    80094892:	12f7 
    80094894:	99d0                	.insn	2, 0x99d0
    80094896:	23fd                	addiw	t2,t2,31 # ffffffffffffc01f <_end+0xffffffff7ff635bb>
    80094898:	e201                	bnez	a2,80094898 <begin_signature+0x3898>
    8009489a:	c4feb967          	.insn	4, 0xc4feb967
    8009489e:	1d1270e3          	bgeu	tp,a7,8009525e <end_signature+0x25e>
    800948a2:	f83836af          	.insn	4, 0xf83836af
    800948a6:	4fa0                	lw	s0,88(a5)
    800948a8:	bf76                	fsd	ft9,440(sp)
    800948aa:	df1e                	sw	t2,188(sp)
    800948ac:	e284                	sd	s1,0(a3)
    800948ae:	432d                	li	t1,11
    800948b0:	a560                	fsd	fs0,200(a0)
    800948b2:	bb81                	j	80094602 <begin_signature+0x3602>
    800948b4:	1e172067          	.insn	4, 0x1e172067
    800948b8:	76e8                	ld	a0,232(a3)
    800948ba:	6f3e                	ld	t5,456(sp)
    800948bc:	9f58                	.insn	2, 0x9f58
    800948be:	e0ba3d47          	fmsub.s	fs10,fs4,fa1,ft8,rup
    800948c2:	64ad                	lui	s1,0xb
    800948c4:	3240                	fld	fs0,160(a2)
    800948c6:	4f770eb3          	.insn	4, 0x4f770eb3
    800948ca:	5f74                	lw	a3,124(a4)
    800948cc:	541d                	li	s0,-25
    800948ce:	ed9007a3          	sb	s9,-305(zero) # fffffffffffffecf <_end+0xffffffff7ff6746b>
    800948d2:	6c461917          	auipc	s2,0x6c461
    800948d6:	902d144f          	fnmadd.s	fs0,fs10,ft2,fs2,rtz
    800948da:	773c0cc7          	.insn	4, 0x773c0cc7
    800948de:	315f 0ead 4dbd      	.insn	6, 0x4dbd0ead315f
    800948e4:	e7ac                	sd	a1,72(a5)
    800948e6:	6e2d                	lui	t3,0xb
    800948e8:	99aa                	add	s3,s3,a0
    800948ea:	bdad                	j	80094764 <begin_signature+0x3764>
    800948ec:	fa2a                	sd	a0,304(sp)
    800948ee:	7314                	ld	a3,32(a4)
    800948f0:	7009                	c.lui	zero,0xfffe2
    800948f2:	e0c5                	bnez	s1,80094992 <begin_signature+0x3992>
    800948f4:	2730                	fld	fa2,72(a4)
    800948f6:	1c7d7c6b          	.insn	4, 0x1c7d7c6b
    800948fa:	8e10                	.insn	2, 0x8e10
    800948fc:	4fab7013          	andi	zero,s6,1274
    80094900:	fd09                	bnez	a0,8009481a <begin_signature+0x381a>
    80094902:	fab9                	bnez	a3,80094858 <begin_signature+0x3858>
    80094904:	854d                	srai	a0,a0,0x13
    80094906:	73d9                	lui	t2,0xffff6
    80094908:	be3e                	fsd	fa5,312(sp)
    8009490a:	eeea2b67          	.insn	4, 0xeeea2b67
    8009490e:	32e9                	addiw	t0,t0,-6
    80094910:	3d00d7b3          	.insn	4, 0x3d00d7b3
    80094914:	5a9bfdd7          	.insn	4, 0x5a9bfdd7
    80094918:	de30                	sw	a2,120(a2)
    8009491a:	6786                	ld	a5,64(sp)
    8009491c:	9e01                	subw	a2,a2,s0
    8009491e:	1cc0                	addi	s0,sp,628
    80094920:	c0e83627          	fsd	fa4,-1012(a6)
    80094924:	01eb2827          	fsw	ft10,16(s6)
    80094928:	1c02                	slli	s8,s8,0x20
    8009492a:	f574                	sd	a3,232(a0)
    8009492c:	03f2                	slli	t2,t2,0x1c
    8009492e:	7c483603          	ld	a2,1988(a6)
    80094932:	f262                	sd	s8,288(sp)
    80094934:	45ba0183          	lb	gp,1115(s4)
    80094938:	0118f897          	auipc	a7,0x118f
    8009493c:	7292                	ld	t0,288(sp)
    8009493e:	0b1c                	addi	a5,sp,400
    80094940:	70c1                	lui	ra,0xffff0
    80094942:	0c793983          	ld	s3,199(s2) # ec4f5999 <_end+0x6c45cf35>
    80094946:	2df60f53          	.insn	4, 0x2df60f53
    8009494a:	cc99                	beqz	s1,80094968 <begin_signature+0x3968>
    8009494c:	2cce067b          	.insn	4, 0x2cce067b
    80094950:	73150f87          	.insn	4, 0x73150f87
    80094954:	d81d                	beqz	s0,8009488a <begin_signature+0x388a>
    80094956:	623a                	ld	tp,392(sp)
    80094958:	df45                	beqz	a4,80094910 <begin_signature+0x3910>
    8009495a:	380241af          	.insn	4, 0x380241af
    8009495e:	39c2                	fld	fs3,48(sp)
    80094960:	d085                	beqz	s1,80094880 <begin_signature+0x3880>
    80094962:	2798                	fld	fa4,8(a5)
    80094964:	2219                	addiw	tp,tp,6 # 6944a82c <_tbss_end+0x6944a82c>
    80094966:	6d99                	lui	s11,0x6
    80094968:	88fee407          	.insn	4, 0x88fee407
    8009496c:	593377cf          	fnmadd.s	fa5,ft6,fs3,fa1
    80094970:	6e79                	lui	t3,0x1e
    80094972:	bad2a537          	lui	a0,0xbad2a
    80094976:	c4b138bb          	.insn	4, 0xc4b138bb
    8009497a:	f9f2                	sd	t3,240(sp)
    8009497c:	5879                	li	a6,-2
    8009497e:	0d64                	addi	s1,sp,668
    80094980:	e10caf83          	lw	t6,-496(s9)
    80094984:	d465                	beqz	s0,8009496c <begin_signature+0x396c>
    80094986:	85263447          	.insn	4, 0x85263447
    8009498a:	1960                	addi	s0,sp,188
    8009498c:	b50e                	fsd	ft3,168(sp)
    8009498e:	7aaa                	ld	s5,168(sp)
    80094990:	1daa                	slli	s11,s11,0x2a
    80094992:	0d18590f          	.insn	4, 0x0d18590f
    80094996:	437c                	lw	a5,68(a4)
    80094998:	cac1                	beqz	a3,80094a28 <begin_signature+0x3a28>
    8009499a:	dd80                	sw	s0,56(a1)
    8009499c:	92a5                	srli	a3,a3,0x29
    8009499e:	f4c3094b          	.insn	4, 0xf4c3094b
    800949a2:	3bda                	fld	fs7,432(sp)
    800949a4:	0989                	addi	s3,s3,2
    800949a6:	d90f6bbb          	.insn	4, 0xd90f6bbb
    800949aa:	f820                	sd	s0,112(s0)
    800949ac:	68bd                	lui	a7,0xf
    800949ae:	3e40                	fld	fs0,184(a2)
    800949b0:	eaa2                	sd	s0,336(sp)
    800949b2:	79996d83          	lwu	s11,1945(s2)
    800949b6:	7924                	ld	s1,112(a0)
    800949b8:	47783ba7          	fsd	fs7,1143(a6)
    800949bc:	b7e2                	fsd	fs8,488(sp)
    800949be:	681f efa8 fdbd      	.insn	6, 0xfdbdefa8681f
    800949c4:	cbd0                	sw	a2,20(a5)
    800949c6:	485d                	li	a6,23
    800949c8:	bfbc                	fsd	fa5,120(a5)
    800949ca:	9775                	srai	a4,a4,0x3d
    800949cc:	1f8d                	addi	t6,t6,-29
    800949ce:	47de                	lw	a5,212(sp)
    800949d0:	c1a8                	sw	a0,64(a1)
    800949d2:	4acc                	lw	a1,20(a3)
    800949d4:	2012                	fld	ft0,256(sp)
    800949d6:	b93b74a3          	.insn	4, 0xb93b74a3
    800949da:	e8be3f33          	.insn	4, 0xe8be3f33
    800949de:	2911                	addiw	s2,s2,4
    800949e0:	ffba                	sd	a4,504(sp)
    800949e2:	c6b0                	sw	a2,72(a3)
    800949e4:	a73d                	j	80095112 <end_signature+0x112>
    800949e6:	2125                	addiw	sp,sp,9
    800949e8:	3a01                	addiw	s4,s4,-32
    800949ea:	379c                	fld	fa5,40(a5)
    800949ec:	f8dc                	sd	a5,176(s1)
    800949ee:	4cf0                	lw	a2,92(s1)
    800949f0:	0308                	addi	a0,sp,384
    800949f2:	29fd                	addiw	s3,s3,31
    800949f4:	7ea6                	ld	t4,104(sp)
    800949f6:	7ce5                	lui	s9,0xffff9
    800949f8:	07049ab7          	lui	s5,0x7049
    800949fc:	88a9                	andi	s1,s1,10
    800949fe:	5972                	lw	s2,60(sp)
    80094a00:	d201                	beqz	a2,80094900 <begin_signature+0x3900>
    80094a02:	cb1a                	sw	t1,148(sp)
    80094a04:	7ffb839b          	addiw	t2,s7,2047
    80094a08:	e8d8                	sd	a4,144(s1)
    80094a0a:	3e1f 7e60 0473      	.insn	6, 0x04737e603e1f
    80094a10:	7d5654e7          	.insn	4, 0x7d5654e7
    80094a14:	79a4c41b          	.insn	4, 0x79a4c41b
    80094a18:	edc9                	bnez	a1,80094ab2 <begin_signature+0x3ab2>
    80094a1a:	7bd1                	lui	s7,0xffff4
    80094a1c:	0b0e                	slli	s6,s6,0x3
    80094a1e:	7afc                	ld	a5,240(a3)
    80094a20:	408e                	lw	ra,192(sp)
    80094a22:	0f7d                	addi	t5,t5,31 # d046382b <_end+0x503cadc7>
    80094a24:	9576                	add	a0,a0,t4
    80094a26:	2952                	fld	fs2,272(sp)
    80094a28:	fb04                	sd	s1,48(a4)
    80094a2a:	495d                	li	s2,23
    80094a2c:	3663c82f          	.insn	4, 0x3663c82f
    80094a30:	3b86                	fld	fs7,96(sp)
    80094a32:	1571                	addi	a0,a0,-4 # ffffffffbad29ffc <_end+0xffffffff3ac91598>
    80094a34:	2975                	addiw	s2,s2,29
    80094a36:	0ab2492b          	.insn	4, 0x0ab2492b
    80094a3a:	e23e                	sd	a5,256(sp)
    80094a3c:	a670                	fsd	fa2,200(a2)
    80094a3e:	5ec0                	lw	s0,60(a3)
    80094a40:	7784                	ld	s1,40(a5)
    80094a42:	a26ca9af          	amomax.w.rl	s3,t1,(s9)
    80094a46:	15cd                	addi	a1,a1,-13
    80094a48:	c590                	sw	a2,8(a1)
    80094a4a:	43f4                	lw	a3,68(a5)
    80094a4c:	870c                	.insn	2, 0x870c
    80094a4e:	65ce                	ld	a1,208(sp)
    80094a50:	0d6c                	addi	a1,sp,668
    80094a52:	e80d                	bnez	s0,80094a84 <begin_signature+0x3a84>
    80094a54:	c37f 4eee 88ed a77c 	.insn	18, 0x61304eabee1768ead5eda77c88ed4eeec37f
    80094a5c:	d5ed 68ea ee17 4eab 
    80094a64:	6130 
    80094a66:	6a2036bf edd6f260 	.insn	8, 0xedd6f2606a2036bf
    80094a6e:	22a2                	fld	ft5,8(sp)
    80094a70:	090c                	addi	a1,sp,144
    80094a72:	a6ff 6047 15f8 b90c 	.insn	14, 0x6a5bda7c6e36b90c15f86047a6ff
    80094a7a:	6e36 da7c 6a5b 
    80094a80:	6f36                	ld	t5,328(sp)
    80094a82:	2e85b44b          	.insn	4, 0x2e85b44b
    80094a86:	165a                	slli	a2,a2,0x36
    80094a88:	80a8                	.insn	2, 0x80a8
    80094a8a:	f7d2                	sd	s4,488(sp)
    80094a8c:	08ad                	addi	a7,a7,11 # f00b <_tbss_end+0xf00b>
    80094a8e:	6898                	ld	a4,16(s1)
    80094a90:	5312                	lw	t1,36(sp)
    80094a92:	a42c                	fsd	fa1,72(s0)
    80094a94:	da2e                	sw	a1,52(sp)
    80094a96:	fa8a3877          	.insn	4, 0xfa8a3877
    80094a9a:	fa24                	sd	s1,112(a2)
    80094a9c:	34adf5db          	.insn	4, 0x34adf5db
    80094aa0:	8d92                	mv	s11,tp
    80094aa2:	24a8                	fld	fa0,72(s1)
    80094aa4:	7a2e                	ld	s4,232(sp)
    80094aa6:	6f191fdb          	.insn	4, 0x6f191fdb
    80094aaa:	39b0                	fld	fa2,112(a1)
    80094aac:	a786                	fsd	ft1,456(sp)
    80094aae:	0382                	c.slli64	t2
    80094ab0:	83a9                	srli	a5,a5,0xa
    80094ab2:	b8e0                	fsd	fs0,240(s1)
    80094ab4:	93f1                	srli	a5,a5,0x3c
    80094ab6:	7efa                	ld	t4,440(sp)
    80094ab8:	7eed                	lui	t4,0xffffb
    80094aba:	019ea5fb          	.insn	4, 0x019ea5fb
    80094abe:	5278                	lw	a4,100(a2)
    80094ac0:	48b5bf07          	fld	ft10,1163(a1)
    80094ac4:	cb4a                	sw	s2,148(sp)
    80094ac6:	3d16                	fld	fs10,352(sp)
    80094ac8:	0acd                	addi	s5,s5,19 # 7049013 <_tbss_end+0x7049013>
    80094aca:	37890e6f          	jal	t3,80124e42 <_end+0x8c3de>
    80094ace:	2d7c                	fld	fa5,216(a0)
    80094ad0:	07a0                	addi	s0,sp,968
    80094ad2:	5f62                	lw	t5,56(sp)
    80094ad4:	17d5                	addi	a5,a5,-11 # ffffffffffff0ff5 <_end+0xffffffff7ff58591>
    80094ad6:	47a6                	lw	a5,72(sp)
    80094ad8:	0a64                	addi	s1,sp,284
    80094ada:	9e39e2ab          	.insn	4, 0x9e39e2ab
    80094ade:	ddce1acf          	.insn	4, 0xddce1acf
    80094ae2:	75b4                	ld	a3,104(a1)
    80094ae4:	1582                	slli	a1,a1,0x20
    80094ae6:	7b004333          	.insn	4, 0x7b004333
    80094aea:	35c661ab          	.insn	4, 0x35c661ab
    80094aee:	1e22                	slli	t3,t3,0x28
    80094af0:	1934                	addi	a3,sp,184
    80094af2:	f6da                	sd	s6,360(sp)
    80094af4:	3faa3b33          	.insn	4, 0x3faa3b33
    80094af8:	127d                	addi	tp,tp,-1 # ffffffffffffffff <_end+0xffffffff7ff6759b>
    80094afa:	e4a38957          	.insn	4, 0xe4a38957
    80094afe:	6446                	ld	s0,80(sp)
    80094b00:	2585                	addiw	a1,a1,1
    80094b02:	1056                	c.slli	zero,0x35
    80094b04:	67ad5f0f          	.insn	4, 0x67ad5f0f
    80094b08:	1372                	slli	t1,t1,0x3c
    80094b0a:	e90c                	sd	a1,16(a0)
    80094b0c:	9310                	.insn	2, 0x9310
    80094b0e:	60705d87          	.insn	4, 0x60705d87
    80094b12:	ea7c                	sd	a5,208(a2)
    80094b14:	8df2                	mv	s11,t3
    80094b16:	6baa                	ld	s7,136(sp)
    80094b18:	090a                	slli	s2,s2,0x2
    80094b1a:	caa9                	beqz	a3,80094b6c <begin_signature+0x3b6c>
    80094b1c:	d7c1                	beqz	a5,80094aa4 <begin_signature+0x3aa4>
    80094b1e:	0ac5                	addi	s5,s5,17
    80094b20:	912426f3          	csrrs	a3,0x912,s0
    80094b24:	2e9f 38d9 a453      	.insn	6, 0xa45338d92e9f
    80094b2a:	e44d                	bnez	s0,80094bd4 <begin_signature+0x3bd4>
    80094b2c:	1b00ab13          	slti	s6,ra,432
    80094b30:	9eba                	add	t4,t4,a4
    80094b32:	75b6                	ld	a1,360(sp)
    80094b34:	07be                	slli	a5,a5,0xf
    80094b36:	7e99                	lui	t4,0xfffe6
    80094b38:	d27c                	sw	a5,100(a2)
    80094b3a:	4942                	lw	s2,16(sp)
    80094b3c:	2ea3dcab          	.insn	4, 0x2ea3dcab
    80094b40:	a9fd                	j	8009503e <end_signature+0x3e>
    80094b42:	2cd4                	fld	fa3,152(s1)
    80094b44:	23afda4b          	fnmsub.d	fs4,ft11,fs10,ft4,unknown
    80094b48:	4b70                	lw	a2,84(a4)
    80094b4a:	6c04                	ld	s1,24(s0)
    80094b4c:	3d46                	fld	fs10,112(sp)
    80094b4e:	5f48                	lw	a0,60(a4)
    80094b50:	fa94                	sd	a3,48(a3)
    80094b52:	cbfa                	sw	t5,212(sp)
    80094b54:	f71a                	sd	t1,424(sp)
    80094b56:	5941                	li	s2,-16
    80094b58:	efa3aecf          	.insn	4, 0xefa3aecf
    80094b5c:	28df7ea7          	.insn	4, 0x28df7ea7
    80094b60:	70c0                	ld	s0,160(s1)
    80094b62:	61fc                	ld	a5,192(a1)
    80094b64:	dc74                	sw	a3,124(s0)
    80094b66:	2d98                	fld	fa4,24(a1)
    80094b68:	60e4                	ld	s1,192(s1)
    80094b6a:	f636                	sd	a3,296(sp)
    80094b6c:	5ea94693          	xori	a3,s2,1514
    80094b70:	7b6d                	lui	s6,0xffffb
    80094b72:	42b5                	li	t0,13
    80094b74:	0fb4bf5b          	.insn	4, 0x0fb4bf5b
    80094b78:	8592                	mv	a1,tp
    80094b7a:	cd1a                	sw	t1,152(sp)
    80094b7c:	7a85b1f7          	.insn	4, 0x7a85b1f7
    80094b80:	79e0f523          	.insn	4, 0x79e0f523
    80094b84:	7cae                	ld	s9,232(sp)
    80094b86:	2be03473          	csrrc	s0,0x2be,zero
    80094b8a:	2dc2                	fld	fs11,16(sp)
    80094b8c:	7bc10ddb          	.insn	4, 0x7bc10ddb
    80094b90:	43cb3053          	.insn	4, 0x43cb3053
    80094b94:	4bacf7f3          	csrrci	a5,0x4ba,25
    80094b98:	dc2d                	beqz	s0,80094b12 <begin_signature+0x3b12>
    80094b9a:	6eec                	ld	a1,216(a3)
    80094b9c:	33a9                	addiw	t2,t2,-22 # ffffffffffff5fea <_end+0xffffffff7ff5d586>
    80094b9e:	a4164413          	xori	s0,a2,-1471
    80094ba2:	b9d038ab          	.insn	4, 0xb9d038ab
    80094ba6:	3981                	addiw	s3,s3,-32
    80094ba8:	1ba9                	addi	s7,s7,-22 # ffffffffffff3fea <_end+0xffffffff7ff5b586>
    80094baa:	6e41                	lui	t3,0x10
    80094bac:	12730c07          	.insn	4, 0x12730c07
    80094bb0:	fa5f 94a9 d4da      	.insn	6, 0xd4da94a9fa5f
    80094bb6:	701d                	c.lui	zero,0xfffe7
    80094bb8:	8ca5                	xor	s1,s1,s1
    80094bba:	2c19223b          	.insn	4, 0x2c19223b
    80094bbe:	3878                	fld	fa4,240(s0)
    80094bc0:	a4dc3ea7          	fsd	fa3,-1443(s8)
    80094bc4:	22de                	fld	ft5,464(sp)
    80094bc6:	5b91                	li	s7,-28
    80094bc8:	1840                	addi	s0,sp,52
    80094bca:	5af1                	li	s5,-4
    80094bcc:	7194                	ld	a3,32(a1)
    80094bce:	7d523f2b          	.insn	4, 0x7d523f2b
    80094bd2:	5380                	lw	s0,32(a5)
    80094bd4:	b17c                	fsd	fa5,224(a0)
    80094bd6:	2581                	sext.w	a1,a1
    80094bd8:	5690                	lw	a2,40(a3)
    80094bda:	aabc                	fsd	fa5,80(a3)
    80094bdc:	f1a0                	sd	s0,96(a1)
    80094bde:	be307407          	.insn	4, 0xbe307407
    80094be2:	af99                	j	80095338 <end_signature+0x338>
    80094be4:	a822                	fsd	fs0,16(sp)
    80094be6:	2b0d                	addiw	s6,s6,3 # ffffffffffffb003 <_end+0xffffffff7ff6259f>
    80094be8:	cdc9                	beqz	a1,80094c82 <begin_signature+0x3c82>
    80094bea:	5716                	lw	a4,100(sp)
    80094bec:	3eb6                	fld	ft9,360(sp)
    80094bee:	7e59                	lui	t3,0xffff6
    80094bf0:	ad5c                	fsd	fa5,152(a0)
    80094bf2:	3c9d                	addiw	s9,s9,-25 # ffffffffffff8fe7 <_end+0xffffffff7ff60583>
    80094bf4:	ddb2                	sw	a2,248(sp)
    80094bf6:	c11068b7          	lui	a7,0xc1106
    80094bfa:	00d52a6f          	jal	s4,800e7406 <_end+0x4e9a2>
    80094bfe:	16dc                	addi	a5,sp,868
    80094c00:	210c                	fld	fa1,0(a0)
    80094c02:	5adf ad6c 29e1      	.insn	6, 0x29e1ad6c5adf
    80094c08:	d018de37          	lui	t3,0xd018d
    80094c0c:	60ae                	ld	ra,200(sp)
    80094c0e:	01bc2d6b          	.insn	4, 0x01bc2d6b
    80094c12:	c5be                	sw	a5,200(sp)
    80094c14:	a084                	fsd	fs1,0(s1)
    80094c16:	814b6d03          	lwu	s10,-2028(s6)
    80094c1a:	abbcdf7b          	.insn	4, 0xabbcdf7b
    80094c1e:	e5c67cef          	jal	s9,7fffc27a <_tbss_end+0x7fffc27a>
    80094c22:	ed47c87b          	.insn	4, 0xed47c87b
    80094c26:	77565a13          	.insn	4, 0x77565a13
    80094c2a:	5485                	li	s1,-31
    80094c2c:	f85d                	bnez	s0,80094be2 <begin_signature+0x3be2>
    80094c2e:	2f12                	fld	ft10,256(sp)
    80094c30:	ebde                	sd	s7,464(sp)
    80094c32:	3ec5                	addiw	t4,t4,-15 # fffffffffffe5ff1 <_end+0xffffffff7ff4d58d>
    80094c34:	dca2                	sw	s0,120(sp)
    80094c36:	64bd                	lui	s1,0xf
    80094c38:	cfcfa753          	.insn	4, 0xcfcfa753
    80094c3c:	55b57a53          	.insn	4, 0x55b57a53
    80094c40:	55f8                	lw	a4,108(a1)
    80094c42:	4f6f86e7          	jalr	a3,1270(t6)
    80094c46:	3424                	fld	fs1,104(s0)
    80094c48:	a3a4                	fsd	fs1,64(a5)
    80094c4a:	3d88                	fld	fa0,56(a1)
    80094c4c:	1b14d4a7          	.insn	4, 0x1b14d4a7
    80094c50:	0522                	slli	a0,a0,0x8
    80094c52:	99c2                	add	s3,s3,a6
    80094c54:	0b878503          	lb	a0,184(a5)
    80094c58:	7320cf3f 57505685 	.insn	8, 0x575056857320cf3f
    80094c60:	4506                	lw	a0,64(sp)
    80094c62:	1020                	addi	s0,sp,40
    80094c64:	357c                	fld	fa5,232(a0)
    80094c66:	2eb5                	addiw	t4,t4,13
    80094c68:	3bb4                	fld	fa3,112(a5)
    80094c6a:	544d2e4b          	.insn	4, 0x544d2e4b
    80094c6e:	652316a3          	sh	s2,1613(t1)
    80094c72:	ab58                	fsd	fa4,144(a4)
    80094c74:	3601acab          	.insn	4, 0x3601acab
    80094c78:	b69e                	fsd	ft7,360(sp)
    80094c7a:	1ae924b3          	.insn	4, 0x1ae924b3
    80094c7e:	35a8673b          	.insn	4, 0x35a8673b
    80094c82:	1f40                	addi	s0,sp,948
    80094c84:	19e3e11b          	.insn	4, 0x19e3e11b
    80094c88:	5c76                	lw	s8,124(sp)
    80094c8a:	fdf90667          	jalr	a2,-33(s2)
    80094c8e:	7ee361b3          	.insn	4, 0x7ee361b3
    80094c92:	03e7d417          	auipc	s0,0x3e7d
    80094c96:	6b4e                	ld	s6,208(sp)
    80094c98:	3490                	fld	fa2,40(s1)
    80094c9a:	f38dc043          	fmadd.d	ft0,fs11,fs8,ft10,rmm
    80094c9e:	26e5                	addiw	a3,a3,25
    80094ca0:	5820                	lw	s0,112(s0)
    80094ca2:	753d                	lui	a0,0xfffef
    80094ca4:	639d                	lui	t2,0x7
    80094ca6:	b3a24247          	fmsub.d	ft4,ft4,fs10,fs6,rmm
    80094caa:	f7252c17          	auipc	s8,0xf7252
    80094cae:	647d3f17          	auipc	t5,0x647d3
    80094cb2:	a36c                	fsd	fa1,192(a4)
    80094cb4:	4aecdd4b          	fnmsub.d	fs10,fs9,fa4,fs1,unknown
    80094cb8:	db3e                	sw	a5,180(sp)
    80094cba:	acd78327          	.insn	4, 0xacd78327
    80094cbe:	289e                	fld	fa7,448(sp)
    80094cc0:	76dd                	lui	a3,0xffff7
    80094cc2:	e6a03c2b          	.insn	4, 0xe6a03c2b
    80094cc6:	0158                	addi	a4,sp,132
    80094cc8:	9549                	srai	a0,a0,0x32
    80094cca:	d8e9dbe7          	.insn	4, 0xd8e9dbe7
    80094cce:	4e72                	lw	t3,28(sp)
    80094cd0:	e2ac                	sd	a1,64(a3)
    80094cd2:	551b49bb          	.insn	4, 0x551b49bb
    80094cd6:	7b72                	ld	s6,312(sp)
    80094cd8:	0271                	addi	tp,tp,28 # 1c <_tbss_end+0x1c>
    80094cda:	6569                	lui	a0,0x1a
    80094cdc:	34a4                	fld	fs1,104(s1)
    80094cde:	0000                	unimp
    80094ce0:	56f8                	lw	a4,108(a3)
    80094ce2:	3e89                	addiw	t4,t4,-30
    80094ce4:	a6df 6150 3350      	.insn	6, 0x33506150a6df
    80094cea:	4ea030fb          	.insn	4, 0x4ea030fb
    80094cee:	a9234a47          	fmsub.s	fs4,ft6,fs2,fs5,rmm
    80094cf2:	4cc2                	lw	s9,16(sp)
    80094cf4:	4489995b          	.insn	4, 0x4489995b
    80094cf8:	0a3d                	addi	s4,s4,15
    80094cfa:	90ce                	add	ra,ra,s3
    80094cfc:	860c                	.insn	2, 0x860c
    80094cfe:	6b25                	lui	s6,0x9
    80094d00:	f7b2                	sd	a2,488(sp)
    80094d02:	9db9                	addw	a1,a1,a4
    80094d04:	f761                	bnez	a4,80094ccc <begin_signature+0x3ccc>
    80094d06:	0268                	addi	a0,sp,268
    80094d08:	5b9a                	lw	s7,164(sp)
    80094d0a:	02ee                	slli	t0,t0,0x1b
    80094d0c:	06c2                	slli	a3,a3,0x10
    80094d0e:	a8d01487          	.insn	4, 0xa8d01487
    80094d12:	8ed6                	mv	t4,s5
    80094d14:	9664                	.insn	2, 0x9664
    80094d16:	0b0c                	addi	a1,sp,400
    80094d18:	bed5                	j	8009490c <begin_signature+0x390c>
    80094d1a:	bb3c                	fsd	fa5,112(a4)
    80094d1c:	b082                	fsd	ft0,96(sp)
    80094d1e:	2386                	fld	ft7,64(sp)
    80094d20:	4f44                	lw	s1,28(a4)
    80094d22:	9002                	ebreak
    80094d24:	4d9323cb          	.insn	4, 0x4d9323cb
    80094d28:	7195                	lui	gp,0xfffe5
    80094d2a:	9b747e83          	.insn	4, 0x9b747e83
    80094d2e:	7c335473          	csrrwi	s0,0x7c3,6
    80094d32:	dbd1732b          	.insn	4, 0xdbd1732b
    80094d36:	0fb1                	addi	t6,t6,12
    80094d38:	4a12                	lw	s4,4(sp)
    80094d3a:	12ad                	addi	t0,t0,-21
    80094d3c:	02df 4fc6 2a46      	.insn	6, 0x2a464fc602df
    80094d42:	e638                	sd	a4,72(a2)
    80094d44:	1a2c1ceb          	.insn	4, 0x1a2c1ceb
    80094d48:	6515                	lui	a0,0x5
    80094d4a:	4fc0                	lw	s0,28(a5)
    80094d4c:	7f48                	ld	a0,184(a4)
    80094d4e:	3626                	fld	fa2,104(sp)
    80094d50:	93a6                	add	t2,t2,s1
    80094d52:	0809                	addi	a6,a6,2
    80094d54:	79c9                	lui	s3,0xffff2
    80094d56:	5e49                	li	t3,-14
    80094d58:	43a4                	lw	s1,64(a5)
    80094d5a:	dc85cb4f          	.insn	4, 0xdc85cb4f
    80094d5e:	afd333a3          	sd	t4,-1305(t1)
    80094d62:	ea5e                	sd	s7,272(sp)
    80094d64:	da2c                	sw	a1,112(a2)
    80094d66:	214a                	fld	ft2,144(sp)
    80094d68:	ebcc                	sd	a1,144(a5)
    80094d6a:	7f489467          	.insn	4, 0x7f489467
    80094d6e:	47ce74b3          	.insn	4, 0x47ce74b3
    80094d72:	fa1e                	sd	t2,304(sp)
    80094d74:	c6bc                	sw	a5,72(a3)
    80094d76:	50c6                	lw	ra,112(sp)
    80094d78:	20e4                	fld	fs1,192(s1)
    80094d7a:	afbd                	j	800954f8 <end_signature+0x4f8>
    80094d7c:	2469                	addiw	s0,s0,26 # ffffffff83f11cac <_end+0xffffffff03e79248>
    80094d7e:	1c5a                	slli	s8,s8,0x36
    80094d80:	c65d                	beqz	a2,80094e2e <begin_signature+0x3e2e>
    80094d82:	f9215657          	.insn	4, 0xf9215657
    80094d86:	70d0                	ld	a2,160(s1)
    80094d88:	ecb1                	bnez	s1,80094de4 <begin_signature+0x3de4>
    80094d8a:	f2c9                	bnez	a3,80094d0c <begin_signature+0x3d0c>
    80094d8c:	81b4                	.insn	2, 0x81b4
    80094d8e:	21b5                	addiw	gp,gp,13 # fffffffffffe500d <_end+0xffffffff7ff4c5a9>
    80094d90:	47a4                	lw	s1,72(a5)
    80094d92:	9af48bdb          	.insn	4, 0x9af48bdb
    80094d96:	2371680f          	.insn	4, 0x2371680f
    80094d9a:	3b0dd913          	.insn	4, 0x3b0dd913
    80094d9e:	59c2                	lw	s3,48(sp)
    80094da0:	2971                	addiw	s2,s2,28
    80094da2:	97e0                	.insn	2, 0x97e0
    80094da4:	782d                	lui	a6,0xfffeb
    80094da6:	7f74                	ld	a3,248(a4)
    80094da8:	a225                	j	80094ed0 <begin_signature+0x3ed0>
    80094daa:	ed18                	sd	a4,24(a0)
    80094dac:	21d6                	fld	ft3,336(sp)
    80094dae:	5cdc                	lw	a5,60(s1)
    80094db0:	4b4d                	li	s6,19
    80094db2:	71d2912b          	.insn	4, 0x71d2912b
    80094db6:	2ad8                	fld	fa4,144(a3)
    80094db8:	5ca99137          	lui	sp,0x5ca99
    80094dbc:	1cf1                	addi	s9,s9,-4
    80094dbe:	5f72                	lw	t5,60(sp)
    80094dc0:	66a5                	lui	a3,0x9
    80094dc2:	840d                	srai	s0,s0,0x3
    80094dc4:	7cdc6afb          	.insn	4, 0x7cdc6afb
    80094dc8:	6ca1                	lui	s9,0x8
    80094dca:	c93e6153          	.insn	4, 0xc93e6153
    80094dce:	8cc025c3          	.insn	4, 0x8cc025c3
    80094dd2:	fdde                	sd	s7,248(sp)
    80094dd4:	541c                	lw	a5,40(s0)
    80094dd6:	70e5                	lui	ra,0xffff9
    80094dd8:	7d41                	lui	s10,0xffff0
    80094dda:	5875                	li	a6,-3
    80094ddc:	b4e6                	fsd	fs9,104(sp)
    80094dde:	1c41                	addi	s8,s8,-16 # 772e6c9a <_tbss_end+0x772e6c9a>
    80094de0:	70ee                	ld	ra,248(sp)
    80094de2:	2c99                	addiw	s9,s9,6 # 8006 <_tbss_end+0x8006>
    80094de4:	bbae                	fsd	fa1,496(sp)
    80094de6:	1751                	addi	a4,a4,-12
    80094de8:	a742                	fsd	fa6,392(sp)
    80094dea:	f6b5                	bnez	a3,80094d56 <begin_signature+0x3d56>
    80094dec:	4881                	li	a7,0
    80094dee:	b83401d7          	.insn	4, 0xb83401d7
    80094df2:	fa7a1743          	fmadd.d	fa4,fs4,ft7,ft11,rtz
    80094df6:	2071                	.insn	2, 0x2071
    80094df8:	d059                	beqz	s0,80094d7e <begin_signature+0x3d7e>
    80094dfa:	5ffcc9bf 9f715893 	.insn	8, 0x9f7158935ffcc9bf
    80094e02:	9121                	srli	a0,a0,0x28
    80094e04:	26fc                	fld	fa5,200(a3)
    80094e06:	13c1                	addi	t2,t2,-16 # 6ff0 <_tbss_end+0x6ff0>
    80094e08:	d5ce                	sw	s3,232(sp)
    80094e0a:	5fd6                	lw	t6,116(sp)
    80094e0c:	fe06                	sd	ra,312(sp)
    80094e0e:	7f9f 3862 0e42      	.insn	6, 0x0e4238627f9f
    80094e14:	560b3fc7          	.insn	4, 0x560b3fc7
    80094e18:	0c86ab93          	slti	s7,a3,200
    80094e1c:	f566                	sd	s9,168(sp)
    80094e1e:	0705                	addi	a4,a4,1
    80094e20:	f3a94ad3          	.insn	4, 0xf3a94ad3
    80094e24:	8e0e                	mv	t3,gp
    80094e26:	45d5                	li	a1,21
    80094e28:	f9202be3          	.insn	4, 0xf9202be3
    80094e2c:	58b359fb          	.insn	4, 0x58b359fb
    80094e30:	e699                	bnez	a3,80094e3e <begin_signature+0x3e3e>
    80094e32:	5b05                	li	s6,-31
    80094e34:	49cb9793          	.insn	4, 0x49cb9793
    80094e38:	7df1                	lui	s11,0xffffc
    80094e3a:	f22d                	bnez	a2,80094d9c <begin_signature+0x3d9c>
    80094e3c:	5a00                	lw	s0,48(a2)
    80094e3e:	2a9d                	addiw	s5,s5,7
    80094e40:	8cdf 16f8 de58      	.insn	6, 0xde5816f88cdf
    80094e46:	5329                	li	t1,-22
    80094e48:	8c8c                	.insn	2, 0x8c8c
    80094e4a:	cd75                	beqz	a0,80094f46 <begin_signature+0x3f46>
    80094e4c:	7f10                	ld	a2,56(a4)
    80094e4e:	6141                	addi	sp,sp,16
    80094e50:	7be6                	ld	s7,120(sp)
    80094e52:	c440                	sw	s0,12(s0)
    80094e54:	9a80                	.insn	2, 0x9a80
    80094e56:	78a8                	ld	a0,112(s1)
    80094e58:	15df fd94 f703      	.insn	6, 0xf703fd9415df
    80094e5e:	165d                	addi	a2,a2,-9
    80094e60:	9a1d5f8f          	.insn	4, 0x9a1d5f8f
    80094e64:	703e                	.insn	2, 0x703e
    80094e66:	60bd                	lui	ra,0xf
    80094e68:	b756                	fsd	fs5,424(sp)
    80094e6a:	aac1                	j	8009503a <end_signature+0x3a>
    80094e6c:	00bd                	addi	ra,ra,15 # f00f <_tbss_end+0xf00f>
    80094e6e:	0b11                	addi	s6,s6,4 # 9004 <_tbss_end+0x9004>
    80094e70:	0540                	addi	s0,sp,644
    80094e72:	8d4d541b          	.insn	4, 0x8d4d541b
    80094e76:	5b1d                	li	s6,-25
    80094e78:	fc39                	bnez	s0,80094dd6 <begin_signature+0x3dd6>
    80094e7a:	dff4                	sw	a3,124(a5)
    80094e7c:	1bca                	slli	s7,s7,0x32
    80094e7e:	2ced                	addiw	s9,s9,27
    80094e80:	3656                	fld	fa2,368(sp)
    80094e82:	b476                	fsd	ft9,40(sp)
    80094e84:	16d58583          	lb	a1,365(a1)
    80094e88:	b7fc                	fsd	fa5,232(a5)
    80094e8a:	88d8                	.insn	2, 0x88d8
    80094e8c:	dedf 4db7 bd50      	.insn	6, 0xbd504db7dedf
    80094e92:	9ab8                	.insn	2, 0x9ab8
    80094e94:	d51e                	sw	t2,168(sp)
    80094e96:	067d                	addi	a2,a2,31
    80094e98:	1e250e07          	.insn	4, 0x1e250e07
    80094e9c:	ab31                	j	800953b8 <end_signature+0x3b8>
    80094e9e:	74f0                	ld	a2,232(s1)
    80094ea0:	f004                	sd	s1,32(s0)
    80094ea2:	5035fc1b          	.insn	4, 0x5035fc1b
    80094ea6:	1195                	addi	gp,gp,-27
    80094ea8:	bc3d                	j	800948e6 <begin_signature+0x38e6>
    80094eaa:	aa94bfab          	.insn	4, 0xaa94bfab
    80094eae:	4ec1                	li	t4,16
    80094eb0:	56a2                	lw	a3,40(sp)
    80094eb2:	7bd2                	ld	s7,304(sp)
    80094eb4:	c85c                	sw	a5,20(s0)
    80094eb6:	4230                	lw	a2,64(a2)
    80094eb8:	2d1a                	fld	fs10,384(sp)
    80094eba:	fc29                	bnez	s0,80094e14 <begin_signature+0x3e14>
    80094ebc:	33168927          	.insn	4, 0x33168927
    80094ec0:	b2dd                	j	800948a6 <begin_signature+0x38a6>
    80094ec2:	400b3b43          	fmadd.s	fs6,fs6,ft0,fs0,rup
    80094ec6:	6860                	ld	s0,208(s0)
    80094ec8:	028a                	slli	t0,t0,0x2
    80094eca:	390dfa97          	auipc	s5,0x390df
    80094ece:	087e                	slli	a6,a6,0x1f
    80094ed0:	64b5e8ab          	.insn	4, 0x64b5e8ab
    80094ed4:	e6bc                	sd	a5,72(a3)
    80094ed6:	cb117da7          	.insn	4, 0xcb117da7
    80094eda:	3ee9                	addiw	t4,t4,-6
    80094edc:	8895                	andi	s1,s1,5
    80094ede:	377a                	fld	fa4,440(sp)
    80094ee0:	a986                	fsd	ft1,208(sp)
    80094ee2:	759c                	ld	a5,40(a1)
    80094ee4:	cf9c                	sw	a5,24(a5)
    80094ee6:	3550                	fld	fa2,168(a0)
    80094ee8:	921d                	srli	a2,a2,0x27
    80094eea:	9b880e97          	auipc	t4,0x9b880
    80094eee:	0108                	addi	a0,sp,128
    80094ef0:	0955                	addi	s2,s2,21
    80094ef2:	e006e4d3          	.insn	4, 0xe006e4d3
    80094ef6:	e4493c6f          	jal	s8,8002853a <label+0x23f04>
    80094efa:	bcd1                	j	800949ce <begin_signature+0x39ce>
    80094efc:	20e75f6f          	jal	t5,8010a10a <_end+0x716a6>
    80094f00:	0046                	c.slli	zero,0x11
    80094f02:	a715eb17          	auipc	s6,0xa715e
    80094f06:	389d                	addiw	a7,a7,-25 # ffffffffc1105fe7 <_end+0xffffffff4106d583>
    80094f08:	b5d9                	j	80094dce <begin_signature+0x3dce>
    80094f0a:	e4bd0f3b          	.insn	4, 0xe4bd0f3b
    80094f0e:	80221fc7          	fmsub.s	ft11,ft4,ft2,fa6,rtz
    80094f12:	f4337483          	.insn	4, 0xf4337483
    80094f16:	7b1a                	ld	s6,416(sp)
    80094f18:	ca5f 5cc0 5edb      	.insn	6, 0x5edb5cc0ca5f
    80094f1e:	03390393          	addi	t2,s2,51
    80094f22:	720c                	ld	a1,32(a2)
    80094f24:	52d5                	li	t0,-11
    80094f26:	47e0                	lw	s0,76(a5)
    80094f28:	8eb1                	xor	a3,a3,a2
    80094f2a:	386c                	fld	fa1,240(s0)
    80094f2c:	ed4a                	sd	s2,152(sp)
    80094f2e:	347a                	fld	fs0,440(sp)
    80094f30:	ba61                	j	800948c8 <begin_signature+0x38c8>
    80094f32:	7ed0932b          	.insn	4, 0x7ed0932b
    80094f36:	1a68                	addi	a0,sp,316
    80094f38:	aaa9                	j	80095092 <end_signature+0x92>
    80094f3a:	946d                	srai	s0,s0,0x3b
    80094f3c:	ace0                	fsd	fs0,216(s1)
    80094f3e:	21fd                	addiw	gp,gp,31
    80094f40:	d630                	sw	a2,104(a2)
    80094f42:	9209                	srli	a2,a2,0x22
    80094f44:	9e94                	.insn	2, 0x9e94
    80094f46:	4b60                	lw	s0,84(a4)
    80094f48:	fcbc                	sd	a5,120(s1)
    80094f4a:	b886                	fsd	ft1,112(sp)
    80094f4c:	6a38817b          	.insn	4, 0x6a38817b
    80094f50:	2044                	fld	fs1,128(s0)
    80094f52:	e1c8                	sd	a0,128(a1)
    80094f54:	4604                	lw	s1,8(a2)
    80094f56:	0c34                	addi	a3,sp,536
    80094f58:	d6c6                	sw	a7,108(sp)
    80094f5a:	12cc                	addi	a1,sp,356
    80094f5c:	13e4f54f          	fnmadd.d	fa0,fs1,ft10,ft2
    80094f60:	dcbffb37          	lui	s6,0xdcbff
    80094f64:	78f1                	lui	a7,0xffffc
    80094f66:	2c4e                	fld	fs8,208(sp)
    80094f68:	66c6                	ld	a3,80(sp)
    80094f6a:	b5f5                	j	80094e56 <begin_signature+0x3e56>
    80094f6c:	2ace                	fld	fs5,208(sp)
    80094f6e:	4229                	li	tp,10
    80094f70:	a410                	fsd	fa2,8(s0)
    80094f72:	2cad                	addiw	s9,s9,11
    80094f74:	bb02                	fsd	ft0,432(sp)
    80094f76:	24d4                	fld	fa3,136(s1)
    80094f78:	32a9                	addiw	t0,t0,-22
    80094f7a:	f594                	sd	a3,40(a1)
    80094f7c:	304d316f          	jal	sp,80168280 <_end+0xcf81c>
    80094f80:	678c                	ld	a1,8(a5)
    80094f82:	daa73747          	fmsub.d	fa4,fa4,fa0,fs11,rup
    80094f86:	6580                	ld	s0,8(a1)
    80094f88:	deaadd27          	.insn	4, 0xdeaadd27
    80094f8c:	d374                	sw	a3,100(a4)
    80094f8e:	0f1c                	addi	a5,sp,912
    80094f90:	fd40                	sd	s0,184(a0)
    80094f92:	f1d5                	bnez	a1,80094f36 <begin_signature+0x3f36>
    80094f94:	0ffa                	slli	t6,t6,0x1e
    80094f96:	31d1                	addiw	gp,gp,-12
    80094f98:	80d4                	.insn	2, 0x80d4
    80094f9a:	fd70                	sd	a2,248(a0)
    80094f9c:	23f6                	fld	ft7,344(sp)
    80094f9e:	642e                	ld	s0,200(sp)
    80094fa0:	ece0                	sd	s0,216(s1)
    80094fa2:	f4b0                	sd	a2,104(s1)
    80094fa4:	353e                	fld	fa0,488(sp)
    80094fa6:	7788                	ld	a0,40(a5)
    80094fa8:	55d0                	lw	a2,44(a1)
    80094faa:	51c1                	li	gp,-16
    80094fac:	7749                	lui	a4,0xffff2
    80094fae:	1565                	addi	a0,a0,-7 # 4ff9 <_tbss_end+0x4ff9>
    80094fb0:	c794                	sw	a3,8(a5)
    80094fb2:	2aa4                	fld	fs1,80(a3)
    80094fb4:	4f79                	li	t5,30
    80094fb6:	c54d6c2f          	.insn	4, 0xc54d6c2f
    80094fba:	686e                	ld	a6,216(sp)
    80094fbc:	61a6                	ld	gp,72(sp)
    80094fbe:	2ed1                	addiw	t4,t4,20 # 1b914efe <_tbss_end+0x1b914efe>
    80094fc0:	f9cd                	bnez	a1,80094f72 <begin_signature+0x3f72>
    80094fc2:	58c9                	li	a7,-14
    80094fc4:	4340                	lw	s0,4(a4)
    80094fc6:	1471                	addi	s0,s0,-4
    80094fc8:	3bc1                	addiw	s7,s7,-16
    80094fca:	a021                	j	80094fd2 <begin_signature+0x3fd2>
    80094fcc:	b8d8                	fsd	fa4,176(s1)
    80094fce:	315a                	fld	ft2,432(sp)
    80094fd0:	6dc4                	ld	s1,152(a1)
    80094fd2:	4d8c                	lw	a1,24(a1)
    80094fd4:	6afe                	ld	s5,472(sp)
    80094fd6:	3cc8                	fld	fa0,184(s1)
    80094fd8:	f36a                	sd	s10,416(sp)
    80094fda:	df50                	sw	a2,60(a4)
    80094fdc:	7ef9                	lui	t4,0xffffe
    80094fde:	1eda                	slli	t4,t4,0x36
    80094fe0:	b845                	j	80094890 <begin_signature+0x3890>
    80094fe2:	9b063783          	ld	a5,-1616(a2)
    80094fe6:	1410                	addi	a2,sp,544
    80094fe8:	47c6                	lw	a5,80(sp)
    80094fea:	722c                	ld	a1,96(a2)
    80094fec:	84b1                	srai	s1,s1,0xc
    80094fee:	8ab227ab          	.insn	4, 0x8ab227ab
    80094ff2:	fb7b96cf          	fnmadd.d	fa3,fs7,fs7,ft11,rtz
    80094ff6:	4956                	lw	s2,84(sp)
    80094ff8:	7f99                	lui	t6,0xfffe6
    80094ffa:	c919                	beqz	a0,80095010 <end_signature+0x10>
    80094ffc:	1981                	addi	s3,s3,-32 # ffffffffffff1fe0 <_end+0xffffffff7ff5957c>
    80094ffe:	715c                	ld	a5,160(a0)

Disassembly of section .rodata:

00000000800980c8 <rodata>:
    800980c8:	762d6d6f          	jal	s10,8016e82a <_end+0xd5dc6>
    800980cc:	7269                	lui	tp,0xffffa
    800980ce:	5b70                	lw	a2,116(a4)
    800980d0:	6465                	lui	s0,0x19
    800980d2:	5d0a6d6f          	jal	s10,8013e6a2 <_end+0xa5c3e>
    800980d6:	6465                	lui	s0,0x19
    800980d8:	6765                	lui	a4,0x19
    800980da:	206d0a5b          	.insn	4, 0x206d0a5b
    800980de:	203d                	.insn	2, 0x203d
    800980e0:	0a74                	addi	a3,sp,284
    800980e2:	6c5d                	lui	s8,0x17
    800980e4:	7261                	lui	tp,0xffff8
    800980e6:	6e65                	lui	t3,0x19
    800980e8:	5f696e73          	csrrsi	t3,0x5f6,18
    800980ec:	616c                	ld	a1,192(a0)
    800980ee:	6f74                	ld	a3,216(a4)
    800980f0:	6f6e                	ld	t5,216(sp)
    800980f2:	7469                	lui	s0,0xffffa
    800980f4:	74727563          	bgeu	tp,t2,8009883e <rodata+0x776>
    800980f8:	3030                	fld	fa2,96(s0)
    800980fa:	3330                	fld	fa2,96(a4)
    800980fc:	3d20                	fld	fs0,120(a0)
    800980fe:	7320                	ld	s0,96(a4)
    80098100:	735f6e6f          	jal	t3,8018f034 <_end+0xf65d0>
    80098104:	0a726567          	.insn	4, 0x0a726567
    80098108:	3d20                	fld	fs0,120(a0)
    8009810a:	6520                	ld	s0,72(a0)
    8009810c:	745f7573          	csrrci	a0,0x745,30
    80098110:	6375                	lui	t1,0x1d
    80098112:	320a                	fld	ft4,160(sp)
    80098114:	2c78                	fld	fa4,216(s0)
    80098116:	7831                	lui	a6,0xfffec
    80098118:	7261                	lui	tp,0xffff8
    8009811a:	5f74                	lw	a3,124(a4)
    8009811c:	6f6d                	lui	t5,0x1b
    8009811e:	7374                	ld	a3,224(a4)
    80098120:	6c65                	lui	s8,0x19
    80098122:	6e64                	ld	s1,216(a2)
    80098124:	6861                	lui	a6,0x18
    80098126:	705f 7565 5472      	.insn	6, 0x54727565705f
    8009812c:	3d20                	fld	fs0,120(a0)
    8009812e:	7220                	ld	s0,96(a2)
    80098130:	7374                	ld	a3,224(a4)
    80098132:	655f 6f64 0a63      	.insn	6, 0x0a636f64655f
    80098138:	6472                	ld	s0,280(sp)
    8009813a:	6164                	ld	s1,192(a0)
    8009813c:	745f 6172 3231      	.insn	6, 0x32316172745f
    80098142:	3d20                	fld	fs0,120(a0)
    80098144:	7320                	ld	s0,96(a4)
    80098146:	34386573          	csrrsi	a0,mtval,16
    8009814a:	3336                	fld	ft6,360(sp)
    8009814c:	3438                	fld	fa4,104(s0)
    8009814e:	6c743437          	lui	s0,0x6c743
    80098152:	6175                	addi	sp,sp,368
    80098154:	6566                	ld	a0,88(sp)
    80098156:	0a64                	addi	s1,sp,284
    80098158:	616d                	addi	sp,sp,240
    8009815a:	6772                	ld	a4,280(sp)
    8009815c:	5f70726f          	jal	tp,8009ff52 <_end+0x74ee>
    80098160:	3d20                	fld	fs0,120(a0)
    80098162:	7420                	ld	s0,104(s0)
    80098164:	7869                	lui	a6,0xffffa
    80098166:	5f65                	li	t5,-7
    80098168:	656c                	ld	a1,200(a0)
    8009816a:	0a64                	addi	s1,sp,284
    8009816c:	7565                	lui	a0,0xffff9
    8009816e:	5472                	lw	s0,60(sp)
    80098170:	6e20                	ld	s0,88(a2)
    80098172:	6174696f          	jal	s2,800def88 <_end+0x46524>
    80098176:	0a5b6567          	.insn	4, 0x0a5b6567
    8009817a:	3935                	addiw	s2,s2,-19
    8009817c:	3430                	fld	fa2,104(s0)
    8009817e:	3d20                	fld	fs0,120(a0)
    80098180:	7374                	ld	a3,224(a4)
    80098182:	696e                	ld	s2,216(sp)
    80098184:	612d                	addi	sp,sp,224
    80098186:	6e2d6973          	csrrsi	s2,0x6e2,26
    8009818a:	6374696f          	jal	s2,800defc0 <_end+0x4655c>
    8009818e:	7275                	lui	tp,0xffffd
    80098190:	6275                	lui	tp,0x1d
    80098192:	7269                	lui	tp,0xffffa
    80098194:	7374                	ld	a3,224(a4)
    80098196:	6469                	lui	s0,0x1a
    80098198:	7265                	lui	tp,0xffff9
    8009819a:	5d0a                	lw	s10,160(sp)
    8009819c:	6f6e                	ld	t5,216(sp)
    8009819e:	7469                	lui	s0,0xffffa
    800981a0:	3d20                	fld	fs0,120(a0)
    800981a2:	7320                	ld	s0,96(a4)
    800981a4:	7379                	lui	t1,0xffffe
    800981a6:	6c5f 7379 6c5f      	.insn	6, 0x6c5f73796c5f
    800981ac:	7265                	lui	tp,0xffff9
    800981ae:	300a                	fld	ft0,160(sp)
    800981b0:	3d20                	fld	fs0,120(a0)
    800981b2:	7220                	ld	s0,96(a2)
    800981b4:	732e6373          	csrrsi	t1,mhpmevent18h,28
    800981b8:	7276                	ld	tp,376(sp)
    800981ba:	6c5f 7265 300a      	.insn	6, 0x300a72656c5f
    800981c0:	726c                	ld	a1,224(a2)
    800981c2:	6374                	ld	a3,192(a4)
    800981c4:	692e                	ld	s2,200(sp)
    800981c6:	3332                	fld	ft6,296(sp)
    800981c8:	656c                	ld	a1,200(a0)
    800981ca:	0a72                	slli	s4,s4,0x1c
    800981cc:	2030                	fld	fa2,64(s0)
    800981ce:	203d                	.insn	2, 0x203d
    800981d0:	32692e63          	.insn	4, 0x32692e63
    800981d4:	5f727633          	.insn	4, 0x5f727633
    800981d8:	203d                	.insn	2, 0x203d
    800981da:	7465                	lui	s0,0xffff9
    800981dc:	7075                	c.lui	zero,0xffffd
    800981de:	6f6d                	lui	t5,0x1b
    800981e0:	5f72                	lw	t5,60(sp)
    800981e2:	656c                	ld	a1,200(a0)
    800981e4:	0a72                	slli	s4,s4,0x1c
    800981e6:	2031                	.insn	2, 0x2031
    800981e8:	6174                	ld	a3,192(a0)
    800981ea:	2e64                	fld	fs1,216(a2)
    800981ec:	3269                	addiw	tp,tp,-6 # ffffffffffff8ffa <_end+0xffffffff7ff60596>
    800981ee:	72657633          	.insn	4, 0x72657633
    800981f2:	380a                	fld	fa6,160(sp)
    800981f4:	3d20                	fld	fs0,120(a0)
    800981f6:	6120                	ld	s0,64(a0)
    800981f8:	692e                	ld	s2,200(sp)
    800981fa:	3332                	fld	ft6,296(sp)
    800981fc:	7276                	ld	tp,376(sp)
    800981fe:	6c5f 3d20 6520      	.insn	6, 0x65203d206c5f
    80098204:	66656e63          	bltu	a0,t1,80098880 <rodata+0x7b8>
    80098208:	7276                	ld	tp,376(sp)
    8009820a:	6c5f 7265 360a      	.insn	6, 0x360a72656c5f
    80098210:	6d70                	ld	a2,216(a0)
    80098212:	692e636f          	jal	t1,8017e8a4 <_end+0xe5e40>
    80098216:	3634                	fld	fa3,104(a2)
    80098218:	340a                	fld	fs0,160(sp)
    8009821a:	3d20                	fld	fs0,120(a0)
    8009821c:	6520                	ld	s0,72(a0)
    8009821e:	7574                	ld	a3,232(a0)
    80098220:	3634                	fld	fa3,104(a2)
    80098222:	7276                	ld	tp,376(sp)
    80098224:	6c5f 7265 203d      	.insn	6, 0x203d72656c5f
    8009822a:	7461                	lui	s0,0xffff8
    8009822c:	6461                	lui	s0,0x18
    8009822e:	692e                	ld	s2,200(sp)
    80098230:	5f72                	lw	t5,60(sp)
    80098232:	656c                	ld	a1,200(a0)
    80098234:	0a72                	slli	s4,s4,0x1c
    80098236:	2035                	.insn	2, 0x2035
    80098238:	6261                	lui	tp,0x18
    8009823a:	2e7a                	fld	ft8,408(sp)
    8009823c:	3269                	addiw	tp,tp,-6 # 17ffa <_tbss_end+0x17ffa>
    8009823e:	656c7633          	.insn	4, 0x656c7633
    80098242:	0a72                	slli	s4,s4,0x1c
    80098244:	2030                	fld	fa2,64(s0)
    80098246:	203d                	.insn	2, 0x203d
    80098248:	2e7a                	fld	ft8,408(sp)
    8009824a:	3469                	addiw	s0,s0,-6 # 17ffa <_tbss_end+0x17ffa>
    8009824c:	7636                	ld	a2,360(sp)
    8009824e:	5f72                	lw	t5,60(sp)
    80098250:	0a72                	slli	s4,s4,0x1c
    80098252:	2030                	fld	fa2,64(s0)
    80098254:	203d                	.insn	2, 0x203d
    80098256:	6261                	lui	tp,0x18
    80098258:	3269                	addiw	tp,tp,-6 # 17ffa <_tbss_end+0x17ffa>
    8009825a:	5f727633          	.insn	4, 0x5f727633
    8009825e:	656c                	ld	a1,200(a0)
    80098260:	2030                	fld	fa2,64(s0)
    80098262:	203d                	.insn	2, 0x203d
    80098264:	6262                	ld	tp,24(sp)
    80098266:	2e7a                	fld	ft8,408(sp)
    80098268:	7636                	ld	a2,360(sp)
    8009826a:	5f72                	lw	t5,60(sp)
    8009826c:	656c                	ld	a1,200(a0)
    8009826e:	0a72                	slli	s4,s4,0x1c
    80098270:	203d                	.insn	2, 0x203d
    80098272:	6262                	ld	tp,24(sp)
    80098274:	2e7a                	fld	ft8,408(sp)
    80098276:	3469                	addiw	s0,s0,-6
    80098278:	5f72                	lw	t5,60(sp)
    8009827a:	656c                	ld	a1,200(a0)
    8009827c:	0a72                	slli	s4,s4,0x1c
    8009827e:	2030                	fld	fa2,64(s0)
    80098280:	2e7a6263          	bltu	s4,t2,80098564 <rodata+0x49c>
    80098284:	3269                	addiw	tp,tp,-6 # fffffffffffffffa <_end+0xffffffff7ff67596>
    80098286:	656c7633          	.insn	4, 0x656c7633
    8009828a:	0a72                	slli	s4,s4,0x1c
    8009828c:	2030                	fld	fa2,64(s0)
    8009828e:	203d                	.insn	2, 0x203d
    80098290:	2e7a                	fld	ft8,408(sp)
    80098292:	3269                	addiw	tp,tp,-6 # fffffffffffffffa <_end+0xffffffff7ff67596>
    80098294:	5f727633          	.insn	4, 0x5f727633
    80098298:	0a72                	slli	s4,s4,0x1c
    8009829a:	2030                	fld	fa2,64(s0)
    8009829c:	203d                	.insn	2, 0x203d
    8009829e:	32696273          	csrrsi	tp,mhpmevent6,18
    800982a2:	5f727633          	.insn	4, 0x5f727633
    800982a6:	656c                	ld	a1,200(a0)
    800982a8:	2030                	fld	fa2,64(s0)
    800982aa:	203d                	.insn	2, 0x203d
    800982ac:	6265                	lui	tp,0x19
    800982ae:	2e7a                	fld	ft8,408(sp)
    800982b0:	7636                	ld	a2,360(sp)
    800982b2:	5f72                	lw	t5,60(sp)
    800982b4:	656c                	ld	a1,200(a0)
    800982b6:	0a72                	slli	s4,s4,0x1c
    800982b8:	203d                	.insn	2, 0x203d
    800982ba:	6265                	lui	tp,0x19
    800982bc:	2e7a                	fld	ft8,408(sp)
    800982be:	3469                	addiw	s0,s0,-6
    800982c0:	5f72                	lw	t5,60(sp)
    800982c2:	656c                	ld	a1,200(a0)
    800982c4:	0a72                	slli	s4,s4,0x1c
    800982c6:	2030                	fld	fa2,64(s0)
    800982c8:	6266                	ld	tp,88(sp)
    800982ca:	2e7a                	fld	ft8,408(sp)
    800982cc:	3269                	addiw	tp,tp,-6 # 18ffa <_tbss_end+0x18ffa>
    800982ce:	656c7633          	.insn	4, 0x656c7633
    800982d2:	0a72                	slli	s4,s4,0x1c
    800982d4:	2030                	fld	fa2,64(s0)
    800982d6:	203d                	.insn	2, 0x203d
    800982d8:	2e7a                	fld	ft8,408(sp)
    800982da:	3469                	addiw	s0,s0,-6
    800982dc:	7636                	ld	a2,360(sp)
    800982de:	5f72                	lw	t5,60(sp)
    800982e0:	0a72                	slli	s4,s4,0x1c
    800982e2:	2030                	fld	fa2,64(s0)
    800982e4:	203d                	.insn	2, 0x203d
    800982e6:	6266                	ld	tp,88(sp)
    800982e8:	3469                	addiw	s0,s0,-6
    800982ea:	7636                	ld	a2,360(sp)
    800982ec:	5f72                	lw	t5,60(sp)
    800982ee:	656c                	ld	a1,200(a0)
    800982f0:	2030                	fld	fa2,64(s0)
    800982f2:	203d                	.insn	2, 0x203d
    800982f4:	626d                	lui	tp,0x1b
    800982f6:	2e7a                	fld	ft8,408(sp)
    800982f8:	5f727633          	.insn	4, 0x5f727633
    800982fc:	656c                	ld	a1,200(a0)
    800982fe:	0a72                	slli	s4,s4,0x1c
    80098300:	203d                	.insn	2, 0x203d
    80098302:	6270                	ld	a2,192(a2)
    80098304:	2e7a                	fld	ft8,408(sp)
    80098306:	3269                	addiw	tp,tp,-6 # 1affa <_tbss_end+0x1affa>
    80098308:	5f72                	lw	t5,60(sp)
    8009830a:	656c                	ld	a1,200(a0)
    8009830c:	0a72                	slli	s4,s4,0x1c
    8009830e:	2030                	fld	fa2,64(s0)
    80098310:	6270                	ld	a2,192(a2)
    80098312:	2e7a                	fld	ft8,408(sp)
    80098314:	3469                	addiw	s0,s0,-6
    80098316:	7636                	ld	a2,360(sp)
    80098318:	656c                	ld	a1,200(a0)
    8009831a:	0a72                	slli	s4,s4,0x1c
    8009831c:	2030                	fld	fa2,64(s0)
    8009831e:	203d                	.insn	2, 0x203d
    80098320:	2e7a                	fld	ft8,408(sp)
    80098322:	3269                	addiw	tp,tp,-6 # fffffffffffffffa <_end+0xffffffff7ff67596>
    80098324:	5f727633          	.insn	4, 0x5f727633
    80098328:	0a72                	slli	s4,s4,0x1c
    8009832a:	2030                	fld	fa2,64(s0)
    8009832c:	203d                	.insn	2, 0x203d
    8009832e:	6272                	ld	tp,280(sp)
    80098330:	3469                	addiw	s0,s0,-6
    80098332:	7636                	ld	a2,360(sp)
    80098334:	5f72                	lw	t5,60(sp)
    80098336:	656c                	ld	a1,200(a0)
    80098338:	2030                	fld	fa2,64(s0)
    8009833a:	203d                	.insn	2, 0x203d
    8009833c:	6272                	ld	tp,280(sp)
    8009833e:	2e7a                	fld	ft8,408(sp)
    80098340:	5f727633          	.insn	4, 0x5f727633
    80098344:	656c                	ld	a1,200(a0)
    80098346:	0a72                	slli	s4,s4,0x1c
    80098348:	203d                	.insn	2, 0x203d
    8009834a:	6274                	ld	a3,192(a2)
    8009834c:	2e7a                	fld	ft8,408(sp)
    8009834e:	3269                	addiw	tp,tp,-6 # fffffffffffffffa <_end+0xffffffff7ff67596>
    80098350:	5f72                	lw	t5,60(sp)
    80098352:	656c                	ld	a1,200(a0)
    80098354:	0a72                	slli	s4,s4,0x1c
    80098356:	2030                	fld	fa2,64(s0)
    80098358:	6274                	ld	a3,192(a2)
    8009835a:	2e7a                	fld	ft8,408(sp)
    8009835c:	3469                	addiw	s0,s0,-6
    8009835e:	7636                	ld	a2,360(sp)
    80098360:	656c                	ld	a1,200(a0)
    80098362:	0a72                	slli	s4,s4,0x1c
    80098364:	2030                	fld	fa2,64(s0)
    80098366:	203d                	.insn	2, 0x203d
    80098368:	203d                	.insn	2, 0x203d
    8009836a:	326d                	addiw	tp,tp,-5 # fffffffffffffffb <_end+0xffffffff7ff67597>
    8009836c:	5f727633          	.insn	4, 0x5f727633
    80098370:	5f72                	lw	t5,60(sp)
    80098372:	656c                	ld	a1,200(a0)
    80098374:	0a72                	slli	s4,s4,0x1c
    80098376:	2030                	fld	fa2,64(s0)
    80098378:	2030                	fld	fa2,64(s0)
    8009837a:	203d                	.insn	2, 0x203d
    8009837c:	346d                	addiw	s0,s0,-5
    8009837e:	7636                	ld	a2,360(sp)
    80098380:	5f727633          	.insn	4, 0x5f727633
    80098384:	656c                	ld	a1,200(a0)
    80098386:	0a72                	slli	s4,s4,0x1c
    80098388:	0a72                	slli	s4,s4,0x1c
    8009838a:	2030                	fld	fa2,64(s0)
    8009838c:	203d                	.insn	2, 0x203d
    8009838e:	3261                	addiw	tp,tp,-8 # fffffffffffffff8 <_end+0xffffffff7ff67594>
    80098390:	3461                	addiw	s0,s0,-8
    80098392:	7636                	ld	a2,360(sp)
    80098394:	5f72                	lw	t5,60(sp)
    80098396:	656c                	ld	a1,200(a0)
    80098398:	656c                	ld	a1,200(a0)
    8009839a:	0a72                	slli	s4,s4,0x1c
    8009839c:	2030                	fld	fa2,64(s0)
    8009839e:	203d                	.insn	2, 0x203d
    800983a0:	203d                	.insn	2, 0x203d
    800983a2:	3266                	fld	ft4,120(sp)
    800983a4:	5f727633          	.insn	4, 0x5f727633
    800983a8:	5f72                	lw	t5,60(sp)
    800983aa:	656c                	ld	a1,200(a0)
    800983ac:	0a72                	slli	s4,s4,0x1c
    800983ae:	2030                	fld	fa2,64(s0)
    800983b0:	2030                	fld	fa2,64(s0)
    800983b2:	203d                	.insn	2, 0x203d
    800983b4:	3466                	fld	fs0,120(sp)
    800983b6:	7636                	ld	a2,360(sp)
    800983b8:	5f727633          	.insn	4, 0x5f727633
    800983bc:	656c                	ld	a1,200(a0)
    800983be:	0a72                	slli	s4,s4,0x1c
    800983c0:	0a72                	slli	s4,s4,0x1c
    800983c2:	2030                	fld	fa2,64(s0)
    800983c4:	203d                	.insn	2, 0x203d
    800983c6:	3264                	fld	fs1,224(a2)
    800983c8:	3464                	fld	fs1,232(s0)
    800983ca:	7636                	ld	a2,360(sp)
    800983cc:	5f72                	lw	t5,60(sp)
    800983ce:	656c                	ld	a1,200(a0)
    800983d0:	656c                	ld	a1,200(a0)
    800983d2:	0a72                	slli	s4,s4,0x1c
    800983d4:	2030                	fld	fa2,64(s0)
    800983d6:	203d                	.insn	2, 0x203d
    800983d8:	7472                	ld	s0,312(sp)
    800983da:	76632e63          	.insn	4, 0x76632e63
    800983de:	5f72                	lw	t5,60(sp)
    800983e0:	7265                	lui	tp,0xffff9
    800983e2:	300a                	fld	ft0,160(sp)
    800983e4:	3d20                	fld	fs0,120(a0)
    800983e6:	6c20                	ld	s0,88(s0)
    800983e8:	632e636f          	jal	t1,8017ea1a <_end+0xe5fb6>
    800983ec:	7276                	ld	tp,376(sp)
    800983ee:	6c5f 3d20 6520      	.insn	6, 0x65203d206c5f
    800983f4:	7574                	ld	a3,232(a0)
    800983f6:	6d70                	ld	a2,216(a0)
    800983f8:	7276                	ld	tp,376(sp)
    800983fa:	6c5f 7265 300a      	.insn	6, 0x300a72656c5f
    80098400:	2030                	fld	fa2,64(s0)
    80098402:	203d                	.insn	2, 0x203d
    80098404:	7370                	ld	a2,224(a4)
    80098406:	632e                	ld	t1,200(sp)
    80098408:	5f727663          	bgeu	tp,s7,800989f4 <rodata+0x92c>
    8009840c:	656c                	ld	a1,200(a0)
    8009840e:	0a72                	slli	s4,s4,0x1c
    80098410:	3d20                	fld	fs0,120(a0)
    80098412:	6120                	ld	s0,64(a0)
    80098414:	6174                	ld	a3,192(a0)
    80098416:	2e64                	fld	fs1,216(a2)
    80098418:	7276                	ld	tp,376(sp)
    8009841a:	6c5f 7265 300a      	.insn	6, 0x300a72656c5f
    80098420:	6120                	ld	s0,64(a0)
    80098422:	6174                	ld	a3,192(a0)
    80098424:	6664                	ld	s1,200(a2)
    80098426:	632e                	ld	t1,200(sp)
    80098428:	6c5f 7265 300a      	.insn	6, 0x300a72656c5f
    8009842e:	3d20                	fld	fs0,120(a0)
    80098430:	632e636f          	jal	t1,8017ea62 <_end+0xe5ffe>
    80098434:	3332                	fld	ft6,296(sp)
    80098436:	7276                	ld	tp,376(sp)
    80098438:	3d20                	fld	fs0,120(a0)
    8009843a:	6520                	ld	s0,72(a0)
    8009843c:	7574                	ld	a3,232(a0)
    8009843e:	6d70                	ld	a2,216(a0)
    80098440:	7276                	ld	tp,376(sp)
    80098442:	6c5f 7265 300a      	.insn	6, 0x300a72656c5f
    80098448:	726c                	ld	a1,224(a2)
    8009844a:	6374                	ld	a3,192(a4)
    8009844c:	632e                	ld	t1,200(sp)
    8009844e:	3332                	fld	ft6,296(sp)
    80098450:	656c                	ld	a1,200(a0)
    80098452:	0a72                	slli	s4,s4,0x1c
    80098454:	2030                	fld	fa2,64(s0)
    80098456:	203d                	.insn	2, 0x203d
    80098458:	2e66                	fld	ft8,88(sp)
    8009845a:	76333263          	.insn	4, 0x76333263
    8009845e:	5f72                	lw	t5,60(sp)
    80098460:	2030                	fld	fa2,64(s0)
    80098462:	203d                	.insn	2, 0x203d
    80098464:	7461                	lui	s0,0xffff8
    80098466:	6461                	lui	s0,0x18
    80098468:	7636                	ld	a2,360(sp)
    8009846a:	5f72                	lw	t5,60(sp)
    8009846c:	656c                	ld	a1,200(a0)
    8009846e:	0a72                	slli	s4,s4,0x1c
    80098470:	7075                	c.lui	zero,0xffffd
    80098472:	6f6d                	lui	t5,0x1b
    80098474:	34632e63          	.insn	4, 0x34632e63
    80098478:	0a72                	slli	s4,s4,0x1c
    8009847a:	2030                	fld	fa2,64(s0)
    8009847c:	203d                	.insn	2, 0x203d
    8009847e:	7465                	lui	s0,0xffff9
    80098480:	76363463          	.insn	4, 0x76363463
    80098484:	5f72                	lw	t5,60(sp)
    80098486:	656c                	ld	a1,200(a0)
    80098488:	3d20                	fld	fs0,120(a0)
    8009848a:	6120                	ld	s0,64(a0)
    8009848c:	6174                	ld	a3,192(a0)
    8009848e:	2e64                	fld	fs1,216(a2)
    80098490:	6174                	ld	a3,192(a0)
    80098492:	5b666c6f          	jal	s8,800fea48 <_end+0x65fe4>
    80098496:	300a                	fld	ft0,160(sp)
    80098498:	696e                	ld	s2,216(sp)
    8009849a:	6e64                	ld	s1,216(a2)
    8009849c:	6f75                	lui	t5,0x1d
    8009849e:	2d72                	fld	fs10,280(sp)
    800984a0:	203d                	.insn	2, 0x203d
    800984a2:	6e65                	lui	t3,0x19
    800984a4:	0a72                	slli	s4,s4,0x1c
    800984a6:	675d                	lui	a4,0x17
    800984a8:	7a20                	ld	s0,112(a2)
    800984aa:	7274                	ld	a3,224(a2)
    800984ac:	300a                	fld	ft0,160(sp)
    800984ae:	2031                	.insn	2, 0x2031
    800984b0:	646e                	ld	s0,216(sp)
    800984b2:	0a72                	slli	s4,s4,0x1c
    800984b4:	3130                	fld	fa2,96(a0)
    800984b6:	3d20                	fld	fs0,120(a0)
    800984b8:	7275                	lui	tp,0xffffd
    800984ba:	300a                	fld	ft0,160(sp)
    800984bc:	2031                	.insn	2, 0x2031
    800984be:	203d                	.insn	2, 0x203d
    800984c0:	0a72                	slli	s4,s4,0x1c
    800984c2:	3130                	fld	fa2,96(a0)
    800984c4:	3d20                	fld	fs0,120(a0)
    800984c6:	7020                	ld	s0,96(s0)
    800984c8:	300a                	fld	ft0,160(sp)
    800984ca:	2031                	.insn	2, 0x2031
    800984cc:	203d                	.insn	2, 0x203d
    800984ce:	6d6d                	lui	s10,0x1b
    800984d0:	682d                	lui	a6,0xb
    800984d2:	72616e63          	bltu	sp,t1,80098c0e <_end+0x1aa>
    800984d6:	5b62                	lw	s6,56(sp)
    800984d8:	6c5d                	lui	s8,0x17
    800984da:	6e74726f          	jal	tp,800e03c0 <_end+0x4795c>
    800984de:	6172636f          	jal	t1,800bf2f4 <_end+0x26890>
    800984e2:	61636b77          	.insn	4, 0x61636b77
    800984e6:	0a62                	slli	s4,s4,0x18
    800984e8:	6162                	ld	sp,24(sp)
    800984ea:	6f62                	ld	t5,24(sp)
    800984ec:	7072                	.insn	2, 0x7072
    800984ee:	642d                	lui	s0,0xb
    800984f0:	3d20                	fld	fs0,120(a0)
    800984f2:	7920                	ld	s0,112(a0)
    800984f4:	6974                	ld	a3,208(a0)
    800984f6:	696c                	ld	a1,208(a0)
    800984f8:	626c6f63          	bltu	s8,t1,80098b36 <_end+0xd2>
    800984fc:	350a                	fld	fa0,160(sp)
    800984fe:	302e                	fld	ft0,232(sp)
    80098500:	203d                	.insn	2, 0x203d
    80098502:	7a65                	lui	s4,0xffff9
    80098504:	7369                	lui	t1,0xffffa
    80098506:	6b2d                	lui	s6,0xb
    80098508:	6375                	lui	t1,0x1d
    8009850a:	7265                	lui	tp,0xffff9
    8009850c:	20370a5b          	.insn	4, 0x20370a5b
    80098510:	6f70                	ld	a2,216(a4)
    80098512:	6e2d                	lui	t3,0xb
    80098514:	7273696f          	jal	s2,800cf43a <_end+0x369d6>
    80098518:	0a72                	slli	s4,s4,0x1c
    8009851a:	735d                	lui	t1,0xffff7
    8009851c:	6f6e                	ld	t5,216(sp)
    8009851e:	7469                	lui	s0,0xffffa
    80098520:	6f6e                	ld	t5,216(sp)
    80098522:	7369                	lui	t1,0xffffa
    80098524:	7572                	ld	a0,312(sp)
    80098526:	65206563          	bltu	zero,s2,80098b70 <_end+0x10c>
    8009852a:	626c                	ld	a1,192(a2)
    8009852c:	6e61                	lui	t3,0x18
    8009852e:	2d65                	addiw	s10,s10,25 # 1b019 <_tbss_end+0x1b019>
    80098530:	650a                	ld	a0,128(sp)
    80098532:	46616c73          	csrrsi	s8,0x466,2
    80098536:	3d20                	fld	fs0,120(a0)
    80098538:	7273696f          	jal	s2,800cf45e <_end+0x369fa>
    8009853c:	6375                	lui	t1,0x1d
    8009853e:	7265                	lui	tp,0xffff9
    80098540:	6820                	ld	s0,80(s0)
    80098542:	7074                	ld	a3,224(s0)
    80098544:	6465                	lui	s0,0x19
    80098546:	6e2d                	lui	t3,0xb
    80098548:	0a726563          	bltu	tp,t2,800985f2 <rodata+0x52a>
    8009854c:	3130                	fld	fa2,96(a0)
    8009854e:	3d20                	fld	fs0,120(a0)
    80098550:	6f6e2d63          	.insn	4, 0x6f6e2d63
    80098554:	7369                	lui	t1,0xffffa
    80098556:	7572                	ld	a0,312(sp)
    80098558:	2035                	.insn	2, 0x2035
    8009855a:	203d                	.insn	2, 0x203d
    8009855c:	616c6c73          	csrrsi	s8,0x616,24
    80098560:	63657373          	csrrci	t1,0x636,10
    80098564:	0a5b6163          	bltu	s6,t0,80098606 <rodata+0x53e>
    80098568:	6f6e                	ld	t5,216(sp)
    8009856a:	7469                	lui	s0,0xffffa
    8009856c:	2d736563          	bltu	t1,s7,80098836 <rodata+0x76e>
    80098570:	696e                	ld	s2,216(sp)
    80098572:	0a626567          	.insn	4, 0x0a626567
    80098576:	735d                	lui	t1,0xffff7
    80098578:	7475                	lui	s0,0xffffd
    8009857a:	6e61                	lui	t3,0x18
    8009857c:	5f736967          	.insn	4, 0x5f736967
    80098580:	7838                	ld	a4,112(s0)
    80098582:	2030                	fld	fa2,64(s0)
    80098584:	203d                	.insn	2, 0x203d
    80098586:	7265                	lui	tp,0xffff9
    80098588:	302c                	fld	fa1,96(s0)
    8009858a:	3030                	fld	fa2,96(s0)
    8009858c:	3931                	addiw	s2,s2,-20
    8009858e:	3030                	fld	fa2,96(s0)
    80098590:	3530                	fld	fa2,104(a0)
    80098592:	3039                	.insn	2, 0x3039
    80098594:	3830                	fld	fa2,112(s0)
    80098596:	3078                	fld	fa4,224(s0)
    80098598:	770a5b63          	bge	s4,a6,80098d0e <_end+0x2aa>
    8009859c:	2c72                	fld	fs8,280(sp)
    8009859e:	3030                	fld	fa2,96(s0)
    800985a0:	7469                	lui	s0,0xffffa
    800985a2:	2d736563          	bltu	t1,s7,8009886c <rodata+0x7a4>
    800985a6:	7372                	ld	t1,312(sp)
    800985a8:	0a736563          	bltu	t1,t2,80098652 <rodata+0x58a>
    800985ac:	735d                	lui	t1,0xffff7
    800985ae:	6f6e                	ld	t5,216(sp)
    800985b0:	3d20                	fld	fs0,120(a0)
    800985b2:	7320                	ld	s0,96(a4)
    800985b4:	6f6e                	ld	t5,216(sp)
    800985b6:	7469                	lui	s0,0xffffa
    800985b8:	3a30                	fld	fa2,112(a2)
    800985ba:	3030                	fld	fa2,96(s0)
    800985bc:	3031                	.insn	2, 0x3031
    800985be:	3078                	fld	fa4,224(s0)
    800985c0:	3078                	fld	fa4,224(s0)
    800985c2:	2c20                	fld	fs0,88(s0)
    800985c4:	6666                	ld	a2,88(sp)
    800985c6:	7864                	ld	s1,240(s0)
    800985c8:	7835                	lui	a6,0xfffed
    800985ca:	2030                	fld	fa2,64(s0)
    800985cc:	352c                	fld	fa1,104(a0)
    800985ce:	3332                	fld	ft6,296(sp)
    800985d0:	6666                	ld	a2,88(sp)
    800985d2:	7866                	ld	a6,120(sp)
    800985d4:	3a30                	fld	fa2,112(a2)
    800985d6:	3030                	fld	fa2,96(s0)
    800985d8:	2d66                	fld	fs10,88(sp)
    800985da:	6572                	ld	a0,280(sp)
    800985dc:	0a5b7573          	csrrci	a0,0xa5,22
    800985e0:	696f6e73          	csrrsi	t3,0x696,30
    800985e4:	6374                	ld	a3,192(a4)
    800985e6:	756e                	ld	a0,248(sp)
    800985e8:	3120                	fld	fs0,96(a0)
    800985ea:	66756e63          	bltu	a0,t2,80098c66 <_end+0x202>
    800985ee:	5d0a                	lw	s10,160(sp)
    800985f0:	6164                	ld	s1,192(a0)
    800985f2:	3a22                	fld	fs4,40(sp)
    800985f4:	7b30                	ld	a2,112(a4)
    800985f6:	3d20                	fld	fs0,120(a0)
    800985f8:	302c                	fld	fa1,96(s0)
    800985fa:	2c78                	fld	fa4,216(s0)
    800985fc:	7830                	ld	a2,112(s0)
    800985fe:	6420                	ld	s0,72(s0)
    80098600:	0a5b7377          	.insn	4, 0x0a5b7377
    80098604:	227d                	addiw	tp,tp,31 # ffffffffffff901f <_end+0xffffffff7ff605bb>
    80098606:	7830                	ld	a2,112(s0)
    80098608:	7269                	lui	tp,0xffffa
    8009860a:	2d70                	fld	fa2,216(a0)
    8009860c:	6368                	ld	a0,192(a4)
    8009860e:	6974                	ld	a3,208(a0)
    80098610:	735d                	lui	t1,0xffff7
    80098612:	6465                	lui	s0,0x19
    80098614:	762d6d6f          	jal	s10,8016ed76 <_end+0xd6312>
    80098618:	685f 7463 7769      	.insn	6, 0x77697463685f
    8009861e:	3d200a73          	.insn	4, 0x3d200a73
    80098622:	7320                	ld	s0,96(a4)
    80098624:	6465                	lui	s0,0x19
    80098626:	6e756d6f          	jal	s10,800ef50c <_end+0x56aa8>
    8009862a:	650a                	ld	a0,128(sp)
    8009862c:	46616c73          	csrrsi	s8,0x466,2
    80098630:	6368                	ld	a0,192(a4)
    80098632:	6974                	ld	a3,208(a0)
    80098634:	6d5f7377          	.insn	4, 0x6d5f7377
    80098638:	20300a5b          	.insn	4, 0x20300a5b
    8009863c:	203d                	.insn	2, 0x203d
    8009863e:	655d6573          	csrrsi	a0,hviph,26
    80098642:	6368                	ld	a0,192(a4)
    80098644:	6361                	lui	t1,0x18
    80098646:	692d                	lui	s2,0xb
    80098648:	616c                	ld	a1,192(a0)
    8009864a:	756d5f63          	bge	s10,s6,80098da8 <_end+0x344>
    8009864e:	0a6e                	slli	s4,s4,0x1b
    80098650:	0a6e                	slli	s4,s4,0x1b
    80098652:	2030                	fld	fa2,64(s0)
    80098654:	203d                	.insn	2, 0x203d
    80098656:	65736c73          	csrrsi	s8,hviprio2h,6
    8009865a:	7974                	ld	a3,240(a0)
    8009865c:	5f62                	lw	t5,56(sp)
    8009865e:	756d                	lui	a0,0xffffb
    80098660:	5f626c6f          	jal	s8,800bec56 <_end+0x261f2>
    80098664:	6572                	ld	a0,280(sp)
    80098666:	5f70                	lw	a2,124(a4)
    80098668:	360a                	fld	fa2,160(sp)
    8009866a:	2031                	.insn	2, 0x2031
    8009866c:	203d                	.insn	2, 0x203d
    8009866e:	6f63636b          	.insn	4, 0x6f63636b
    80098672:	626c                	ld	a1,192(a2)
    80098674:	6d5f 6e75 0a6e      	.insn	6, 0x0a6e6e756d5f
    8009867a:	2038                	fld	fa4,64(s0)
    8009867c:	203d                	.insn	2, 0x203d
    8009867e:	6c656b73          	csrrsi	s6,0x6c6,10
    80098682:	5f637963          	bgeu	t1,s6,80098c74 <_end+0x210>
    80098686:	756d                	lui	a0,0xffffb
    80098688:	31300a5b          	.insn	4, 0x31300a5b
    8009868c:	3d20                	fld	fs0,120(a0)
    8009868e:	7320                	ld	s0,96(a4)
    80098690:	655d                	lui	a0,0x17
    80098692:	6368                	ld	a0,192(a4)
    80098694:	6361                	lui	t1,0x18
    80098696:	642d                	lui	s0,0xb
    80098698:	616c                	ld	a1,192(a0)
    8009869a:	756d5f63          	bge	s10,s6,80098df8 <_end+0x394>
    8009869e:	0a6e                	slli	s4,s4,0x1b
    800986a0:	0a6e                	slli	s4,s4,0x1b
    800986a2:	2030                	fld	fa2,64(s0)
    800986a4:	203d                	.insn	2, 0x203d
    800986a6:	65736c73          	csrrsi	s8,hviprio2h,6
    800986aa:	7974                	ld	a3,240(a0)
    800986ac:	5f62                	lw	t5,56(sp)
    800986ae:	756d                	lui	a0,0xffffb
    800986b0:	5f626c6f          	jal	s8,800beca6 <_end+0x26242>
    800986b4:	6572                	ld	a0,280(sp)
    800986b6:	5f70                	lw	a2,124(a4)
    800986b8:	360a                	fld	fa2,160(sp)
    800986ba:	2031                	.insn	2, 0x2031
    800986bc:	203d                	.insn	2, 0x203d
    800986be:	6f63636b          	.insn	4, 0x6f63636b
    800986c2:	626c                	ld	a1,192(a2)
    800986c4:	6d5f 6e75 0a6e      	.insn	6, 0x0a6e6e756d5f
    800986ca:	2038                	fld	fa4,64(s0)
    800986cc:	203d                	.insn	2, 0x203d
    800986ce:	6c656b73          	csrrsi	s6,0x6c6,10
    800986d2:	5f637963          	bgeu	t1,s6,80098cc4 <_end+0x260>
    800986d6:	756d                	lui	a0,0xffffb
    800986d8:	31300a5b          	.insn	4, 0x31300a5b
    800986dc:	3d20                	fld	fs0,120(a0)
    800986de:	7320                	ld	s0,96(a4)
    800986e0:	7074696f          	jal	s2,800df5e6 <_end+0x46b82>
    800986e4:	6365                	lui	t1,0x19
    800986e6:	6578                	ld	a4,200(a0)
    800986e8:	7261                	lui	tp,0xffff8
    800986ea:	6e65                	lui	t3,0x19
    800986ec:	6765                	lui	a4,0x19
    800986ee:	6e2d                	lui	t3,0xb
    800986f0:	5d0a6563          	bltu	s4,a6,80098cba <_end+0x256>
    800986f4:	6f6e                	ld	t5,216(sp)
    800986f6:	7469                	lui	s0,0xffffa
    800986f8:	203d                	.insn	2, 0x203d
    800986fa:	3030                	fld	fa2,96(s0)
    800986fc:	7365                	lui	t1,0xffff9
    800986fe:	6175                	addi	sp,sp,368
    80098700:	63617573          	csrrci	a0,0x636,2
    80098704:	0a65                	addi	s4,s4,25 # ffffffffffff9019 <_end+0xffffffff7ff605b5>
    80098706:	2030                	fld	fa2,64(s0)
    80098708:	300a                	fld	ft0,160(sp)
    8009870a:	3d20                	fld	fs0,120(a0)
    8009870c:	3120                	fld	fs0,96(a0)
    8009870e:	6530                	ld	a2,72(a0)
    80098710:	3032                	fld	ft0,296(sp)
    80098712:	7365                	lui	t1,0xffff9
    80098714:	6175                	addi	sp,sp,368
    80098716:	63616563          	bltu	sp,s6,80098d40 <_end+0x2dc>
    8009871a:	0a65                	addi	s4,s4,25
    8009871c:	2030                	fld	fa2,64(s0)
    8009871e:	203d                	.insn	2, 0x203d
    80098720:	3d20                	fld	fs0,120(a0)
    80098722:	3320                	fld	fs0,96(a4)
    80098724:	6530                	ld	a2,72(a0)
    80098726:	73657573          	csrrci	a0,mhpmevent22h,10
    8009872a:	6175                	addi	sp,sp,368
    8009872c:	300a6563          	bltu	s4,zero,80098a36 <rodata+0x96e>
    80098730:	0a65                	addi	s4,s4,25
    80098732:	2030                	fld	fa2,64(s0)
    80098734:	203d                	.insn	2, 0x203d
    80098736:	3034                	fld	fa3,96(s0)
    80098738:	3520                	fld	fs0,104(a0)
    8009873a:	6530                	ld	a2,72(a0)
    8009873c:	63617573          	csrrci	a0,0x636,2
    80098740:	6175                	addi	sp,sp,368
    80098742:	300a6563          	bltu	s4,zero,80098a4c <rodata+0x984>
    80098746:	3d20                	fld	fs0,120(a0)
    80098748:	2030                	fld	fa2,64(s0)
    8009874a:	203d                	.insn	2, 0x203d
    8009874c:	3036                	fld	ft0,360(sp)
    8009874e:	7365                	lui	t1,0xffff9
    80098750:	6530                	ld	a2,72(a0)
    80098752:	63617573          	csrrci	a0,0x636,2
    80098756:	0a65                	addi	s4,s4,25
    80098758:	300a6563          	bltu	s4,zero,80098a62 <rodata+0x99a>
    8009875c:	3d20                	fld	fs0,120(a0)
    8009875e:	3720                	fld	fs0,104(a4)
    80098760:	203d                	.insn	2, 0x203d
    80098762:	3038                	fld	fa4,96(s0)
    80098764:	7365                	lui	t1,0xffff9
    80098766:	6175                	addi	sp,sp,368
    80098768:	63617573          	csrrci	a0,0x636,2
    8009876c:	0a65                	addi	s4,s4,25
    8009876e:	2030                	fld	fa2,64(s0)
    80098770:	300a                	fld	ft0,160(sp)
    80098772:	3d20                	fld	fs0,120(a0)
    80098774:	3920                	fld	fs0,112(a0)
    80098776:	6530                	ld	a2,72(a0)
    80098778:	3130                	fld	fa2,96(a0)
    8009877a:	7365                	lui	t1,0xffff9
    8009877c:	6175                	addi	sp,sp,368
    8009877e:	63616563          	bltu	sp,s6,80098da8 <_end+0x344>
    80098782:	0a65                	addi	s4,s4,25
    80098784:	2030                	fld	fa2,64(s0)
    80098786:	203d                	.insn	2, 0x203d
    80098788:	3d20                	fld	fs0,120(a0)
    8009878a:	3120                	fld	fs0,96(a0)
    8009878c:	6531                	lui	a0,0xc
    8009878e:	73657573          	csrrci	a0,mhpmevent22h,10
    80098792:	6175                	addi	sp,sp,368
    80098794:	300a6563          	bltu	s4,zero,80098a9e <_end+0x3a>
    80098798:	0a65                	addi	s4,s4,25
    8009879a:	2030                	fld	fa2,64(s0)
    8009879c:	203d                	.insn	2, 0x203d
    8009879e:	3132                	fld	ft2,296(sp)
    800987a0:	3320                	fld	fs0,96(a4)
    800987a2:	6531                	lui	a0,0xc
    800987a4:	63617573          	csrrci	a0,0x636,2
    800987a8:	6175                	addi	sp,sp,368
    800987aa:	300a6563          	bltu	s4,zero,80098ab4 <_end+0x50>
    800987ae:	3d20                	fld	fs0,120(a0)
    800987b0:	2030                	fld	fa2,64(s0)
    800987b2:	203d                	.insn	2, 0x203d
    800987b4:	3134                	fld	fa3,96(a0)
    800987b6:	7365                	lui	t1,0xffff9
    800987b8:	2d68                	fld	fa0,216(a0)
    800987ba:	7461                	lui	s0,0xffff8
    800987bc:	6461                	lui	s0,0x18
    800987be:	5d0a0a5b          	.insn	4, 0x5d0a0a5b
    800987c2:	61726473          	csrrsi	s0,0x617,4
    800987c6:	617a                	ld	sp,408(sp)
    800987c8:	6f62                	ld	t5,24(sp)
    800987ca:	7072                	.insn	2, 0x7072
    800987cc:	775f 7261 0a77      	.insn	6, 0x0a777261775f
    800987d2:	2e35                	addiw	t3,t3,13 # b00d <_tbss_end+0xb00d>
    800987d4:	2030                	fld	fa2,64(s0)
    800987d6:	203d                	.insn	2, 0x203d
    800987d8:	6220                	ld	s0,64(a2)
    800987da:	5f70726f          	jal	tp,800a05d0 <_end+0x7b6c>
    800987de:	6172                	ld	sp,280(sp)
    800987e0:	7761                	lui	a4,0xffff8
    800987e2:	350a                	fld	fa0,160(sp)
    800987e4:	302e                	fld	ft0,232(sp)
    800987e6:	3d20                	fld	fs0,120(a0)
    800987e8:	203d                	.insn	2, 0x203d
    800987ea:	6f62                	ld	t5,24(sp)
    800987ec:	7072                	.insn	2, 0x7072
    800987ee:	775f 756d 0a6e      	.insn	6, 0x0a6e756d775f
    800987f4:	2e35                	addiw	t3,t3,13
    800987f6:	2030                	fld	fa2,64(s0)
    800987f8:	735f6c6f          	jal	s8,8018f72c <_end+0xf6cc8>
    800987fc:	5f726567          	.insn	4, 0x5f726567
    80098800:	6e64                	ld	s1,216(a2)
    80098802:	6869                	lui	a6,0x1a
    80098804:	6265                	lui	tp,0x19
    80098806:	70726f6b          	.insn	4, 0x70726f6b
    8009880a:	20330a5b          	.insn	4, 0x20330a5b
    8009880e:	203d                	.insn	2, 0x203d
    80098810:	6d61                	lui	s10,0x18
    80098812:	6d2d                	lui	s10,0xb
    80098814:	7261                	lui	tp,0xffff8
    80098816:	72656f67          	.insn	4, 0x72656f67
    8009881a:	0a70                	addi	a2,sp,284
    8009881c:	6f5d                	lui	t5,0x17
    8009881e:	6372                	ld	t1,280(sp)
    80098820:	616d                	addi	sp,sp,240
    80098822:	6772                	ld	a4,280(sp)
    80098824:	5f70726f          	jal	tp,800a061a <_end+0x7bb6>
    80098828:	203d                	.insn	2, 0x203d
    8009882a:	6163726f          	jal	tp,800cfe40 <_end+0x373dc>
    8009882e:	5f6d                	li	t5,-5
    80098830:	302c                	fld	fa1,96(s0)
    80098832:	2078                	fld	fa4,192(s0)
    80098834:	6464                	ld	s1,200(s0)
    80098836:	2061                	.insn	2, 0x2061
    80098838:	300a706f          	j	8013fb38 <_end+0xa70d4>
    8009883c:	2c78                	fld	fa4,216(s0)
    8009883e:	7830                	ld	a2,112(s0)
    80098840:	6772                	ld	a4,280(sp)
    80098842:	5f70726f          	jal	tp,800a0638 <_end+0x7bd4>
    80098846:	7374                	ld	a3,224(a4)
    80098848:	6163726f          	jal	tp,800cfe5e <_end+0x373fa>
    8009884c:	5f6d                	li	t5,-5
    8009884e:	616d                	addi	sp,sp,240
    80098850:	2078                	fld	fa4,192(s0)
    80098852:	6464                	ld	s1,200(s0)
    80098854:	2061                	.insn	2, 0x2061
    80098856:	203d                	.insn	2, 0x203d
    80098858:	300a                	fld	ft0,160(sp)
    8009885a:	2c78                	fld	fa4,216(s0)
    8009885c:	7830                	ld	a2,112(s0)
    8009885e:	302c                	fld	fa1,96(s0)
    80098860:	616e                	ld	sp,216(sp)
    80098862:	6272                	ld	tp,280(sp)
    80098864:	655f 7072 726f      	.insn	6, 0x726f7072655f
    8009886a:	5f6d6163          	bltu	s10,s6,80098e4c <_end+0x3e8>
    8009886e:	6368                	ld	a0,192(a4)
    80098870:	2078                	fld	fa4,192(s0)
    80098872:	6464                	ld	s1,200(s0)
    80098874:	2061                	.insn	2, 0x2061
    80098876:	203d                	.insn	2, 0x203d
    80098878:	300a                	fld	ft0,160(sp)
    8009887a:	2c78                	fld	fa4,216(s0)
    8009887c:	7830                	ld	a2,112(s0)
    8009887e:	302c                	fld	fa1,96(s0)
    80098880:	7261                	lui	tp,0xffff8
    80098882:	5f62                	lw	t5,56(sp)
    80098884:	7374                	ld	a3,224(a4)
    80098886:	6372706f          	j	800c06bc <_end+0x27c58>
    8009888a:	6d61                	lui	s10,0x18
    8009888c:	685f 6e63 6420      	.insn	6, 0x64206e63685f
    80098892:	6164                	ld	s1,192(a0)
    80098894:	3d20                	fld	fs0,120(a0)
    80098896:	6f20                	ld	s0,88(a4)
    80098898:	7830                	ld	a2,112(s0)
    8009889a:	302c                	fld	fa1,96(s0)
    8009889c:	2c78                	fld	fa4,216(s0)
    8009889e:	7830                	ld	a2,112(s0)
    800988a0:	6530                	ld	a2,72(a0)
    800988a2:	63617573          	csrrci	a0,0x636,2
    800988a6:	0a65                	addi	s4,s4,25
    800988a8:	6e64                	ld	s1,216(a2)
    800988aa:	7261                	lui	tp,0xffff8
    800988ac:	3d20                	fld	fs0,120(a0)
    800988ae:	3020                	fld	fs0,96(s0)
    800988b0:	63617573          	csrrci	a0,0x636,2
    800988b4:	0a65                	addi	s4,s4,25
    800988b6:	6f6d                	lui	t5,0x1b
    800988b8:	7261                	lui	tp,0xffff8
    800988ba:	3d20                	fld	fs0,120(a0)
    800988bc:	3120                	fld	fs0,96(a0)
    800988be:	6530                	ld	a2,72(a0)
    800988c0:	6361                	lui	t1,0x18
    800988c2:	0a65                	addi	s4,s4,25
    800988c4:	6f6d                	lui	t5,0x1b
    800988c6:	6e64                	ld	s1,216(a2)
    800988c8:	3d20                	fld	fs0,120(a0)
    800988ca:	3220                	fld	fs0,96(a2)
    800988cc:	6530                	ld	a2,72(a0)
    800988ce:	0a657573          	csrrci	a0,0xa6,10
    800988d2:	6f6d                	lui	t5,0x1b
    800988d4:	6e64                	ld	s1,216(a2)
    800988d6:	7261                	lui	tp,0xffff8
    800988d8:	3320                	fld	fs0,96(a4)
    800988da:	6530                	ld	a2,72(a0)
    800988dc:	63617573          	csrrci	a0,0x636,2
    800988e0:	6f6d                	lui	t5,0x1b
    800988e2:	6e64                	ld	s1,216(a2)
    800988e4:	7261                	lui	tp,0xffff8
    800988e6:	3d20                	fld	fs0,120(a0)
    800988e8:	6530                	ld	a2,72(a0)
    800988ea:	63617573          	csrrci	a0,0x636,2
    800988ee:	0a65                	addi	s4,s4,25
    800988f0:	6e64                	ld	s1,216(a2)
    800988f2:	7261                	lui	tp,0xffff8
    800988f4:	3d20                	fld	fs0,120(a0)
    800988f6:	3420                	fld	fs0,104(s0)
    800988f8:	63617573          	csrrci	a0,0x636,2
    800988fc:	0a65                	addi	s4,s4,25
    800988fe:	6f6d                	lui	t5,0x1b
    80098900:	7261                	lui	tp,0xffff8
    80098902:	3d20                	fld	fs0,120(a0)
    80098904:	3520                	fld	fs0,104(a0)
    80098906:	6530                	ld	a2,72(a0)
    80098908:	6361                	lui	t1,0x18
    8009890a:	0a65                	addi	s4,s4,25
    8009890c:	6f6d                	lui	t5,0x1b
    8009890e:	6e64                	ld	s1,216(a2)
    80098910:	3d20                	fld	fs0,120(a0)
    80098912:	3620                	fld	fs0,104(a2)
    80098914:	6530                	ld	a2,72(a0)
    80098916:	0a657573          	csrrci	a0,0xa6,10
    8009891a:	6f6d                	lui	t5,0x1b
    8009891c:	6e64                	ld	s1,216(a2)
    8009891e:	7261                	lui	tp,0xffff8
    80098920:	3720                	fld	fs0,104(a4)
    80098922:	6530                	ld	a2,72(a0)
    80098924:	63617573          	csrrci	a0,0x636,2
    80098928:	6f6d                	lui	t5,0x1b
    8009892a:	6e64                	ld	s1,216(a2)
    8009892c:	7261                	lui	tp,0xffff8
    8009892e:	3d20                	fld	fs0,120(a0)
    80098930:	6530                	ld	a2,72(a0)
    80098932:	63617573          	csrrci	a0,0x636,2
    80098936:	0a65                	addi	s4,s4,25
    80098938:	6e64                	ld	s1,216(a2)
    8009893a:	7261                	lui	tp,0xffff8
    8009893c:	3d20                	fld	fs0,120(a0)
    8009893e:	3820                	fld	fs0,112(s0)
    80098940:	63617573          	csrrci	a0,0x636,2
    80098944:	0a65                	addi	s4,s4,25
    80098946:	6f6d                	lui	t5,0x1b
    80098948:	7261                	lui	tp,0xffff8
    8009894a:	3d20                	fld	fs0,120(a0)
    8009894c:	3920                	fld	fs0,112(a0)
    8009894e:	6530                	ld	a2,72(a0)
    80098950:	6361                	lui	t1,0x18
    80098952:	0a65                	addi	s4,s4,25
    80098954:	6f6d                	lui	t5,0x1b
    80098956:	6e64                	ld	s1,216(a2)
    80098958:	3d20                	fld	fs0,120(a0)
    8009895a:	3020                	fld	fs0,96(s0)
    8009895c:	6531                	lui	a0,0xc
    8009895e:	0a657573          	csrrci	a0,0xa6,10
    80098962:	6f6d                	lui	t5,0x1b
    80098964:	6e64                	ld	s1,216(a2)
    80098966:	7261                	lui	tp,0xffff8
    80098968:	3120                	fld	fs0,96(a0)
    8009896a:	6531                	lui	a0,0xc
    8009896c:	63617573          	csrrci	a0,0x636,2
    80098970:	6f6d                	lui	t5,0x1b
    80098972:	6e64                	ld	s1,216(a2)
    80098974:	7261                	lui	tp,0xffff8
    80098976:	3d20                	fld	fs0,120(a0)
    80098978:	6531                	lui	a0,0xc
    8009897a:	63617573          	csrrci	a0,0x636,2
    8009897e:	0a65                	addi	s4,s4,25
    80098980:	6e64                	ld	s1,216(a2)
    80098982:	7261                	lui	tp,0xffff8
    80098984:	3d20                	fld	fs0,120(a0)
    80098986:	3220                	fld	fs0,96(a2)
    80098988:	63617573          	csrrci	a0,0x636,2
    8009898c:	0a65                	addi	s4,s4,25
    8009898e:	6f6d                	lui	t5,0x1b
    80098990:	7261                	lui	tp,0xffff8
    80098992:	3d20                	fld	fs0,120(a0)
    80098994:	3320                	fld	fs0,96(a4)
    80098996:	6531                	lui	a0,0xc
    80098998:	6361                	lui	t1,0x18
    8009899a:	0a65                	addi	s4,s4,25
    8009899c:	6f6d                	lui	t5,0x1b
    8009899e:	6e64                	ld	s1,216(a2)
    800989a0:	3d20                	fld	fs0,120(a0)
    800989a2:	3420                	fld	fs0,104(s0)
    800989a4:	6531                	lui	a0,0xc
    800989a6:	0a5b7573          	csrrci	a0,0xa5,22
    800989aa:	6f6d                	lui	t5,0x1b
    800989ac:	6e64                	ld	s1,216(a2)
    800989ae:	7261                	lui	tp,0xffff8
    800989b0:	6865                	lui	a6,0x19
    800989b2:	6c662d63          	.insn	4, 0x6c662d63
    800989b6:	7365                	lui	t1,0xffff9
    800989b8:	0a72                	slli	s4,s4,0x1c
    800989ba:	675d                	lui	a4,0x17
    800989bc:	696e                	ld	s2,216(sp)
    800989be:	3130636b          	.insn	4, 0x3130636b
    800989c2:	3d20                	fld	fs0,120(a0)
    800989c4:	6520                	ld	s0,72(a0)
    800989c6:	6174                	ld	a3,192(a0)
    800989c8:	5f70                	lw	a2,124(a4)
    800989ca:	7374                	ld	a3,224(a4)
    800989cc:	7465                	lui	s0,0xffff9
    800989ce:	300a                	fld	ft0,160(sp)
    800989d0:	6372                	ld	t1,280(sp)
    800989d2:	6d61                	lui	s10,0x18
    800989d4:	735f 6173 2020      	.insn	6, 0x20206173735f
    800989da:	6c61                	lui	s8,0x18
    800989dc:	3d20                	fld	fs0,120(a0)
    800989de:	6f20                	ld	s0,88(a4)
    800989e0:	2c20                	fld	fs0,88(s0)
    800989e2:	7370                	ld	a2,224(a4)
    800989e4:	2020                	fld	fs0,64(s0)
    800989e6:	2020                	fld	fs0,64(s0)
    800989e8:	7369                	lui	t1,0xffffa
    800989ea:	6e5f 6769 6265      	.insn	6, 0x626567696e5f
    800989f0:	7572653b          	.insn	4, 0x7572653b
    800989f4:	6174                	ld	a3,192(a0)
    800989f6:	676e                	ld	a4,216(sp)
    800989f8:	2020                	fld	fs0,64(s0)
    800989fa:	6920                	ld	s0,80(a0)
    800989fc:	6464                	ld	s1,200(s0)
    800989fe:	2061                	.insn	2, 0x2061
    80098a00:	702c                	ld	a1,96(s0)
    80098a02:	702c2073          	csrs	0x702,s8
    80098a06:	42592073          	csrs	0x425,s2
    80098a0a:	2a524547          	fmsub.d	fa0,ft4,ft5,ft5,rmm
    80098a0e:	2032                	fld	ft0,264(sp)
    80098a10:	6920                	ld	s0,80(a0)
    80098a12:	206c                	fld	fa1,192(s0)
    80098a14:	5445533b          	.insn	4, 0x5445533b
    80098a18:	312c                	fld	fa1,96(a0)
    80098a1a:	2074                	fld	fa3,192(s0)
    80098a1c:	2020                	fld	fs0,64(s0)
    80098a1e:	2020                	fld	fs0,64(s0)
    80098a20:	6666                	ld	a2,88(sp)
    80098a22:	6666                	ld	a2,88(sp)
    80098a24:	7866                	ld	a6,120(sp)
    80098a26:	2030                	fld	fa2,64(s0)
    80098a28:	2020                	fld	fs0,64(s0)
    80098a2a:	53524547          	fmsub.d	fa0,ft4,fs5,fa0,rmm
    80098a2e:	3b20                	fld	fs0,112(a4)
    80098a30:	302a                	fld	ft0,168(sp)
    80098a32:	2c20                	fld	fs0,88(s0)
    80098a34:	7431                	lui	s0,0xfffec
    80098a36:	2020                	fld	fs0,64(s0)
    80098a38:	59544553          	.insn	4, 0x59544553
    80098a3c:	4742                	lw	a4,16(sp)
    80098a3e:	5245                	li	tp,-15
    80098a40:	0a746573          	csrrsi	a0,0xa7,8
    80098a44:	7029                	c.lui	zero,0xfffea
    80098a46:	5f6d2873          	csrrs	a6,0x5f6,s10
    80098a4a:	696c                	ld	a1,208(a0)
    80098a4c:	6661                	lui	a2,0x18
    80098a4e:	745f 2061 203d      	.insn	6, 0x203d2061745f
    80098a54:	6163726f          	jal	tp,800d006a <_end+0x37606>
    80098a58:	7830                	ld	a2,112(s0)
    80098a5a:	302c                	fld	fa1,96(s0)
    80098a5c:	2078                	fld	fa4,192(s0)
    80098a5e:	6464                	ld	s1,200(s0)
    80098a60:	782c                	ld	a1,112(s0)
    80098a62:	0a30                	addi	a2,sp,280
