
bin/out_config_00000.riscv:     file format elf64-littleriscv


Disassembly of section .text.init:

0000000080000000 <_start>:
    80000000:	00091117          	auipc	sp,0x91
    80000004:	00010113          	mv	sp,sp
    80000008:	6082                	ld	ra,0(sp)
    8000000a:	61a2                	ld	gp,8(sp)
    8000000c:	6242                	ld	tp,16(sp)
    8000000e:	62e2                	ld	t0,24(sp)
    80000010:	7302                	ld	t1,32(sp)
    80000012:	73a2                	ld	t2,40(sp)
    80000014:	7442                	ld	s0,48(sp)
    80000016:	74e2                	ld	s1,56(sp)
    80000018:	6506                	ld	a0,64(sp)
    8000001a:	65a6                	ld	a1,72(sp)
    8000001c:	6646                	ld	a2,80(sp)
    8000001e:	66e6                	ld	a3,88(sp)
    80000020:	7706                	ld	a4,96(sp)
    80000022:	77a6                	ld	a5,104(sp)
    80000024:	7846                	ld	a6,112(sp)
    80000026:	78e6                	ld	a7,120(sp)
    80000028:	690a                	ld	s2,128(sp)
    8000002a:	69aa                	ld	s3,136(sp)
    8000002c:	6a4a                	ld	s4,144(sp)
    8000002e:	6aea                	ld	s5,152(sp)
    80000030:	7b0a                	ld	s6,160(sp)
    80000032:	7baa                	ld	s7,168(sp)
    80000034:	7c4a                	ld	s8,176(sp)
    80000036:	7cea                	ld	s9,184(sp)
    80000038:	6d0e                	ld	s10,192(sp)
    8000003a:	6dae                	ld	s11,200(sp)
    8000003c:	6e4e                	ld	t3,208(sp)
    8000003e:	6eee                	ld	t4,216(sp)
    80000040:	7f0e                	ld	t5,224(sp)
    80000042:	7fae                	ld	t6,232(sp)
    80000044:	62f9                	lui	t0,0x1e
    80000046:	3002a073          	csrs	mstatus,t0
    8000004a:	4285                	li	t0,1
    8000004c:	02fe                	slli	t0,t0,0x1f
    8000004e:	0002d863          	bgez	t0,8000005e <_start+0x5e>
    80000052:	4505                	li	a0,1
    80000054:	00098297          	auipc	t0,0x98
    80000058:	faa2a623          	sw	a0,-84(t0) # 80098000 <tohost>
    8000005c:	bfdd                	j	80000052 <_start+0x52>
    8000005e:	00000297          	auipc	t0,0x0
    80000062:	09228293          	addi	t0,t0,146 # 800000f0 <_start+0xf0>
    80000066:	30529073          	csrw	mtvec,t0
    8000006a:	00301073          	fscsr	zero
    8000006e:	f2008053          	fmv.d.x	ft0,ra
    80000072:	f20080d3          	fmv.d.x	ft1,ra
    80000076:	f2010153          	fmv.d.x	ft2,sp
    8000007a:	f20181d3          	fmv.d.x	ft3,gp
    8000007e:	f2020253          	fmv.d.x	ft4,tp
    80000082:	f20282d3          	fmv.d.x	ft5,t0
    80000086:	f2030353          	fmv.d.x	ft6,t1
    8000008a:	f20383d3          	fmv.d.x	ft7,t2
    8000008e:	f2040453          	fmv.d.x	fs0,s0
    80000092:	f20484d3          	fmv.d.x	fs1,s1
    80000096:	f2050553          	fmv.d.x	fa0,a0
    8000009a:	f20585d3          	fmv.d.x	fa1,a1
    8000009e:	f2060653          	fmv.d.x	fa2,a2
    800000a2:	f20686d3          	fmv.d.x	fa3,a3
    800000a6:	f2070753          	fmv.d.x	fa4,a4
    800000aa:	f20787d3          	fmv.d.x	fa5,a5
    800000ae:	f2080853          	fmv.d.x	fa6,a6
    800000b2:	f20888d3          	fmv.d.x	fa7,a7
    800000b6:	f2090953          	fmv.d.x	fs2,s2
    800000ba:	f20989d3          	fmv.d.x	fs3,s3
    800000be:	f20a0a53          	fmv.d.x	fs4,s4
    800000c2:	f20a8ad3          	fmv.d.x	fs5,s5
    800000c6:	f20b0b53          	fmv.d.x	fs6,s6
    800000ca:	f20b8bd3          	fmv.d.x	fs7,s7
    800000ce:	f20c0c53          	fmv.d.x	fs8,s8
    800000d2:	f20c8cd3          	fmv.d.x	fs9,s9
    800000d6:	f20d0d53          	fmv.d.x	fs10,s10
    800000da:	f20d8dd3          	fmv.d.x	fs11,s11
    800000de:	f20e0e53          	fmv.d.x	ft8,t3
    800000e2:	f20e8ed3          	fmv.d.x	ft9,t4
    800000e6:	f20f0f53          	fmv.d.x	ft10,t5
    800000ea:	f20f8fd3          	fmv.d.x	ft11,t6
    800000ee:	0001                	nop
    800000f0:	00000297          	auipc	t0,0x0
    800000f4:	03428293          	addi	t0,t0,52 # 80000124 <trap_entry>
    800000f8:	30529073          	csrw	mtvec,t0
    800000fc:	00099217          	auipc	tp,0x99
    80000100:	9a720213          	addi	tp,tp,-1625 # 80098aa3 <_end+0x3f>
    80000104:	fc027213          	andi	tp,tp,-64
    80000108:	f1402573          	csrr	a0,mhartid
    8000010c:	4585                	li	a1,1
    8000010e:	00b57063          	bgeu	a0,a1,8000010e <_start+0x10e>
    80000112:	01151613          	slli	a2,a0,0x11
    80000116:	9232                	add	tp,tp,a2
    80000118:	00150113          	addi	sp,a0,1
    8000011c:	0146                	slli	sp,sp,0x11
    8000011e:	9112                	add	sp,sp,tp
    80000120:	2400006f          	j	80000360 <main>

0000000080000124 <trap_entry>:
    80000124:	716d                	addi	sp,sp,-272
    80000126:	e406                	sd	ra,8(sp)
    80000128:	e80a                	sd	sp,16(sp)
    8000012a:	ec0e                	sd	gp,24(sp)
    8000012c:	f012                	sd	tp,32(sp)
    8000012e:	f416                	sd	t0,40(sp)
    80000130:	f81a                	sd	t1,48(sp)
    80000132:	fc1e                	sd	t2,56(sp)
    80000134:	e0a2                	sd	s0,64(sp)
    80000136:	e4a6                	sd	s1,72(sp)
    80000138:	e8aa                	sd	a0,80(sp)
    8000013a:	ecae                	sd	a1,88(sp)
    8000013c:	f0b2                	sd	a2,96(sp)
    8000013e:	f4b6                	sd	a3,104(sp)
    80000140:	f8ba                	sd	a4,112(sp)
    80000142:	fcbe                	sd	a5,120(sp)
    80000144:	e142                	sd	a6,128(sp)
    80000146:	e546                	sd	a7,136(sp)
    80000148:	e94a                	sd	s2,144(sp)
    8000014a:	ed4e                	sd	s3,152(sp)
    8000014c:	f152                	sd	s4,160(sp)
    8000014e:	f556                	sd	s5,168(sp)
    80000150:	f95a                	sd	s6,176(sp)
    80000152:	fd5e                	sd	s7,184(sp)
    80000154:	e1e2                	sd	s8,192(sp)
    80000156:	e5e6                	sd	s9,200(sp)
    80000158:	e9ea                	sd	s10,208(sp)
    8000015a:	edee                	sd	s11,216(sp)
    8000015c:	f1f2                	sd	t3,224(sp)
    8000015e:	f5f6                	sd	t4,232(sp)
    80000160:	f9fa                	sd	t5,240(sp)
    80000162:	fdfe                	sd	t6,248(sp)
    80000164:	34202573          	csrr	a0,mcause
    80000168:	341025f3          	csrr	a1,mepc
    8000016c:	0005d603          	lhu	a2,0(a1)
    80000170:	8a0d                	andi	a2,a2,3
    80000172:	428d                	li	t0,3
    80000174:	00561563          	bne	a2,t0,8000017e <inst16>

0000000080000178 <inst32>:
    80000178:	0591                	addi	a1,a1,4
    8000017a:	00000363          	beqz	zero,80000180 <inst16+0x2>

000000008000017e <inst16>:
    8000017e:	0589                	addi	a1,a1,2
    80000180:	34159073          	csrw	mepc,a1
    80000184:	6289                	lui	t0,0x2
    80000186:	8002829b          	addiw	t0,t0,-2048 # 1800 <_tbss_end+0x1800>
    8000018a:	3002a073          	csrs	mstatus,t0
    8000018e:	60a2                	ld	ra,8(sp)
    80000190:	6142                	ld	sp,16(sp)
    80000192:	61e2                	ld	gp,24(sp)
    80000194:	7202                	ld	tp,32(sp)
    80000196:	72a2                	ld	t0,40(sp)
    80000198:	7342                	ld	t1,48(sp)
    8000019a:	73e2                	ld	t2,56(sp)
    8000019c:	6406                	ld	s0,64(sp)
    8000019e:	64a6                	ld	s1,72(sp)
    800001a0:	6546                	ld	a0,80(sp)
    800001a2:	65e6                	ld	a1,88(sp)
    800001a4:	7606                	ld	a2,96(sp)
    800001a6:	76a6                	ld	a3,104(sp)
    800001a8:	7746                	ld	a4,112(sp)
    800001aa:	77e6                	ld	a5,120(sp)
    800001ac:	680a                	ld	a6,128(sp)
    800001ae:	68aa                	ld	a7,136(sp)
    800001b0:	694a                	ld	s2,144(sp)
    800001b2:	69ea                	ld	s3,152(sp)
    800001b4:	7a0a                	ld	s4,160(sp)
    800001b6:	7aaa                	ld	s5,168(sp)
    800001b8:	7b4a                	ld	s6,176(sp)
    800001ba:	7bea                	ld	s7,184(sp)
    800001bc:	6c0e                	ld	s8,192(sp)
    800001be:	6cae                	ld	s9,200(sp)
    800001c0:	6d4e                	ld	s10,208(sp)
    800001c2:	6dee                	ld	s11,216(sp)
    800001c4:	7e0e                	ld	t3,224(sp)
    800001c6:	7eae                	ld	t4,232(sp)
    800001c8:	7f4e                	ld	t5,240(sp)
    800001ca:	7fee                	ld	t6,248(sp)
    800001cc:	6151                	addi	sp,sp,272
    800001ce:	30200073          	mret

Disassembly of section .text:

00000000800001e0 <custom_trap_handler_s>:
    800001e0:	7129                	addi	sp,sp,-320
    800001e2:	e406                	sd	ra,8(sp)
    800001e4:	ec0e                	sd	gp,24(sp)
    800001e6:	f012                	sd	tp,32(sp)
    800001e8:	f416                	sd	t0,40(sp)
    800001ea:	f81a                	sd	t1,48(sp)
    800001ec:	fc1e                	sd	t2,56(sp)
    800001ee:	e0a2                	sd	s0,64(sp)
    800001f0:	e4a6                	sd	s1,72(sp)
    800001f2:	e8aa                	sd	a0,80(sp)
    800001f4:	ecae                	sd	a1,88(sp)
    800001f6:	f0b2                	sd	a2,96(sp)
    800001f8:	f4b6                	sd	a3,104(sp)
    800001fa:	f8ba                	sd	a4,112(sp)
    800001fc:	fcbe                	sd	a5,120(sp)
    800001fe:	e142                	sd	a6,128(sp)
    80000200:	e546                	sd	a7,136(sp)
    80000202:	e94a                	sd	s2,144(sp)
    80000204:	ed4e                	sd	s3,152(sp)
    80000206:	f152                	sd	s4,160(sp)
    80000208:	f556                	sd	s5,168(sp)
    8000020a:	f95a                	sd	s6,176(sp)
    8000020c:	fd5e                	sd	s7,184(sp)
    8000020e:	e1e2                	sd	s8,192(sp)
    80000210:	e5e6                	sd	s9,200(sp)
    80000212:	e9ea                	sd	s10,208(sp)
    80000214:	edee                	sd	s11,216(sp)
    80000216:	f1f2                	sd	t3,224(sp)
    80000218:	f5f6                	sd	t4,232(sp)
    8000021a:	f9fa                	sd	t5,240(sp)
    8000021c:	fdfe                	sd	t6,248(sp)
    8000021e:	10002573          	csrr	a0,sstatus
    80000222:	14102573          	csrr	a0,sepc
    80000226:	10502573          	csrr	a0,stvec
    8000022a:	14202573          	csrr	a0,scause
    8000022e:	4601                	li	a2,0
    80000230:	00c50763          	beq	a0,a2,8000023e <custom_trap_handler_s+0x5e>
    80000234:	4605                	li	a2,1
    80000236:	00c50463          	beq	a0,a2,8000023e <custom_trap_handler_s+0x5e>
    8000023a:	141025f3          	csrr	a1,sepc
    8000023e:	00059603          	lh	a2,0(a1)
    80000242:	8a0d                	andi	a2,a2,3
    80000244:	428d                	li	t0,3
    80000246:	00561563          	bne	a2,t0,80000250 <inst16_s>

000000008000024a <inst32_s>:
    8000024a:	0591                	addi	a1,a1,4
    8000024c:	00000363          	beqz	zero,80000252 <inst16_s+0x2>

0000000080000250 <inst16_s>:
    80000250:	0589                	addi	a1,a1,2
    80000252:	14159073          	csrw	sepc,a1
    80000256:	60a2                	ld	ra,8(sp)
    80000258:	61e2                	ld	gp,24(sp)
    8000025a:	7202                	ld	tp,32(sp)
    8000025c:	72a2                	ld	t0,40(sp)
    8000025e:	7342                	ld	t1,48(sp)
    80000260:	73e2                	ld	t2,56(sp)
    80000262:	6406                	ld	s0,64(sp)
    80000264:	64a6                	ld	s1,72(sp)
    80000266:	6546                	ld	a0,80(sp)
    80000268:	65e6                	ld	a1,88(sp)
    8000026a:	7606                	ld	a2,96(sp)
    8000026c:	76a6                	ld	a3,104(sp)
    8000026e:	7746                	ld	a4,112(sp)
    80000270:	77e6                	ld	a5,120(sp)
    80000272:	680a                	ld	a6,128(sp)
    80000274:	68aa                	ld	a7,136(sp)
    80000276:	694a                	ld	s2,144(sp)
    80000278:	69ea                	ld	s3,152(sp)
    8000027a:	7a0a                	ld	s4,160(sp)
    8000027c:	7aaa                	ld	s5,168(sp)
    8000027e:	7b4a                	ld	s6,176(sp)
    80000280:	7bea                	ld	s7,184(sp)
    80000282:	6c0e                	ld	s8,192(sp)
    80000284:	6cae                	ld	s9,200(sp)
    80000286:	6d4e                	ld	s10,208(sp)
    80000288:	6dee                	ld	s11,216(sp)
    8000028a:	7e0e                	ld	t3,224(sp)
    8000028c:	7eae                	ld	t4,232(sp)
    8000028e:	7f4e                	ld	t5,240(sp)
    80000290:	7fee                	ld	t6,248(sp)
    80000292:	6131                	addi	sp,sp,320
    80000294:	10200073          	sret

0000000080000298 <custom_trap_handler>:
    80000298:	7129                	addi	sp,sp,-320
    8000029a:	e406                	sd	ra,8(sp)
    8000029c:	ec0e                	sd	gp,24(sp)
    8000029e:	f012                	sd	tp,32(sp)
    800002a0:	f416                	sd	t0,40(sp)
    800002a2:	f81a                	sd	t1,48(sp)
    800002a4:	fc1e                	sd	t2,56(sp)
    800002a6:	e0a2                	sd	s0,64(sp)
    800002a8:	e4a6                	sd	s1,72(sp)
    800002aa:	e8aa                	sd	a0,80(sp)
    800002ac:	ecae                	sd	a1,88(sp)
    800002ae:	f0b2                	sd	a2,96(sp)
    800002b0:	f4b6                	sd	a3,104(sp)
    800002b2:	f8ba                	sd	a4,112(sp)
    800002b4:	fcbe                	sd	a5,120(sp)
    800002b6:	e142                	sd	a6,128(sp)
    800002b8:	e546                	sd	a7,136(sp)
    800002ba:	e94a                	sd	s2,144(sp)
    800002bc:	ed4e                	sd	s3,152(sp)
    800002be:	f152                	sd	s4,160(sp)
    800002c0:	f556                	sd	s5,168(sp)
    800002c2:	f95a                	sd	s6,176(sp)
    800002c4:	fd5e                	sd	s7,184(sp)
    800002c6:	e1e2                	sd	s8,192(sp)
    800002c8:	e5e6                	sd	s9,200(sp)
    800002ca:	e9ea                	sd	s10,208(sp)
    800002cc:	edee                	sd	s11,216(sp)
    800002ce:	f1f2                	sd	t3,224(sp)
    800002d0:	f5f6                	sd	t4,232(sp)
    800002d2:	f9fa                	sd	t5,240(sp)
    800002d4:	fdfe                	sd	t6,248(sp)
    800002d6:	30002573          	csrr	a0,mstatus
    800002da:	34102573          	csrr	a0,mepc
    800002de:	30502573          	csrr	a0,mtvec
    800002e2:	34202573          	csrr	a0,mcause
    800002e6:	4601                	li	a2,0
    800002e8:	00c50763          	beq	a0,a2,800002f6 <custom_trap_handler+0x5e>
    800002ec:	4605                	li	a2,1
    800002ee:	00c50463          	beq	a0,a2,800002f6 <custom_trap_handler+0x5e>
    800002f2:	341025f3          	csrr	a1,mepc
    800002f6:	00059603          	lh	a2,0(a1)
    800002fa:	8a0d                	andi	a2,a2,3
    800002fc:	428d                	li	t0,3
    800002fe:	00561563          	bne	a2,t0,80000308 <inst16>

0000000080000302 <inst32>:
    80000302:	0591                	addi	a1,a1,4
    80000304:	00000363          	beqz	zero,8000030a <inst16+0x2>

0000000080000308 <inst16>:
    80000308:	0589                	addi	a1,a1,2
    8000030a:	34159073          	csrw	mepc,a1
    8000030e:	60a2                	ld	ra,8(sp)
    80000310:	61e2                	ld	gp,24(sp)
    80000312:	7202                	ld	tp,32(sp)
    80000314:	72a2                	ld	t0,40(sp)
    80000316:	7342                	ld	t1,48(sp)
    80000318:	73e2                	ld	t2,56(sp)
    8000031a:	6406                	ld	s0,64(sp)
    8000031c:	64a6                	ld	s1,72(sp)
    8000031e:	6546                	ld	a0,80(sp)
    80000320:	65e6                	ld	a1,88(sp)
    80000322:	7606                	ld	a2,96(sp)
    80000324:	76a6                	ld	a3,104(sp)
    80000326:	7746                	ld	a4,112(sp)
    80000328:	77e6                	ld	a5,120(sp)
    8000032a:	680a                	ld	a6,128(sp)
    8000032c:	68aa                	ld	a7,136(sp)
    8000032e:	694a                	ld	s2,144(sp)
    80000330:	69ea                	ld	s3,152(sp)
    80000332:	7a0a                	ld	s4,160(sp)
    80000334:	7aaa                	ld	s5,168(sp)
    80000336:	7b4a                	ld	s6,176(sp)
    80000338:	7bea                	ld	s7,184(sp)
    8000033a:	6c0e                	ld	s8,192(sp)
    8000033c:	6cae                	ld	s9,200(sp)
    8000033e:	6d4e                	ld	s10,208(sp)
    80000340:	6dee                	ld	s11,216(sp)
    80000342:	7e0e                	ld	t3,224(sp)
    80000344:	7eae                	ld	t4,232(sp)
    80000346:	7f4e                	ld	t5,240(sp)
    80000348:	7fee                	ld	t6,248(sp)
    8000034a:	6131                	addi	sp,sp,320
    8000034c:	30200073          	mret

0000000080000350 <func1>:
    80000350:	00000033          	add	zero,zero,zero
    80000354:	8082                	ret
    80000356:	00000013          	nop
    8000035a:	00000013          	nop
    8000035e:	0001                	nop

0000000080000360 <main>:
    80000360:	00000033          	add	zero,zero,zero
    80000364:	00000297          	auipc	t0,0x0
    80000368:	f3428293          	addi	t0,t0,-204 # 80000298 <custom_trap_handler>
    8000036c:	30529073          	csrw	mtvec,t0
    80000370:	00091117          	auipc	sp,0x91
    80000374:	c9010113          	addi	sp,sp,-880 # 80091000 <begin_signature>
    80000378:	6305                	lui	t1,0x1
    8000037a:	8283031b          	addiw	t1,t1,-2008 # 828 <_tbss_end+0x828>
    8000037e:	911a                	add	sp,sp,t1

0000000080000380 <i0000000000>:
    80000380:	4fa9                	li	t6,10

0000000080000382 <i0000000001>:
    80000382:	139d7717          	auipc	a4,0x139d7

0000000080000386 <i0000000002>:
    80000386:	030ed393          	srli	t2,t4,0x30

000000008000038a <i0000000003>:
    8000038a:	13010003          	lb	zero,304(sp)

000000008000038e <i0000000004>:
    8000038e:	005b5f13          	srli	t5,s6,0x5

0000000080000392 <i0000000005>:
    80000392:	0ff0000f          	fence

0000000080000396 <i0000000006>:
    80000396:	9a610c83          	lb	s9,-1626(sp)

000000008000039a <i0000000007>:
    8000039a:	0167eeb3          	or	t4,a5,s6

000000008000039e <i0000000008>:
    8000039e:	ea114783          	lbu	a5,-351(sp)

00000000800003a2 <i0000000009>:
    800003a2:	b5d7079b          	addiw	a5,a4,-1187 # ffffffff939d6edf <_end+0xffffffff1393e47b>

00000000800003a6 <i000000000a>:
    800003a6:	018da733          	slt	a4,s11,s8

00000000800003aa <i000000000b>:
    800003aa:	a4815703          	lhu	a4,-1464(sp)

00000000800003ae <i000000000c>:
    800003ae:	0ff0000f          	fence

00000000800003b2 <i000000000d>:
    800003b2:	83e13423          	sd	t5,-2008(sp)

00000000800003b6 <i000000000e>:
    800003b6:	23d68617          	auipc	a2,0x23d68

00000000800003ba <i000000000f>:
    800003ba:	0ff0000f          	fence
    800003be:	00091117          	auipc	sp,0x91
    800003c2:	c4210113          	addi	sp,sp,-958 # 80091000 <begin_signature>
    800003c6:	6309                	lui	t1,0x2
    800003c8:	de03031b          	addiw	t1,t1,-544 # 1de0 <_tbss_end+0x1de0>
    800003cc:	911a                	add	sp,sp,t1

00000000800003ce <i0000000010>:
    800003ce:	90a15883          	lhu	a7,-1782(sp)

00000000800003d2 <i0000000011>:
    800003d2:	41d7063b          	subw	a2,a4,t4

00000000800003d6 <i0000000012>:
    800003d6:	0000100f          	fence.i
    800003da:	00091117          	auipc	sp,0x91
    800003de:	c2610113          	addi	sp,sp,-986 # 80091000 <begin_signature>
    800003e2:	6309                	lui	t1,0x2
    800003e4:	5e03031b          	addiw	t1,t1,1504 # 25e0 <_tbss_end+0x25e0>
    800003e8:	911a                	add	sp,sp,t1

00000000800003ea <i0000000013>:
    800003ea:	2e813a03          	ld	s4,744(sp)
    800003ee:	00091117          	auipc	sp,0x91
    800003f2:	c1210113          	addi	sp,sp,-1006 # 80091000 <begin_signature>
    800003f6:	630d                	lui	t1,0x3
    800003f8:	7b83031b          	addiw	t1,t1,1976 # 37b8 <_tbss_end+0x37b8>
    800003fc:	911a                	add	sp,sp,t1

00000000800003fe <i0000000014>:
    800003fe:	e4c10823          	sb	a2,-432(sp)

0000000080000402 <i0000000015>:
    80000402:	8777b813          	sltiu	a6,a5,-1929

0000000080000406 <i0000000016>:
    80000406:	eb210683          	lb	a3,-334(sp)
    8000040a:	00091117          	auipc	sp,0x91
    8000040e:	bf610113          	addi	sp,sp,-1034 # 80091000 <begin_signature>
    80000412:	630d                	lui	t1,0x3
    80000414:	0983031b          	addiw	t1,t1,152 # 3098 <_tbss_end+0x3098>
    80000418:	911a                	add	sp,sp,t1

000000008000041a <i0000000017>:
    8000041a:	4f815883          	lhu	a7,1272(sp)
    8000041e:	00091117          	auipc	sp,0x91
    80000422:	be210113          	addi	sp,sp,-1054 # 80091000 <begin_signature>
    80000426:	6309                	lui	t1,0x2
    80000428:	cc03031b          	addiw	t1,t1,-832 # 1cc0 <_tbss_end+0x1cc0>
    8000042c:	911a                	add	sp,sp,t1

000000008000042e <i0000000018>:
    8000042e:	e062                	sd	s8,0(sp)

0000000080000430 <i0000000019>:
    80000430:	00c7debb          	srlw	t4,a5,a2

0000000080000434 <i000000001a>:
    80000434:	0ff0000f          	fence
    80000438:	00091117          	auipc	sp,0x91
    8000043c:	bc810113          	addi	sp,sp,-1080 # 80091000 <begin_signature>
    80000440:	630d                	lui	t1,0x3
    80000442:	5b03031b          	addiw	t1,t1,1456 # 35b0 <_tbss_end+0x35b0>
    80000446:	911a                	add	sp,sp,t1

0000000080000448 <i000000001b>:
    80000448:	5b415003          	lhu	zero,1460(sp)

000000008000044c <i000000001c>:
    8000044c:	0382d593          	srli	a1,t0,0x38

0000000080000450 <i000000001d>:
    80000450:	4e013b03          	ld	s6,1248(sp)

0000000080000454 <i000000001e>:
    80000454:	a2013423          	sd	zero,-1496(sp)

0000000080000458 <i000000001f>:
    80000458:	e8312623          	sw	gp,-372(sp)

000000008000045c <i0000000020>:
    8000045c:	03175d13          	srli	s10,a4,0x31

0000000080000460 <i0000000021>:
    80000460:	0000100f          	fence.i

0000000080000464 <i0000000022>:
    80000464:	01401e93          	slli	t4,zero,0x14

0000000080000468 <i0000000023>:
    80000468:	41275f93          	srai	t6,a4,0x12

000000008000046c <i0000000024>:
    8000046c:	00c7d033          	srl	zero,a5,a2

0000000080000470 <i0000000025>:
    80000470:	4262d893          	srai	a7,t0,0x26

0000000080000474 <i0000000026>:
    80000474:	2ec8ed13          	ori	s10,a7,748

0000000080000478 <i0000000027>:
    80000478:	b5110ea3          	sb	a7,-1187(sp)

000000008000047c <i0000000028>:
    8000047c:	43e8d613          	srai	a2,a7,0x3e

0000000080000480 <i0000000029>:
    80000480:	01001813          	slli	a6,zero,0x10
    80000484:	00091117          	auipc	sp,0x91
    80000488:	b7c10113          	addi	sp,sp,-1156 # 80091000 <begin_signature>
    8000048c:	6305                	lui	t1,0x1
    8000048e:	7f03031b          	addiw	t1,t1,2032 # 17f0 <_tbss_end+0x17f0>
    80000492:	911a                	add	sp,sp,t1

0000000080000494 <i000000002a>:
    80000494:	2f813183          	ld	gp,760(sp)

0000000080000498 <i000000002b>:
    80000498:	4d013603          	ld	a2,1232(sp)

000000008000049c <i000000002c>:
    8000049c:	0000100f          	fence.i

00000000800004a0 <i000000002d>:
    800004a0:	0000100f          	fence.i
    800004a4:	00091117          	auipc	sp,0x91
    800004a8:	b5c10113          	addi	sp,sp,-1188 # 80091000 <begin_signature>
    800004ac:	6309                	lui	t1,0x2
    800004ae:	c203031b          	addiw	t1,t1,-992 # 1c20 <_tbss_end+0x1c20>
    800004b2:	911a                	add	sp,sp,t1

00000000800004b4 <i000000002e>:
    800004b4:	a8816903          	lwu	s2,-1400(sp)

00000000800004b8 <i000000002f>:
    800004b8:	0000100f          	fence.i

00000000800004bc <i0000000030>:
    800004bc:	045946b7          	lui	a3,0x4594

00000000800004c0 <i0000000031>:
    800004c0:	0000100f          	fence.i

00000000800004c4 <i0000000032>:
    800004c4:	8725                	srai	a4,a4,0x9

00000000800004c6 <i0000000033>:
    800004c6:	0ff0000f          	fence

00000000800004ca <i0000000034>:
    800004ca:	aebde513          	ori	a0,s11,-1301

00000000800004ce <i0000000035>:
    800004ce:	6a1e5837          	lui	a6,0x6a1e5

00000000800004d2 <i0000000036>:
    800004d2:	da011683          	lh	a3,-608(sp)

00000000800004d6 <i0000000037>:
    800004d6:	259101a3          	sb	s9,579(sp)

00000000800004da <i0000000038>:
    800004da:	71113823          	sd	a7,1808(sp)

00000000800004de <i0000000039>:
    800004de:	77816f03          	lwu	t5,1912(sp)

00000000800004e2 <i000000003a>:
    800004e2:	0ff0000f          	fence

00000000800004e6 <i000000003b>:
    800004e6:	0000100f          	fence.i

00000000800004ea <i000000003c>:
    800004ea:	9d812423          	sw	s8,-1592(sp)

00000000800004ee <i000000003d>:
    800004ee:	0000100f          	fence.i

00000000800004f2 <i000000003e>:
    800004f2:	32313423          	sd	gp,808(sp)

00000000800004f6 <i000000003f>:
    800004f6:	0000100f          	fence.i

00000000800004fa <i0000000040>:
    800004fa:	03781d93          	slli	s11,a6,0x37

00000000800004fe <i0000000041>:
    800004fe:	34013183          	ld	gp,832(sp)

0000000080000502 <i0000000042>:
    80000502:	019c823b          	addw	tp,s9,s9

0000000080000506 <i0000000043>:
    80000506:	ee813383          	ld	t2,-280(sp)

000000008000050a <i0000000044>:
    8000050a:	9a013803          	ld	a6,-1632(sp)

000000008000050e <i0000000045>:
    8000050e:	0000100f          	fence.i

0000000080000512 <i0000000046>:
    80000512:	0ff0000f          	fence

0000000080000516 <i0000000047>:
    80000516:	0000100f          	fence.i
    8000051a:	00091117          	auipc	sp,0x91
    8000051e:	ae610113          	addi	sp,sp,-1306 # 80091000 <begin_signature>
    80000522:	6309                	lui	t1,0x2
    80000524:	7283031b          	addiw	t1,t1,1832 # 2728 <_tbss_end+0x2728>
    80000528:	911a                	add	sp,sp,t1

000000008000052a <i0000000048>:
    8000052a:	c1013023          	sd	a6,-1024(sp)

000000008000052e <i0000000049>:
    8000052e:	32a15783          	lhu	a5,810(sp)

0000000080000532 <i000000004a>:
    80000532:	67476e93          	ori	t4,a4,1652

0000000080000536 <i000000004b>:
    80000536:	01aed71b          	srliw	a4,t4,0x1a

000000008000053a <i000000004c>:
    8000053a:	b1016a03          	lwu	s4,-1264(sp)

000000008000053e <i000000004d>:
    8000053e:	64610783          	lb	a5,1606(sp)

0000000080000542 <i000000004e>:
    80000542:	0000100f          	fence.i

0000000080000546 <i000000004f>:
    80000546:	91f14203          	lbu	tp,-1761(sp)

000000008000054a <i0000000050>:
    8000054a:	40c8571b          	sraiw	a4,a6,0xc

000000008000054e <i0000000051>:
    8000054e:	0ff0000f          	fence

0000000080000552 <i0000000052>:
    80000552:	0000100f          	fence.i

0000000080000556 <i0000000053>:
    80000556:	01a9d7bb          	srlw	a5,s3,s10

000000008000055a <i0000000054>:
    8000055a:	0118171b          	slliw	a4,a6,0x11

000000008000055e <i0000000055>:
    8000055e:	bd813803          	ld	a6,-1064(sp)

0000000080000562 <i0000000056>:
    80000562:	158fab17          	auipc	s6,0x158fa

0000000080000566 <i0000000057>:
    80000566:	00b9989b          	slliw	a7,s3,0xb

000000008000056a <i0000000058>:
    8000056a:	01b8579b          	srliw	a5,a6,0x1b

000000008000056e <i0000000059>:
    8000056e:	0108183b          	sllw	a6,a6,a6

0000000080000572 <i000000005a>:
    80000572:	0ff0000f          	fence

0000000080000576 <i000000005b>:
    80000576:	5ce11023          	sh	a4,1472(sp)

000000008000057a <i000000005c>:
    8000057a:	89813783          	ld	a5,-1896(sp)

000000008000057e <i000000005d>:
    8000057e:	0000100f          	fence.i

0000000080000582 <i000000005e>:
    80000582:	0ff0000f          	fence

0000000080000586 <i000000005f>:
    80000586:	d3414783          	lbu	a5,-716(sp)

000000008000058a <i0000000060>:
    8000058a:	01d0573b          	srlw	a4,zero,t4

000000008000058e <i0000000061>:
    8000058e:	e9813703          	ld	a4,-360(sp)

0000000080000592 <i0000000062>:
    80000592:	2a816a03          	lwu	s4,680(sp)

0000000080000596 <i0000000063>:
    80000596:	0000100f          	fence.i

000000008000059a <i0000000064>:
    8000059a:	ea6106a3          	sb	t1,-339(sp)

000000008000059e <i0000000065>:
    8000059e:	a3a14803          	lbu	a6,-1478(sp)

00000000800005a2 <i0000000066>:
    800005a2:	1dc16d83          	lwu	s11,476(sp)

00000000800005a6 <i0000000067>:
    800005a6:	01a49e93          	slli	t4,s1,0x1a

00000000800005aa <i0000000068>:
    800005aa:	3e813023          	sd	s0,992(sp)

00000000800005ae <i0000000069>:
    800005ae:	8f011383          	lh	t2,-1808(sp)
    800005b2:	00091117          	auipc	sp,0x91
    800005b6:	a4e10113          	addi	sp,sp,-1458 # 80091000 <begin_signature>
    800005ba:	6305                	lui	t1,0x1
    800005bc:	c083031b          	addiw	t1,t1,-1016 # c08 <_tbss_end+0xc08>
    800005c0:	911a                	add	sp,sp,t1

00000000800005c2 <i000000006a>:
    800005c2:	d8611e03          	lh	t3,-634(sp)

00000000800005c6 <i000000006b>:
    800005c6:	fe813883          	ld	a7,-24(sp)

00000000800005ca <i000000006c>:
    800005ca:	be412823          	sw	tp,-1040(sp)

00000000800005ce <i000000006d>:
    800005ce:	f3ba                	sd	a4,480(sp)

00000000800005d0 <i000000006e>:
    800005d0:	1dc11f23          	sh	t3,478(sp)
    800005d4:	00091117          	auipc	sp,0x91
    800005d8:	a2c10113          	addi	sp,sp,-1492 # 80091000 <begin_signature>
    800005dc:	6305                	lui	t1,0x1
    800005de:	7503031b          	addiw	t1,t1,1872 # 1750 <_tbss_end+0x1750>
    800005e2:	911a                	add	sp,sp,t1

00000000800005e4 <i000000006f>:
    800005e4:	f7a14883          	lbu	a7,-134(sp)

00000000800005e8 <i0000000070>:
    800005e8:	00e843b3          	xor	t2,a6,a4

00000000800005ec <i0000000071>:
    800005ec:	0000100f          	fence.i

00000000800005f0 <i0000000072>:
    800005f0:	00d01cb7          	lui	s9,0xd01

00000000800005f4 <i0000000073>:
    800005f4:	0ff0000f          	fence

00000000800005f8 <i0000000074>:
    800005f8:	00381893          	slli	a7,a6,0x3

00000000800005fc <i0000000075>:
    800005fc:	a7c11803          	lh	a6,-1412(sp)

0000000080000600 <i0000000076>:
    80000600:	e7913023          	sd	s9,-416(sp)

0000000080000604 <i0000000077>:
    80000604:	0ff0000f          	fence

0000000080000608 <i0000000078>:
    80000608:	973e                	add	a4,a4,a5

000000008000060a <i0000000079>:
    8000060a:	41085e33          	sra	t3,a6,a6

000000008000060e <i000000007a>:
    8000060e:	87f73793          	sltiu	a5,a4,-1921

0000000080000612 <i000000007b>:
    80000612:	765c3793          	sltiu	a5,s8,1893

0000000080000616 <i000000007c>:
    80000616:	0ff0000f          	fence

000000008000061a <i000000007d>:
    8000061a:	0d410503          	lb	a0,212(sp)

000000008000061e <i000000007e>:
    8000061e:	014b5793          	srli	a5,s6,0x14

0000000080000622 <i000000007f>:
    80000622:	00e7d833          	srl	a6,a5,a4

0000000080000626 <i0000000080>:
    80000626:	40f788b3          	sub	a7,a5,a5

000000008000062a <i0000000081>:
    8000062a:	ed3e                	sd	a5,152(sp)
    8000062c:	00091117          	auipc	sp,0x91
    80000630:	9d410113          	addi	sp,sp,-1580 # 80091000 <begin_signature>
    80000634:	6305                	lui	t1,0x1
    80000636:	8f83031b          	addiw	t1,t1,-1800 # 8f8 <_tbss_end+0x8f8>
    8000063a:	911a                	add	sp,sp,t1

000000008000063c <i0000000082>:
    8000063c:	7c816283          	lwu	t0,1992(sp)

0000000080000640 <i0000000083>:
    80000640:	07416003          	lwu	zero,116(sp)

0000000080000644 <i0000000084>:
    80000644:	f1d14703          	lbu	a4,-227(sp)

0000000080000648 <i0000000085>:
    80000648:	0000100f          	fence.i

000000008000064c <i0000000086>:
    8000064c:	407d579b          	sraiw	a5,s10,0x7

0000000080000650 <i0000000087>:
    80000650:	c6570713          	addi	a4,a4,-923

0000000080000654 <i0000000088>:
    80000654:	4178d23b          	sraw	tp,a7,s7
    80000658:	00091117          	auipc	sp,0x91
    8000065c:	9a810113          	addi	sp,sp,-1624 # 80091000 <begin_signature>
    80000660:	6305                	lui	t1,0x1
    80000662:	d903031b          	addiw	t1,t1,-624 # d90 <_tbss_end+0xd90>
    80000666:	911a                	add	sp,sp,t1

0000000080000668 <i0000000089>:
    80000668:	83f10d83          	lb	s11,-1985(sp)

000000008000066c <i000000008a>:
    8000066c:	0ff0000f          	fence

0000000080000670 <i000000008b>:
    80000670:	95412703          	lw	a4,-1708(sp)

0000000080000674 <i000000008c>:
    80000674:	a8010203          	lb	tp,-1408(sp)

0000000080000678 <i000000008d>:
    80000678:	40e75733          	sra	a4,a4,a4

000000008000067c <i000000008e>:
    8000067c:	0148dc13          	srli	s8,a7,0x14

0000000080000680 <i000000008f>:
    80000680:	b8011803          	lh	a6,-1152(sp)

0000000080000684 <i0000000090>:
    80000684:	0000100f          	fence.i

0000000080000688 <i0000000091>:
    80000688:	81816803          	lwu	a6,-2024(sp)

000000008000068c <i0000000092>:
    8000068c:	36914703          	lbu	a4,873(sp)

0000000080000690 <i0000000093>:
    80000690:	2c810d03          	lb	s10,712(sp)

0000000080000694 <i0000000094>:
    80000694:	0ff0000f          	fence

0000000080000698 <i0000000095>:
    80000698:	00f8073b          	addw	a4,a6,a5

000000008000069c <i0000000096>:
    8000069c:	8e013c83          	ld	s9,-1824(sp)

00000000800006a0 <i0000000097>:
    800006a0:	b0f13023          	sd	a5,-1280(sp)
    800006a4:	00091117          	auipc	sp,0x91
    800006a8:	95c10113          	addi	sp,sp,-1700 # 80091000 <begin_signature>
    800006ac:	630d                	lui	t1,0x3
    800006ae:	6003031b          	addiw	t1,t1,1536 # 3600 <_tbss_end+0x3600>
    800006b2:	911a                	add	sp,sp,t1

00000000800006b4 <i0000000098>:
    800006b4:	29416803          	lwu	a6,660(sp)

00000000800006b8 <i0000000099>:
    800006b8:	3f412803          	lw	a6,1012(sp)

00000000800006bc <i000000009a>:
    800006bc:	fb012a23          	sw	a6,-76(sp)

00000000800006c0 <i000000009b>:
    800006c0:	d4c2e693          	ori	a3,t0,-692

00000000800006c4 <i000000009c>:
    800006c4:	6e674393          	xori	t2,a4,1766

00000000800006c8 <i000000009d>:
    800006c8:	0000100f          	fence.i

00000000800006cc <i000000009e>:
    800006cc:	87514003          	lbu	zero,-1931(sp)

00000000800006d0 <i000000009f>:
    800006d0:	01a75413          	srli	s0,a4,0x1a

00000000800006d4 <i00000000a0>:
    800006d4:	b5810703          	lb	a4,-1192(sp)

00000000800006d8 <i00000000a1>:
    800006d8:	a1813703          	ld	a4,-1512(sp)

00000000800006dc <i00000000a2>:
    800006dc:	010777b3          	and	a5,a4,a6

00000000800006e0 <i00000000a3>:
    800006e0:	f1d3b613          	sltiu	a2,t2,-227

00000000800006e4 <i00000000a4>:
    800006e4:	0000100f          	fence.i

00000000800006e8 <i00000000a5>:
    800006e8:	01085633          	srl	a2,a6,a6

00000000800006ec <i00000000a6>:
    800006ec:	0000100f          	fence.i
    800006f0:	00091117          	auipc	sp,0x91
    800006f4:	91010113          	addi	sp,sp,-1776 # 80091000 <begin_signature>
    800006f8:	6309                	lui	t1,0x2
    800006fa:	6e83031b          	addiw	t1,t1,1768 # 26e8 <_tbss_end+0x26e8>
    800006fe:	911a                	add	sp,sp,t1

0000000080000700 <i00000000a7>:
    80000700:	88816703          	lwu	a4,-1912(sp)

0000000080000704 <i00000000a8>:
    80000704:	01181d9b          	slliw	s11,a6,0x11

0000000080000708 <i00000000a9>:
    80000708:	b0a10803          	lb	a6,-1270(sp)
    8000070c:	00091117          	auipc	sp,0x91
    80000710:	8f410113          	addi	sp,sp,-1804 # 80091000 <begin_signature>
    80000714:	630d                	lui	t1,0x3
    80000716:	8e83031b          	addiw	t1,t1,-1816 # 28e8 <_tbss_end+0x28e8>
    8000071a:	911a                	add	sp,sp,t1

000000008000071c <i00000000aa>:
    8000071c:	be211703          	lh	a4,-1054(sp)

0000000080000720 <i00000000ab>:
    80000720:	00e817bb          	sllw	a5,a6,a4

0000000080000724 <i00000000ac>:
    80000724:	004c971b          	slliw	a4,s9,0x4
    80000728:	00091117          	auipc	sp,0x91
    8000072c:	8d810113          	addi	sp,sp,-1832 # 80091000 <begin_signature>
    80000730:	6309                	lui	t1,0x2
    80000732:	8403031b          	addiw	t1,t1,-1984 # 1840 <_tbss_end+0x1840>
    80000736:	911a                	add	sp,sp,t1

0000000080000738 <i00000000ad>:
    80000738:	64016703          	lwu	a4,1600(sp)

000000008000073c <i00000000ae>:
    8000073c:	7b013703          	ld	a4,1968(sp)

0000000080000740 <i00000000af>:
    80000740:	39713823          	sd	s7,912(sp)

0000000080000744 <i00000000b0>:
    80000744:	0ff0000f          	fence

0000000080000748 <i00000000b1>:
    80000748:	42185813          	srai	a6,a6,0x21

000000008000074c <i00000000b2>:
    8000074c:	0ff0000f          	fence

0000000080000750 <i00000000b3>:
    80000750:	41a8549b          	sraiw	s1,a6,0x1a

0000000080000754 <i00000000b4>:
    80000754:	0ff0000f          	fence
    80000758:	00091117          	auipc	sp,0x91
    8000075c:	8a810113          	addi	sp,sp,-1880 # 80091000 <begin_signature>
    80000760:	6309                	lui	t1,0x2
    80000762:	4503031b          	addiw	t1,t1,1104 # 2450 <_tbss_end+0x2450>
    80000766:	911a                	add	sp,sp,t1

0000000080000768 <i00000000b5>:
    80000768:	4ce10fa3          	sb	a4,1247(sp)

000000008000076c <i00000000b6>:
    8000076c:	40f7db33          	sra	s6,a5,a5

0000000080000770 <i00000000b7>:
    80000770:	74912e23          	sw	s1,1884(sp)

0000000080000774 <i00000000b8>:
    80000774:	37d76493          	ori	s1,a4,893

0000000080000778 <i00000000b9>:
    80000778:	1fe14783          	lbu	a5,510(sp)

000000008000077c <i00000000ba>:
    8000077c:	02c71813          	slli	a6,a4,0x2c

0000000080000780 <i00000000bb>:
    80000780:	d9011a23          	sh	a6,-620(sp)

0000000080000784 <i00000000bc>:
    80000784:	0059e833          	or	a6,s3,t0

0000000080000788 <i00000000bd>:
    80000788:	2de10023          	sb	t5,704(sp)

000000008000078c <i00000000be>:
    8000078c:	879d                	srai	a5,a5,0x7
    8000078e:	00091117          	auipc	sp,0x91
    80000792:	87210113          	addi	sp,sp,-1934 # 80091000 <begin_signature>
    80000796:	630d                	lui	t1,0x3
    80000798:	9583031b          	addiw	t1,t1,-1704 # 2958 <_tbss_end+0x2958>
    8000079c:	911a                	add	sp,sp,t1

000000008000079e <i00000000bf>:
    8000079e:	ea810783          	lb	a5,-344(sp)

00000000800007a2 <i00000000c0>:
    800007a2:	44215803          	lhu	a6,1090(sp)

00000000800007a6 <i00000000c1>:
    800007a6:	46f11823          	sh	a5,1136(sp)

00000000800007aa <i00000000c2>:
    800007aa:	1d210803          	lb	a6,466(sp)

00000000800007ae <i00000000c3>:
    800007ae:	00e78bb3          	add	s7,a5,a4

00000000800007b2 <i00000000c4>:
    800007b2:	0000100f          	fence.i

00000000800007b6 <i00000000c5>:
    800007b6:	2c013203          	ld	tp,704(sp)

00000000800007ba <i00000000c6>:
    800007ba:	0ff0000f          	fence

00000000800007be <i00000000c7>:
    800007be:	e9210d03          	lb	s10,-366(sp)

00000000800007c2 <i00000000c8>:
    800007c2:	00f7a733          	slt	a4,a5,a5

00000000800007c6 <i00000000c9>:
    800007c6:	01bb1a9b          	slliw	s5,s6,0x1b

00000000800007ca <i00000000ca>:
    800007ca:	c0513c23          	sd	t0,-1000(sp)
    800007ce:	00091117          	auipc	sp,0x91
    800007d2:	83210113          	addi	sp,sp,-1998 # 80091000 <begin_signature>
    800007d6:	6309                	lui	t1,0x2
    800007d8:	0a03031b          	addiw	t1,t1,160 # 20a0 <_tbss_end+0x20a0>
    800007dc:	911a                	add	sp,sp,t1

00000000800007de <i00000000cb>:
    800007de:	9b012023          	sw	a6,-1632(sp)

00000000800007e2 <i00000000cc>:
    800007e2:	0000100f          	fence.i

00000000800007e6 <i00000000cd>:
    800007e6:	0ff0000f          	fence

00000000800007ea <i00000000ce>:
    800007ea:	e0c16003          	lwu	zero,-500(sp)

00000000800007ee <i00000000cf>:
    800007ee:	00075413          	srli	s0,a4,0x0

00000000800007f2 <i00000000d0>:
    800007f2:	19e14303          	lbu	t1,414(sp)

00000000800007f6 <i00000000d1>:
    800007f6:	0ff0000f          	fence

00000000800007fa <i00000000d2>:
    800007fa:	4135d7bb          	sraw	a5,a1,s3

00000000800007fe <i00000000d3>:
    800007fe:	9c013883          	ld	a7,-1600(sp)

0000000080000802 <i00000000d4>:
    80000802:	4108573b          	sraw	a4,a6,a6

0000000080000806 <i00000000d5>:
    80000806:	0ff0000f          	fence

000000008000080a <i00000000d6>:
    8000080a:	43748d1b          	addiw	s10,s1,1079

000000008000080e <i00000000d7>:
    8000080e:	01082833          	slt	a6,a6,a6

0000000080000812 <i00000000d8>:
    80000812:	b0413c23          	sd	tp,-1256(sp)

0000000080000816 <i00000000d9>:
    80000816:	3144089b          	addiw	a7,s0,788

000000008000081a <i00000000da>:
    8000081a:	0168581b          	srliw	a6,a6,0x16

000000008000081e <i00000000db>:
    8000081e:	0000100f          	fence.i

0000000080000822 <i00000000dc>:
    80000822:	d5012e23          	sw	a6,-676(sp)

0000000080000826 <i00000000dd>:
    80000826:	0ff0000f          	fence

000000008000082a <i00000000de>:
    8000082a:	62e13823          	sd	a4,1584(sp)

000000008000082e <i00000000df>:
    8000082e:	0000100f          	fence.i

0000000080000832 <i00000000e0>:
    80000832:	5c2ae917          	auipc	s2,0x5c2ae

0000000080000836 <i00000000e1>:
    80000836:	f8f13823          	sd	a5,-112(sp)

000000008000083a <i00000000e2>:
    8000083a:	012ca7b3          	slt	a5,s9,s2

000000008000083e <i00000000e3>:
    8000083e:	0ff0000f          	fence

0000000080000842 <i00000000e4>:
    80000842:	0000100f          	fence.i

0000000080000846 <i00000000e5>:
    80000846:	0107583b          	srlw	a6,a4,a6

000000008000084a <i00000000e6>:
    8000084a:	d4e6                	sw	s9,104(sp)

000000008000084c <i00000000e7>:
    8000084c:	c5210783          	lb	a5,-942(sp)

0000000080000850 <i00000000e8>:
    80000850:	01070e33          	add	t3,a4,a6

0000000080000854 <i00000000e9>:
    80000854:	0154971b          	slliw	a4,s1,0x15

0000000080000858 <i00000000ea>:
    80000858:	93e15803          	lhu	a6,-1730(sp)

000000008000085c <i00000000eb>:
    8000085c:	acf11323          	sh	a5,-1338(sp)

0000000080000860 <i00000000ec>:
    80000860:	d8013e83          	ld	t4,-640(sp)

0000000080000864 <i00000000ed>:
    80000864:	00f878b3          	and	a7,a6,a5

0000000080000868 <i00000000ee>:
    80000868:	41185e13          	srai	t3,a6,0x11

000000008000086c <i00000000ef>:
    8000086c:	01ded833          	srl	a6,t4,t4

0000000080000870 <i00000000f0>:
    80000870:	01275813          	srli	a6,a4,0x12

0000000080000874 <i00000000f1>:
    80000874:	0ff0000f          	fence

0000000080000878 <i00000000f2>:
    80000878:	0107f733          	and	a4,a5,a6

000000008000087c <i00000000f3>:
    8000087c:	0000100f          	fence.i

0000000080000880 <i00000000f4>:
    80000880:	00d7d71b          	srliw	a4,a5,0xd
    80000884:	00090117          	auipc	sp,0x90
    80000888:	77c10113          	addi	sp,sp,1916 # 80091000 <begin_signature>
    8000088c:	630d                	lui	t1,0x3
    8000088e:	0e83031b          	addiw	t1,t1,232 # 30e8 <_tbss_end+0x30e8>
    80000892:	911a                	add	sp,sp,t1

0000000080000894 <i00000000f5>:
    80000894:	25c16703          	lwu	a4,604(sp)

0000000080000898 <i00000000f6>:
    80000898:	0ff0000f          	fence
    8000089c:	00090117          	auipc	sp,0x90
    800008a0:	76410113          	addi	sp,sp,1892 # 80091000 <begin_signature>
    800008a4:	630d                	lui	t1,0x3
    800008a6:	6b83031b          	addiw	t1,t1,1720 # 36b8 <_tbss_end+0x36b8>
    800008aa:	911a                	add	sp,sp,t1

00000000800008ac <i00000000f7>:
    800008ac:	69813783          	ld	a5,1688(sp)

00000000800008b0 <i00000000f8>:
    800008b0:	00b75813          	srli	a6,a4,0xb

00000000800008b4 <i00000000f9>:
    800008b4:	ce612c23          	sw	t1,-776(sp)

00000000800008b8 <i00000000fa>:
    800008b8:	0ff0000f          	fence

00000000800008bc <i00000000fb>:
    800008bc:	0000100f          	fence.i

00000000800008c0 <i00000000fc>:
    800008c0:	b5011623          	sh	a6,-1204(sp)

00000000800008c4 <i00000000fd>:
    800008c4:	0c811803          	lh	a6,200(sp)

00000000800008c8 <i00000000fe>:
    800008c8:	eae13423          	sd	a4,-344(sp)

00000000800008cc <i00000000ff>:
    800008cc:	0ff0000f          	fence

00000000800008d0 <i0000000100>:
    800008d0:	017a1ebb          	sllw	t4,s4,s7

00000000800008d4 <i0000000101>:
    800008d4:	0000100f          	fence.i

00000000800008d8 <i0000000102>:
    800008d8:	68415703          	lhu	a4,1668(sp)

00000000800008dc <i0000000103>:
    800008dc:	0000100f          	fence.i

00000000800008e0 <i0000000104>:
    800008e0:	40185693          	srai	a3,a6,0x1

00000000800008e4 <i0000000105>:
    800008e4:	d3015803          	lhu	a6,-720(sp)

00000000800008e8 <i0000000106>:
    800008e8:	0067d71b          	srliw	a4,a5,0x6

00000000800008ec <i0000000107>:
    800008ec:	40e7883b          	subw	a6,a5,a4

00000000800008f0 <i0000000108>:
    800008f0:	0000100f          	fence.i

00000000800008f4 <i0000000109>:
    800008f4:	f7013783          	ld	a5,-144(sp)

00000000800008f8 <i000000010a>:
    800008f8:	00c7d813          	srli	a6,a5,0xc

00000000800008fc <i000000010b>:
    800008fc:	0000100f          	fence.i

0000000080000900 <i000000010c>:
    80000900:	0183c833          	xor	a6,t2,s8

0000000080000904 <i000000010d>:
    80000904:	b4d13823          	sd	a3,-1200(sp)

0000000080000908 <i000000010e>:
    80000908:	ef015783          	lhu	a5,-272(sp)

000000008000090c <i000000010f>:
    8000090c:	40f75733          	sra	a4,a4,a5

0000000080000910 <i0000000110>:
    80000910:	00d8581b          	srliw	a6,a6,0xd
    80000914:	00090117          	auipc	sp,0x90
    80000918:	6ec10113          	addi	sp,sp,1772 # 80091000 <begin_signature>
    8000091c:	630d                	lui	t1,0x3
    8000091e:	4083031b          	addiw	t1,t1,1032 # 3408 <_tbss_end+0x3408>
    80000922:	911a                	add	sp,sp,t1

0000000080000924 <i0000000111>:
    80000924:	43411923          	sh	s4,1074(sp)
    80000928:	00090117          	auipc	sp,0x90
    8000092c:	6d810113          	addi	sp,sp,1752 # 80091000 <begin_signature>
    80000930:	6305                	lui	t1,0x1
    80000932:	2a83031b          	addiw	t1,t1,680 # 12a8 <_tbss_end+0x12a8>
    80000936:	911a                	add	sp,sp,t1

0000000080000938 <i0000000112>:
    80000938:	85813f03          	ld	t5,-1960(sp)

000000008000093c <i0000000113>:
    8000093c:	0ff0000f          	fence

0000000080000940 <i0000000114>:
    80000940:	0ff0000f          	fence

0000000080000944 <i0000000115>:
    80000944:	e1416283          	lwu	t0,-492(sp)

0000000080000948 <i0000000116>:
    80000948:	01fd883b          	addw	a6,s11,t6

000000008000094c <i0000000117>:
    8000094c:	01a6073b          	addw	a4,a2,s10

0000000080000950 <i0000000118>:
    80000950:	0ff0000f          	fence

0000000080000954 <i0000000119>:
    80000954:	4ef13823          	sd	a5,1264(sp)

0000000080000958 <i000000011a>:
    80000958:	0023d713          	srli	a4,t2,0x2

000000008000095c <i000000011b>:
    8000095c:	40055f3b          	sraw	t5,a0,zero

0000000080000960 <i000000011c>:
    80000960:	ea813803          	ld	a6,-344(sp)

0000000080000964 <i000000011d>:
    80000964:	8027b793          	sltiu	a5,a5,-2046

0000000080000968 <i000000011e>:
    80000968:	01eee733          	or	a4,t4,t5

000000008000096c <i000000011f>:
    8000096c:	0000100f          	fence.i

0000000080000970 <i0000000120>:
    80000970:	01f89433          	sll	s0,a7,t6

0000000080000974 <i0000000121>:
    80000974:	a9013823          	sd	a6,-1392(sp)

0000000080000978 <i0000000122>:
    80000978:	0ff0000f          	fence

000000008000097c <i0000000123>:
    8000097c:	00f87b33          	and	s6,a6,a5
    80000980:	00090117          	auipc	sp,0x90
    80000984:	68010113          	addi	sp,sp,1664 # 80091000 <begin_signature>
    80000988:	6309                	lui	t1,0x2
    8000098a:	3803031b          	addiw	t1,t1,896 # 2380 <_tbss_end+0x2380>
    8000098e:	911a                	add	sp,sp,t1

0000000080000990 <i0000000124>:
    80000990:	59b10583          	lb	a1,1435(sp)

0000000080000994 <i0000000125>:
    80000994:	65412783          	lw	a5,1620(sp)

0000000080000998 <i0000000126>:
    80000998:	0067181b          	slliw	a6,a4,0x6

000000008000099c <i0000000127>:
    8000099c:	0000100f          	fence.i

00000000800009a0 <i0000000128>:
    800009a0:	007a149b          	slliw	s1,s4,0x7

00000000800009a4 <i0000000129>:
    800009a4:	408a873b          	subw	a4,s5,s0

00000000800009a8 <i000000012a>:
    800009a8:	c9e15b03          	lhu	s6,-866(sp)

00000000800009ac <i000000012b>:
    800009ac:	f7811703          	lh	a4,-136(sp)

00000000800009b0 <i000000012c>:
    800009b0:	41200d3b          	negw	s10,s2

00000000800009b4 <i000000012d>:
    800009b4:	0ff0000f          	fence

00000000800009b8 <i000000012e>:
    800009b8:	83714803          	lbu	a6,-1993(sp)

00000000800009bc <i000000012f>:
    800009bc:	ac813703          	ld	a4,-1336(sp)

00000000800009c0 <i0000000130>:
    800009c0:	17611783          	lh	a5,374(sp)

00000000800009c4 <i0000000131>:
    800009c4:	0ff0000f          	fence

00000000800009c8 <i0000000132>:
    800009c8:	414257b3          	sra	a5,tp,s4

00000000800009cc <i0000000133>:
    800009cc:	41013823          	sd	a6,1040(sp)

00000000800009d0 <i0000000134>:
    800009d0:	40685693          	srai	a3,a6,0x6

00000000800009d4 <i0000000135>:
    800009d4:	40c9d99b          	sraiw	s3,s3,0xc

00000000800009d8 <i0000000136>:
    800009d8:	4e016183          	lwu	gp,1248(sp)

00000000800009dc <i0000000137>:
    800009dc:	c3912823          	sw	s9,-976(sp)

00000000800009e0 <i0000000138>:
    800009e0:	0ff0000f          	fence

00000000800009e4 <i0000000139>:
    800009e4:	010739b3          	sltu	s3,a4,a6

00000000800009e8 <i000000013a>:
    800009e8:	405dd73b          	sraw	a4,s11,t0

00000000800009ec <i000000013b>:
    800009ec:	d9613423          	sd	s6,-632(sp)

00000000800009f0 <i000000013c>:
    800009f0:	410852bb          	sraw	t0,a6,a6

00000000800009f4 <i000000013d>:
    800009f4:	02305413          	srli	s0,zero,0x23

00000000800009f8 <i000000013e>:
    800009f8:	016ea833          	slt	a6,t4,s6

00000000800009fc <i000000013f>:
    800009fc:	12914383          	lbu	t2,297(sp)

0000000080000a00 <i0000000140>:
    80000a00:	3bd10983          	lb	s3,957(sp)

0000000080000a04 <i0000000141>:
    80000a04:	57011b03          	lh	s6,1392(sp)

0000000080000a08 <i0000000142>:
    80000a08:	7cc16703          	lwu	a4,1996(sp)
    80000a0c:	00090117          	auipc	sp,0x90
    80000a10:	5f410113          	addi	sp,sp,1524 # 80091000 <begin_signature>
    80000a14:	630d                	lui	t1,0x3
    80000a16:	9583031b          	addiw	t1,t1,-1704 # 2958 <_tbss_end+0x2958>
    80000a1a:	911a                	add	sp,sp,t1

0000000080000a1c <i0000000143>:
    80000a1c:	9cf11f23          	sh	a5,-1570(sp)
    80000a20:	00090117          	auipc	sp,0x90
    80000a24:	5e010113          	addi	sp,sp,1504 # 80091000 <begin_signature>
    80000a28:	630d                	lui	t1,0x3
    80000a2a:	8503031b          	addiw	t1,t1,-1968 # 2850 <_tbss_end+0x2850>
    80000a2e:	911a                	add	sp,sp,t1

0000000080000a30 <i0000000144>:
    80000a30:	18c15d03          	lhu	s10,396(sp)

0000000080000a34 <i0000000145>:
    80000a34:	01d1d81b          	srliw	a6,gp,0x1d
    80000a38:	00090117          	auipc	sp,0x90
    80000a3c:	5c810113          	addi	sp,sp,1480 # 80091000 <begin_signature>
    80000a40:	6305                	lui	t1,0x1
    80000a42:	7d03031b          	addiw	t1,t1,2000 # 17d0 <_tbss_end+0x17d0>
    80000a46:	911a                	add	sp,sp,t1

0000000080000a48 <i0000000146>:
    80000a48:	2f011723          	sh	a6,750(sp)

0000000080000a4c <i0000000147>:
    80000a4c:	40ced79b          	sraiw	a5,t4,0xc

0000000080000a50 <i0000000148>:
    80000a50:	01ff971b          	slliw	a4,t6,0x1f

0000000080000a54 <i0000000149>:
    80000a54:	27f78593          	addi	a1,a5,639

0000000080000a58 <i000000014a>:
    80000a58:	41fe853b          	subw	a0,t4,t6
    80000a5c:	00090117          	auipc	sp,0x90
    80000a60:	5a410113          	addi	sp,sp,1444 # 80091000 <begin_signature>
    80000a64:	6309                	lui	t1,0x2
    80000a66:	ec83031b          	addiw	t1,t1,-312 # 1ec8 <_tbss_end+0x1ec8>
    80000a6a:	911a                	add	sp,sp,t1

0000000080000a6c <i000000014b>:
    80000a6c:	82416783          	lwu	a5,-2012(sp)

0000000080000a70 <i000000014c>:
    80000a70:	9da6                	add	s11,s11,s1

0000000080000a72 <i000000014d>:
    80000a72:	bef13c23          	sd	a5,-1032(sp)

0000000080000a76 <i000000014e>:
    80000a76:	005e0b3b          	addw	s6,t3,t0

0000000080000a7a <i000000014f>:
    80000a7a:	40bfd813          	srai	a6,t6,0xb
    80000a7e:	00090117          	auipc	sp,0x90
    80000a82:	58210113          	addi	sp,sp,1410 # 80091000 <begin_signature>
    80000a86:	630d                	lui	t1,0x3
    80000a88:	2e83031b          	addiw	t1,t1,744 # 32e8 <_tbss_end+0x32e8>
    80000a8c:	911a                	add	sp,sp,t1

0000000080000a8e <i0000000150>:
    80000a8e:	6d013c23          	sd	a6,1752(sp)

0000000080000a92 <i0000000151>:
    80000a92:	1b810983          	lb	s3,440(sp)
    80000a96:	00090117          	auipc	sp,0x90
    80000a9a:	56a10113          	addi	sp,sp,1386 # 80091000 <begin_signature>
    80000a9e:	6309                	lui	t1,0x2
    80000aa0:	7003031b          	addiw	t1,t1,1792 # 2700 <_tbss_end+0x2700>
    80000aa4:	911a                	add	sp,sp,t1

0000000080000aa6 <i0000000152>:
    80000aa6:	5e013e03          	ld	t3,1504(sp)

0000000080000aaa <i0000000153>:
    80000aaa:	410707b3          	sub	a5,a4,a6

0000000080000aae <i0000000154>:
    80000aae:	170a                	slli	a4,a4,0x22

0000000080000ab0 <i0000000155>:
    80000ab0:	79110703          	lb	a4,1937(sp)

0000000080000ab4 <i0000000156>:
    80000ab4:	0ff0000f          	fence

0000000080000ab8 <i0000000157>:
    80000ab8:	e0c11783          	lh	a5,-500(sp)

0000000080000abc <i0000000158>:
    80000abc:	3c813a03          	ld	s4,968(sp)

0000000080000ac0 <i0000000159>:
    80000ac0:	1bb10703          	lb	a4,443(sp)
    80000ac4:	00090117          	auipc	sp,0x90
    80000ac8:	53c10113          	addi	sp,sp,1340 # 80091000 <begin_signature>
    80000acc:	6305                	lui	t1,0x1
    80000ace:	9d83031b          	addiw	t1,t1,-1576 # 9d8 <_tbss_end+0x9d8>
    80000ad2:	911a                	add	sp,sp,t1

0000000080000ad4 <i000000015a>:
    80000ad4:	b0610c03          	lb	s8,-1274(sp)

0000000080000ad8 <i000000015b>:
    80000ad8:	005d97bb          	sllw	a5,s11,t0

0000000080000adc <i000000015c>:
    80000adc:	e4e12423          	sw	a4,-440(sp)

0000000080000ae0 <i000000015d>:
    80000ae0:	59011423          	sh	a6,1416(sp)

0000000080000ae4 <i000000015e>:
    80000ae4:	0000100f          	fence.i

0000000080000ae8 <i000000015f>:
    80000ae8:	f1811c23          	sh	s8,-232(sp)

0000000080000aec <i0000000160>:
    80000aec:	fc816383          	lwu	t2,-56(sp)

0000000080000af0 <i0000000161>:
    80000af0:	0000100f          	fence.i

0000000080000af4 <i0000000162>:
    80000af4:	00f8173b          	sllw	a4,a6,a5

0000000080000af8 <i0000000163>:
    80000af8:	0ff0000f          	fence
    80000afc:	00090117          	auipc	sp,0x90
    80000b00:	50410113          	addi	sp,sp,1284 # 80091000 <begin_signature>
    80000b04:	630d                	lui	t1,0x3
    80000b06:	5683031b          	addiw	t1,t1,1384 # 3568 <_tbss_end+0x3568>
    80000b0a:	911a                	add	sp,sp,t1

0000000080000b0c <i0000000164>:
    80000b0c:	f8812623          	sw	s0,-116(sp)

0000000080000b10 <i0000000165>:
    80000b10:	01081e13          	slli	t3,a6,0x10

0000000080000b14 <i0000000166>:
    80000b14:	0000100f          	fence.i
    80000b18:	00090117          	auipc	sp,0x90
    80000b1c:	4e810113          	addi	sp,sp,1256 # 80091000 <begin_signature>
    80000b20:	630d                	lui	t1,0x3
    80000b22:	cd83031b          	addiw	t1,t1,-808 # 2cd8 <_tbss_end+0x2cd8>
    80000b26:	911a                	add	sp,sp,t1

0000000080000b28 <i0000000167>:
    80000b28:	24211d83          	lh	s11,578(sp)

0000000080000b2c <i0000000168>:
    80000b2c:	018b33b3          	sltu	t2,s6,s8

0000000080000b30 <i0000000169>:
    80000b30:	16214003          	lbu	zero,354(sp)

0000000080000b34 <i000000016a>:
    80000b34:	fb3e                	sd	a5,432(sp)

0000000080000b36 <i000000016b>:
    80000b36:	41b75813          	srai	a6,a4,0x1b
    80000b3a:	00090117          	auipc	sp,0x90
    80000b3e:	4c610113          	addi	sp,sp,1222 # 80091000 <begin_signature>
    80000b42:	630d                	lui	t1,0x3
    80000b44:	8603031b          	addiw	t1,t1,-1952 # 2860 <_tbss_end+0x2860>
    80000b48:	911a                	add	sp,sp,t1

0000000080000b4a <i000000016c>:
    80000b4a:	50e11a03          	lh	s4,1294(sp)

0000000080000b4e <i000000016d>:
    80000b4e:	0ff0000f          	fence

0000000080000b52 <i000000016e>:
    80000b52:	01082733          	slt	a4,a6,a6

0000000080000b56 <i000000016f>:
    80000b56:	ac4ca593          	slti	a1,s9,-1340

0000000080000b5a <i0000000170>:
    80000b5a:	6f013423          	sd	a6,1768(sp)

0000000080000b5e <i0000000171>:
    80000b5e:	00e7d7bb          	srlw	a5,a5,a4

0000000080000b62 <i0000000172>:
    80000b62:	2c413023          	sd	tp,704(sp)

0000000080000b66 <i0000000173>:
    80000b66:	70c12a03          	lw	s4,1804(sp)

0000000080000b6a <i0000000174>:
    80000b6a:	b6a11823          	sh	a0,-1168(sp)

0000000080000b6e <i0000000175>:
    80000b6e:	00e717b3          	sll	a5,a4,a4

0000000080000b72 <i0000000176>:
    80000b72:	0ff0000f          	fence

0000000080000b76 <i0000000177>:
    80000b76:	c3811f03          	lh	t5,-968(sp)

0000000080000b7a <i0000000178>:
    80000b7a:	0000100f          	fence.i

0000000080000b7e <i0000000179>:
    80000b7e:	3a415b03          	lhu	s6,932(sp)

0000000080000b82 <i000000017a>:
    80000b82:	96016783          	lwu	a5,-1696(sp)

0000000080000b86 <i000000017b>:
    80000b86:	05d22513          	slti	a0,tp,93

0000000080000b8a <i000000017c>:
    80000b8a:	4160093b          	negw	s2,s6
    80000b8e:	00090117          	auipc	sp,0x90
    80000b92:	47210113          	addi	sp,sp,1138 # 80091000 <begin_signature>
    80000b96:	630d                	lui	t1,0x3
    80000b98:	2341                	addiw	t1,t1,16 # 3010 <_tbss_end+0x3010>
    80000b9a:	911a                	add	sp,sp,t1

0000000080000b9c <i000000017d>:
    80000b9c:	1fd14c03          	lbu	s8,509(sp)

0000000080000ba0 <i000000017e>:
    80000ba0:	0ff0000f          	fence

0000000080000ba4 <i000000017f>:
    80000ba4:	eefe                	sd	t6,344(sp)

0000000080000ba6 <i0000000180>:
    80000ba6:	010857b3          	srl	a5,a6,a6

0000000080000baa <i0000000181>:
    80000baa:	29675037          	lui	zero,0x29675
    80000bae:	00090117          	auipc	sp,0x90
    80000bb2:	45210113          	addi	sp,sp,1106 # 80091000 <begin_signature>
    80000bb6:	6309                	lui	t1,0x2
    80000bb8:	2b03031b          	addiw	t1,t1,688 # 22b0 <_tbss_end+0x22b0>
    80000bbc:	911a                	add	sp,sp,t1

0000000080000bbe <i0000000182>:
    80000bbe:	7726                	ld	a4,104(sp)
    80000bc0:	00090117          	auipc	sp,0x90
    80000bc4:	44010113          	addi	sp,sp,1088 # 80091000 <begin_signature>
    80000bc8:	6309                	lui	t1,0x2
    80000bca:	1503031b          	addiw	t1,t1,336 # 2150 <_tbss_end+0x2150>
    80000bce:	911a                	add	sp,sp,t1

0000000080000bd0 <i0000000183>:
    80000bd0:	7f013803          	ld	a6,2032(sp)

0000000080000bd4 <i0000000184>:
    80000bd4:	0ff0000f          	fence

0000000080000bd8 <i0000000185>:
    80000bd8:	d1613423          	sd	s6,-760(sp)

0000000080000bdc <i0000000186>:
    80000bdc:	13812183          	lw	gp,312(sp)
    80000be0:	00090117          	auipc	sp,0x90
    80000be4:	42010113          	addi	sp,sp,1056 # 80091000 <begin_signature>
    80000be8:	6305                	lui	t1,0x1
    80000bea:	3203031b          	addiw	t1,t1,800 # 1320 <_tbss_end+0x1320>
    80000bee:	911a                	add	sp,sp,t1

0000000080000bf0 <i0000000187>:
    80000bf0:	37013423          	sd	a6,872(sp)

0000000080000bf4 <i0000000188>:
    80000bf4:	9a614003          	lbu	zero,-1626(sp)

0000000080000bf8 <i0000000189>:
    80000bf8:	0000100f          	fence.i

0000000080000bfc <i000000018a>:
    80000bfc:	41c9543b          	sraw	s0,s2,t3
    80000c00:	00090117          	auipc	sp,0x90
    80000c04:	40010113          	addi	sp,sp,1024 # 80091000 <begin_signature>
    80000c08:	630d                	lui	t1,0x3
    80000c0a:	3d83031b          	addiw	t1,t1,984 # 33d8 <_tbss_end+0x33d8>
    80000c0e:	911a                	add	sp,sp,t1

0000000080000c10 <i000000018b>:
    80000c10:	f356                	sd	s5,416(sp)
    80000c12:	00090117          	auipc	sp,0x90
    80000c16:	3ee10113          	addi	sp,sp,1006 # 80091000 <begin_signature>
    80000c1a:	6309                	lui	t1,0x2
    80000c1c:	c283031b          	addiw	t1,t1,-984 # 1c28 <_tbss_end+0x1c28>
    80000c20:	911a                	add	sp,sp,t1

0000000080000c22 <i000000018c>:
    80000c22:	28e13423          	sd	a4,648(sp)

0000000080000c26 <i000000018d>:
    80000c26:	06015003          	lhu	zero,96(sp)

0000000080000c2a <i000000018e>:
    80000c2a:	0139b7b3          	sltu	a5,s3,s3

0000000080000c2e <i000000018f>:
    80000c2e:	01be1013          	slli	zero,t3,0x1b

0000000080000c32 <i0000000190>:
    80000c32:	0ff0000f          	fence

0000000080000c36 <i0000000191>:
    80000c36:	40000e3b          	negw	t3,zero

0000000080000c3a <i0000000192>:
    80000c3a:	22816703          	lwu	a4,552(sp)

0000000080000c3e <i0000000193>:
    80000c3e:	03d85793          	srli	a5,a6,0x3d

0000000080000c42 <i0000000194>:
    80000c42:	00e78ebb          	addw	t4,a5,a4

0000000080000c46 <i0000000195>:
    80000c46:	91414583          	lbu	a1,-1772(sp)

0000000080000c4a <i0000000196>:
    80000c4a:	8695ce93          	xori	t4,a1,-1943

0000000080000c4e <i0000000197>:
    80000c4e:	4ae13823          	sd	a4,1200(sp)

0000000080000c52 <i0000000198>:
    80000c52:	171e                	slli	a4,a4,0x27

0000000080000c54 <i0000000199>:
    80000c54:	07011783          	lh	a5,112(sp)

0000000080000c58 <i000000019a>:
    80000c58:	585a                	lw	a6,180(sp)

0000000080000c5a <i000000019b>:
    80000c5a:	0027da93          	srli	s5,a5,0x2

0000000080000c5e <i000000019c>:
    80000c5e:	0164d913          	srli	s2,s1,0x16

0000000080000c62 <i000000019d>:
    80000c62:	40e80633          	sub	a2,a6,a4

0000000080000c66 <i000000019e>:
    80000c66:	015cd7bb          	srlw	a5,s9,s5

0000000080000c6a <i000000019f>:
    80000c6a:	b4816183          	lwu	gp,-1208(sp)

0000000080000c6e <i00000001a0>:
    80000c6e:	008a9793          	slli	a5,s5,0x8

0000000080000c72 <i00000001a1>:
    80000c72:	47e4081b          	addiw	a6,s0,1150

0000000080000c76 <i00000001a2>:
    80000c76:	413dd81b          	sraiw	a6,s11,0x13

0000000080000c7a <i00000001a3>:
    80000c7a:	28812e83          	lw	t4,648(sp)

0000000080000c7e <i00000001a4>:
    80000c7e:	29811a23          	sh	s8,660(sp)

0000000080000c82 <i00000001a5>:
    80000c82:	411c0833          	sub	a6,s8,a7

0000000080000c86 <i00000001a6>:
    80000c86:	efc16503          	lwu	a0,-260(sp)
    80000c8a:	00090117          	auipc	sp,0x90
    80000c8e:	37610113          	addi	sp,sp,886 # 80091000 <begin_signature>
    80000c92:	630d                	lui	t1,0x3
    80000c94:	9383031b          	addiw	t1,t1,-1736 # 2938 <_tbss_end+0x2938>
    80000c98:	911a                	add	sp,sp,t1

0000000080000c9a <i00000001a7>:
    80000c9a:	a7215a03          	lhu	s4,-1422(sp)

0000000080000c9e <i00000001a8>:
    80000c9e:	0106d793          	srli	a5,a3,0x10

0000000080000ca2 <i00000001a9>:
    80000ca2:	c7c16483          	lwu	s1,-900(sp)

0000000080000ca6 <i00000001aa>:
    80000ca6:	01cb9fb3          	sll	t6,s7,t3

0000000080000caa <i00000001ab>:
    80000caa:	0000100f          	fence.i
    80000cae:	00090117          	auipc	sp,0x90
    80000cb2:	35210113          	addi	sp,sp,850 # 80091000 <begin_signature>
    80000cb6:	6309                	lui	t1,0x2
    80000cb8:	c783031b          	addiw	t1,t1,-904 # 1c78 <_tbss_end+0x1c78>
    80000cbc:	911a                	add	sp,sp,t1

0000000080000cbe <i00000001ac>:
    80000cbe:	a7013783          	ld	a5,-1424(sp)

0000000080000cc2 <i00000001ad>:
    80000cc2:	0ff0000f          	fence

0000000080000cc6 <i00000001ae>:
    80000cc6:	0107b7b3          	sltu	a5,a5,a6

0000000080000cca <i00000001af>:
    80000cca:	25369317          	auipc	t1,0x25369

0000000080000cce <i00000001b0>:
    80000cce:	7efa0817          	auipc	a6,0x7efa0

0000000080000cd2 <i00000001b1>:
    80000cd2:	01f3db1b          	srliw	s6,t2,0x1f

0000000080000cd6 <i00000001b2>:
    80000cd6:	1d0109a3          	sb	a6,467(sp)

0000000080000cda <i00000001b3>:
    80000cda:	b6812423          	sw	s0,-1176(sp)

0000000080000cde <i00000001b4>:
    80000cde:	ace11e23          	sh	a4,-1316(sp)

0000000080000ce2 <i00000001b5>:
    80000ce2:	01fc08bb          	addw	a7,s8,t6

0000000080000ce6 <i00000001b6>:
    80000ce6:	8b816803          	lwu	a6,-1864(sp)

0000000080000cea <i00000001b7>:
    80000cea:	7ee07713          	andi	a4,zero,2030

0000000080000cee <i00000001b8>:
    80000cee:	30e13823          	sd	a4,784(sp)

0000000080000cf2 <i00000001b9>:
    80000cf2:	01841733          	sll	a4,s0,s8

0000000080000cf6 <i00000001ba>:
    80000cf6:	df712e23          	sw	s7,-516(sp)

0000000080000cfa <i00000001bb>:
    80000cfa:	2517b713          	sltiu	a4,a5,593

0000000080000cfe <i00000001bc>:
    80000cfe:	406a5713          	srai	a4,s4,0x6

0000000080000d02 <i00000001bd>:
    80000d02:	41d7de13          	srai	t3,a5,0x1d

0000000080000d06 <i00000001be>:
    80000d06:	41078733          	sub	a4,a5,a6

0000000080000d0a <i00000001bf>:
    80000d0a:	0077571b          	srliw	a4,a4,0x7
    80000d0e:	00090117          	auipc	sp,0x90
    80000d12:	2f210113          	addi	sp,sp,754 # 80091000 <begin_signature>
    80000d16:	6305                	lui	t1,0x1
    80000d18:	c783031b          	addiw	t1,t1,-904 # c78 <_tbss_end+0xc78>
    80000d1c:	911a                	add	sp,sp,t1

0000000080000d1e <i00000001c0>:
    80000d1e:	bb0100a3          	sb	a6,-1119(sp)

0000000080000d22 <i00000001c1>:
    80000d22:	ac624793          	xori	a5,tp,-1338

0000000080000d26 <i00000001c2>:
    80000d26:	00b8c733          	xor	a4,a7,a1

0000000080000d2a <i00000001c3>:
    80000d2a:	22880c1b          	addiw	s8,a6,552 # fffffffffefa0ef6 <_end+0xffffffff7ef08492>

0000000080000d2e <i00000001c4>:
    80000d2e:	0017961b          	slliw	a2,a5,0x1

0000000080000d32 <i00000001c5>:
    80000d32:	0113f833          	and	a6,t2,a7

0000000080000d36 <i00000001c6>:
    80000d36:	46812903          	lw	s2,1128(sp)

0000000080000d3a <i00000001c7>:
    80000d3a:	0017d99b          	srliw	s3,a5,0x1

0000000080000d3e <i00000001c8>:
    80000d3e:	03296813          	ori	a6,s2,50

0000000080000d42 <i00000001c9>:
    80000d42:	40f707b3          	sub	a5,a4,a5

0000000080000d46 <i00000001ca>:
    80000d46:	94f104a3          	sb	a5,-1719(sp)
    80000d4a:	00090117          	auipc	sp,0x90
    80000d4e:	2b610113          	addi	sp,sp,694 # 80091000 <begin_signature>
    80000d52:	6305                	lui	t1,0x1
    80000d54:	f583031b          	addiw	t1,t1,-168 # f58 <_tbss_end+0xf58>
    80000d58:	911a                	add	sp,sp,t1

0000000080000d5a <i00000001cb>:
    80000d5a:	59813383          	ld	t2,1432(sp)

0000000080000d5e <i00000001cc>:
    80000d5e:	01ead513          	srli	a0,s5,0x1e

0000000080000d62 <i00000001cd>:
    80000d62:	40a75a1b          	sraiw	s4,a4,0xa

0000000080000d66 <i00000001ce>:
    80000d66:	018d573b          	srlw	a4,s10,s8

0000000080000d6a <i00000001cf>:
    80000d6a:	fec12703          	lw	a4,-20(sp)

0000000080000d6e <i00000001d0>:
    80000d6e:	0000100f          	fence.i

0000000080000d72 <i00000001d1>:
    80000d72:	0ff0000f          	fence

0000000080000d76 <i00000001d2>:
    80000d76:	0000100f          	fence.i

0000000080000d7a <i00000001d3>:
    80000d7a:	004b983b          	sllw	a6,s7,tp

0000000080000d7e <i00000001d4>:
    80000d7e:	002d9793          	slli	a5,s11,0x2

0000000080000d82 <i00000001d5>:
    80000d82:	9c211783          	lh	a5,-1598(sp)

0000000080000d86 <i00000001d6>:
    80000d86:	ea8b081b          	addiw	a6,s6,-344 # ffffffff958fa40a <_end+0xffffffff158619a6>

0000000080000d8a <i00000001d7>:
    80000d8a:	0000100f          	fence.i

0000000080000d8e <i00000001d8>:
    80000d8e:	00775913          	srli	s2,a4,0x7

0000000080000d92 <i00000001d9>:
    80000d92:	e6f11c23          	sh	a5,-392(sp)

0000000080000d96 <i00000001da>:
    80000d96:	fdb84793          	xori	a5,a6,-37

0000000080000d9a <i00000001db>:
    80000d9a:	004a1733          	sll	a4,s4,tp

0000000080000d9e <i00000001dc>:
    80000d9e:	0000100f          	fence.i

0000000080000da2 <i00000001dd>:
    80000da2:	ddc12803          	lw	a6,-548(sp)
    80000da6:	00090117          	auipc	sp,0x90
    80000daa:	25a10113          	addi	sp,sp,602 # 80091000 <begin_signature>
    80000dae:	630d                	lui	t1,0x3
    80000db0:	c083031b          	addiw	t1,t1,-1016 # 2c08 <_tbss_end+0x2c08>
    80000db4:	911a                	add	sp,sp,t1

0000000080000db6 <i00000001de>:
    80000db6:	fa410d03          	lb	s10,-92(sp)

0000000080000dba <i00000001df>:
    80000dba:	0ff0000f          	fence

0000000080000dbe <i00000001e0>:
    80000dbe:	94813f03          	ld	t5,-1720(sp)

0000000080000dc2 <i00000001e1>:
    80000dc2:	01869793          	slli	a5,a3,0x18

0000000080000dc6 <i00000001e2>:
    80000dc6:	00d71813          	slli	a6,a4,0xd

0000000080000dca <i00000001e3>:
    80000dca:	3826c717          	auipc	a4,0x3826c

0000000080000dce <i00000001e4>:
    80000dce:	bd28079b          	addiw	a5,a6,-1070

0000000080000dd2 <i00000001e5>:
    80000dd2:	00761033          	sll	zero,a2,t2

0000000080000dd6 <i00000001e6>:
    80000dd6:	cfb13023          	sd	s11,-800(sp)

0000000080000dda <i00000001e7>:
    80000dda:	d2013803          	ld	a6,-736(sp)
    80000dde:	00090117          	auipc	sp,0x90
    80000de2:	22210113          	addi	sp,sp,546 # 80091000 <begin_signature>
    80000de6:	6309                	lui	t1,0x2
    80000de8:	3683031b          	addiw	t1,t1,872 # 2368 <_tbss_end+0x2368>
    80000dec:	911a                	add	sp,sp,t1

0000000080000dee <i00000001e8>:
    80000dee:	9f010323          	sb	a6,-1562(sp)

0000000080000df2 <i00000001e9>:
    80000df2:	0ff0000f          	fence

0000000080000df6 <i00000001ea>:
    80000df6:	0ff0000f          	fence
    80000dfa:	00090117          	auipc	sp,0x90
    80000dfe:	20610113          	addi	sp,sp,518 # 80091000 <begin_signature>
    80000e02:	6305                	lui	t1,0x1
    80000e04:	7503031b          	addiw	t1,t1,1872 # 1750 <_tbss_end+0x1750>
    80000e08:	911a                	add	sp,sp,t1

0000000080000e0a <i00000001eb>:
    80000e0a:	b5c16983          	lwu	s3,-1188(sp)

0000000080000e0e <i00000001ec>:
    80000e0e:	4fd50a9b          	addiw	s5,a0,1277

0000000080000e12 <i00000001ed>:
    80000e12:	0000100f          	fence.i

0000000080000e16 <i00000001ee>:
    80000e16:	00f7c8b3          	xor	a7,a5,a5

0000000080000e1a <i00000001ef>:
    80000e1a:	0000100f          	fence.i

0000000080000e1e <i00000001f0>:
    80000e1e:	97714703          	lbu	a4,-1673(sp)

0000000080000e22 <i00000001f1>:
    80000e22:	ddaf8713          	addi	a4,t6,-550
    80000e26:	00090117          	auipc	sp,0x90
    80000e2a:	1da10113          	addi	sp,sp,474 # 80091000 <begin_signature>
    80000e2e:	6309                	lui	t1,0x2
    80000e30:	b483031b          	addiw	t1,t1,-1208 # 1b48 <_tbss_end+0x1b48>
    80000e34:	911a                	add	sp,sp,t1

0000000080000e36 <i00000001f2>:
    80000e36:	c5911d23          	sh	s9,-934(sp)
    80000e3a:	00090117          	auipc	sp,0x90
    80000e3e:	1c610113          	addi	sp,sp,454 # 80091000 <begin_signature>
    80000e42:	6309                	lui	t1,0x2
    80000e44:	fc83031b          	addiw	t1,t1,-56 # 1fc8 <_tbss_end+0x1fc8>
    80000e48:	911a                	add	sp,sp,t1

0000000080000e4a <i00000001f3>:
    80000e4a:	98e11003          	lh	zero,-1650(sp)

0000000080000e4e <i00000001f4>:
    80000e4e:	5bc16203          	lwu	tp,1468(sp)

0000000080000e52 <i00000001f5>:
    80000e52:	59013423          	sd	a6,1416(sp)

0000000080000e56 <i00000001f6>:
    80000e56:	4d779597          	auipc	a1,0x4d779

0000000080000e5a <i00000001f7>:
    80000e5a:	4098dd1b          	sraiw	s10,a7,0x9

0000000080000e5e <i00000001f8>:
    80000e5e:	01071d93          	slli	s11,a4,0x10

0000000080000e62 <i00000001f9>:
    80000e62:	5a615f03          	lhu	t5,1446(sp)

0000000080000e66 <i00000001fa>:
    80000e66:	b8980393          	addi	t2,a6,-1143

0000000080000e6a <i00000001fb>:
    80000e6a:	5e760813          	addi	a6,a2,1511 # a3d6899d <_end+0x23ccff39>
    80000e6e:	00090117          	auipc	sp,0x90
    80000e72:	19210113          	addi	sp,sp,402 # 80091000 <begin_signature>
    80000e76:	6305                	lui	t1,0x1
    80000e78:	9a83031b          	addiw	t1,t1,-1624 # 9a8 <_tbss_end+0x9a8>
    80000e7c:	911a                	add	sp,sp,t1

0000000080000e7e <i00000001fc>:
    80000e7e:	7a016b83          	lwu	s7,1952(sp)

0000000080000e82 <i00000001fd>:
    80000e82:	38614f03          	lbu	t5,902(sp)

0000000080000e86 <i00000001fe>:
    80000e86:	0000100f          	fence.i

0000000080000e8a <i00000001ff>:
    80000e8a:	67012b03          	lw	s6,1648(sp)

0000000080000e8e <i0000000200>:
    80000e8e:	005ea733          	slt	a4,t4,t0

0000000080000e92 <i0000000201>:
    80000e92:	f6f11123          	sh	a5,-158(sp)

0000000080000e96 <i0000000202>:
    80000e96:	e4f13423          	sd	a5,-440(sp)

0000000080000e9a <i0000000203>:
    80000e9a:	01175693          	srli	a3,a4,0x11

0000000080000e9e <i0000000204>:
    80000e9e:	0ff0000f          	fence

0000000080000ea2 <i0000000205>:
    80000ea2:	40e75e3b          	sraw	t3,a4,a4
    80000ea6:	00090117          	auipc	sp,0x90
    80000eaa:	15a10113          	addi	sp,sp,346 # 80091000 <begin_signature>
    80000eae:	630d                	lui	t1,0x3
    80000eb0:	be83031b          	addiw	t1,t1,-1048 # 2be8 <_tbss_end+0x2be8>
    80000eb4:	911a                	add	sp,sp,t1

0000000080000eb6 <i0000000206>:
    80000eb6:	bd013423          	sd	a6,-1080(sp)

0000000080000eba <i0000000207>:
    80000eba:	c4e102a3          	sb	a4,-955(sp)
    80000ebe:	00090117          	auipc	sp,0x90
    80000ec2:	14210113          	addi	sp,sp,322 # 80091000 <begin_signature>
    80000ec6:	6309                	lui	t1,0x2
    80000ec8:	cc03031b          	addiw	t1,t1,-832 # 1cc0 <_tbss_end+0x1cc0>
    80000ecc:	911a                	add	sp,sp,t1

0000000080000ece <i0000000208>:
    80000ece:	6f510223          	sb	s5,1764(sp)

0000000080000ed2 <i0000000209>:
    80000ed2:	00e8183b          	sllw	a6,a6,a4

0000000080000ed6 <i000000020a>:
    80000ed6:	006d97bb          	sllw	a5,s11,t1

0000000080000eda <i000000020b>:
    80000eda:	41a0571b          	sraiw	a4,zero,0x1a

0000000080000ede <i000000020c>:
    80000ede:	27811703          	lh	a4,632(sp)

0000000080000ee2 <i000000020d>:
    80000ee2:	a8314783          	lbu	a5,-1405(sp)

0000000080000ee6 <i000000020e>:
    80000ee6:	00215803          	lhu	a6,2(sp)

0000000080000eea <i000000020f>:
    80000eea:	617fe737          	lui	a4,0x617fe

0000000080000eee <i0000000210>:
    80000eee:	6846                	ld	a6,80(sp)

0000000080000ef0 <i0000000211>:
    80000ef0:	0000100f          	fence.i

0000000080000ef4 <i0000000212>:
    80000ef4:	ed813583          	ld	a1,-296(sp)

0000000080000ef8 <i0000000213>:
    80000ef8:	0ff0000f          	fence

0000000080000efc <i0000000214>:
    80000efc:	92813783          	ld	a5,-1752(sp)

0000000080000f00 <i0000000215>:
    80000f00:	40e85833          	sra	a6,a6,a4

0000000080000f04 <i0000000216>:
    80000f04:	41c45c93          	srai	s9,s0,0x1c

0000000080000f08 <i0000000217>:
    80000f08:	36816383          	lwu	t2,872(sp)

0000000080000f0c <i0000000218>:
    80000f0c:	dac13823          	sd	a2,-592(sp)
    80000f10:	00090117          	auipc	sp,0x90
    80000f14:	0f010113          	addi	sp,sp,240 # 80091000 <begin_signature>
    80000f18:	6309                	lui	t1,0x2
    80000f1a:	e183031b          	addiw	t1,t1,-488 # 1e18 <_tbss_end+0x1e18>
    80000f1e:	911a                	add	sp,sp,t1

0000000080000f20 <i0000000219>:
    80000f20:	99016703          	lwu	a4,-1648(sp)

0000000080000f24 <i000000021a>:
    80000f24:	0107a833          	slt	a6,a5,a6

0000000080000f28 <i000000021b>:
    80000f28:	0000100f          	fence.i

0000000080000f2c <i000000021c>:
    80000f2c:	2fd10603          	lb	a2,765(sp)

0000000080000f30 <i000000021d>:
    80000f30:	0ff0000f          	fence

0000000080000f34 <i000000021e>:
    80000f34:	58f14217          	auipc	tp,0x58f14

0000000080000f38 <i000000021f>:
    80000f38:	20e13023          	sd	a4,512(sp)

0000000080000f3c <i0000000220>:
    80000f3c:	58812e83          	lw	t4,1416(sp)

0000000080000f40 <i0000000221>:
    80000f40:	5cf13c23          	sd	a5,1496(sp)

0000000080000f44 <i0000000222>:
    80000f44:	3d813803          	ld	a6,984(sp)
    80000f48:	00090117          	auipc	sp,0x90
    80000f4c:	0b810113          	addi	sp,sp,184 # 80091000 <begin_signature>
    80000f50:	6305                	lui	t1,0x1
    80000f52:	c583031b          	addiw	t1,t1,-936 # c58 <_tbss_end+0xc58>
    80000f56:	911a                	add	sp,sp,t1

0000000080000f58 <i0000000223>:
    80000f58:	f5911e23          	sh	s9,-164(sp)

0000000080000f5c <i0000000224>:
    80000f5c:	d4e102a3          	sb	a4,-699(sp)

0000000080000f60 <i0000000225>:
    80000f60:	0ec10503          	lb	a0,236(sp)

0000000080000f64 <i0000000226>:
    80000f64:	98e13823          	sd	a4,-1648(sp)

0000000080000f68 <i0000000227>:
    80000f68:	72816783          	lwu	a5,1832(sp)

0000000080000f6c <i0000000228>:
    80000f6c:	0ff0000f          	fence

0000000080000f70 <i0000000229>:
    80000f70:	7c016703          	lwu	a4,1984(sp)

0000000080000f74 <i000000022a>:
    80000f74:	00f7873b          	addw	a4,a5,a5

0000000080000f78 <i000000022b>:
    80000f78:	72d56f17          	auipc	t5,0x72d56

0000000080000f7c <i000000022c>:
    80000f7c:	34db8a9b          	addiw	s5,s7,845

0000000080000f80 <i000000022d>:
    80000f80:	0000100f          	fence.i

0000000080000f84 <i000000022e>:
    80000f84:	6759841b          	addiw	s0,s3,1653

0000000080000f88 <i000000022f>:
    80000f88:	0000100f          	fence.i

0000000080000f8c <i0000000230>:
    80000f8c:	4947c713          	xori	a4,a5,1172

0000000080000f90 <i0000000231>:
    80000f90:	0ff0000f          	fence

0000000080000f94 <i0000000232>:
    80000f94:	0ff0000f          	fence

0000000080000f98 <i0000000233>:
    80000f98:	0000100f          	fence.i

0000000080000f9c <i0000000234>:
    80000f9c:	015399bb          	sllw	s3,t2,s5

0000000080000fa0 <i0000000235>:
    80000fa0:	0ff0000f          	fence

0000000080000fa4 <i0000000236>:
    80000fa4:	cdf7899b          	addiw	s3,a5,-801

0000000080000fa8 <i0000000237>:
    80000fa8:	dee13423          	sd	a4,-536(sp)

0000000080000fac <i0000000238>:
    80000fac:	03011123          	sh	a6,34(sp)

0000000080000fb0 <i0000000239>:
    80000fb0:	53e74813          	xori	a6,a4,1342

0000000080000fb4 <i000000023a>:
    80000fb4:	0000100f          	fence.i

0000000080000fb8 <i000000023b>:
    80000fb8:	b5012023          	sw	a6,-1216(sp)

0000000080000fbc <i000000023c>:
    80000fbc:	7ee10623          	sb	a4,2028(sp)

0000000080000fc0 <i000000023d>:
    80000fc0:	56c16b83          	lwu	s7,1388(sp)

0000000080000fc4 <i000000023e>:
    80000fc4:	d2411803          	lh	a6,-732(sp)

0000000080000fc8 <i000000023f>:
    80000fc8:	0000100f          	fence.i

0000000080000fcc <i0000000240>:
    80000fcc:	c5416803          	lwu	a6,-940(sp)

0000000080000fd0 <i0000000241>:
    80000fd0:	49b3b813          	sltiu	a6,t2,1179

0000000080000fd4 <i0000000242>:
    80000fd4:	0ff0000f          	fence

0000000080000fd8 <i0000000243>:
    80000fd8:	59816283          	lwu	t0,1432(sp)

0000000080000fdc <i0000000244>:
    80000fdc:	10a11703          	lh	a4,266(sp)

0000000080000fe0 <i0000000245>:
    80000fe0:	0067539b          	srliw	t2,a4,0x6

0000000080000fe4 <i0000000246>:
    80000fe4:	41a9d733          	sra	a4,s3,s10

0000000080000fe8 <i0000000247>:
    80000fe8:	00cce833          	or	a6,s9,a2

0000000080000fec <i0000000248>:
    80000fec:	49816983          	lwu	s3,1176(sp)

0000000080000ff0 <i0000000249>:
    80000ff0:	a0f14883          	lbu	a7,-1521(sp)

0000000080000ff4 <i000000024a>:
    80000ff4:	410808bb          	subw	a7,a6,a6

0000000080000ff8 <i000000024b>:
    80000ff8:	00f7bf33          	sltu	t5,a5,a5

0000000080000ffc <i000000024c>:
    80000ffc:	0000100f          	fence.i

0000000080001000 <i000000024d>:
    80001000:	00ef5c9b          	srliw	s9,t5,0xe

0000000080001004 <i000000024e>:
    80001004:	b6e12023          	sw	a4,-1184(sp)

0000000080001008 <i000000024f>:
    80001008:	c8816283          	lwu	t0,-888(sp)

000000008000100c <i0000000250>:
    8000100c:	01965793          	srli	a5,a2,0x19

0000000080001010 <i0000000251>:
    80001010:	2b813203          	ld	tp,696(sp)

0000000080001014 <i0000000252>:
    80001014:	0ff0000f          	fence

0000000080001018 <i0000000253>:
    80001018:	57a13c23          	sd	s10,1400(sp)

000000008000101c <i0000000254>:
    8000101c:	16e15303          	lhu	t1,366(sp)

0000000080001020 <i0000000255>:
    80001020:	9f413823          	sd	s4,-1552(sp)

0000000080001024 <i0000000256>:
    80001024:	40e7d733          	sra	a4,a5,a4

0000000080001028 <i0000000257>:
    80001028:	017f1ebb          	sllw	t4,t5,s7

000000008000102c <i0000000258>:
    8000102c:	00e7d7bb          	srlw	a5,a5,a4

0000000080001030 <i0000000259>:
    80001030:	0000100f          	fence.i

0000000080001034 <i000000025a>:
    80001034:	0000100f          	fence.i

0000000080001038 <i000000025b>:
    80001038:	27211383          	lh	t2,626(sp)

000000008000103c <i000000025c>:
    8000103c:	01e7db13          	srli	s6,a5,0x1e

0000000080001040 <i000000025d>:
    80001040:	00f7e833          	or	a6,a5,a5
    80001044:	00090117          	auipc	sp,0x90
    80001048:	fbc10113          	addi	sp,sp,-68 # 80091000 <begin_signature>
    8000104c:	630d                	lui	t1,0x3
    8000104e:	eb03031b          	addiw	t1,t1,-336 # 2eb0 <_tbss_end+0x2eb0>
    80001052:	911a                	add	sp,sp,t1

0000000080001054 <i000000025e>:
    80001054:	a0b13423          	sd	a1,-1528(sp)

0000000080001058 <i000000025f>:
    80001058:	0000100f          	fence.i

000000008000105c <i0000000260>:
    8000105c:	0000100f          	fence.i

0000000080001060 <i0000000261>:
    80001060:	ba813383          	ld	t2,-1112(sp)

0000000080001064 <i0000000262>:
    80001064:	0107573b          	srlw	a4,a4,a6
    80001068:	00090117          	auipc	sp,0x90
    8000106c:	f9810113          	addi	sp,sp,-104 # 80091000 <begin_signature>
    80001070:	630d                	lui	t1,0x3
    80001072:	dd83031b          	addiw	t1,t1,-552 # 2dd8 <_tbss_end+0x2dd8>
    80001076:	911a                	add	sp,sp,t1

0000000080001078 <i0000000263>:
    80001078:	7ae13423          	sd	a4,1960(sp)

000000008000107c <i0000000264>:
    8000107c:	b3a15783          	lhu	a5,-1222(sp)
    80001080:	00090117          	auipc	sp,0x90
    80001084:	f8010113          	addi	sp,sp,-128 # 80091000 <begin_signature>
    80001088:	6309                	lui	t1,0x2
    8000108a:	1283031b          	addiw	t1,t1,296 # 2128 <_tbss_end+0x2128>
    8000108e:	911a                	add	sp,sp,t1

0000000080001090 <i0000000265>:
    80001090:	e6813f03          	ld	t5,-408(sp)

0000000080001094 <i0000000266>:
    80001094:	5a013f03          	ld	t5,1440(sp)

0000000080001098 <i0000000267>:
    80001098:	0000100f          	fence.i

000000008000109c <i0000000268>:
    8000109c:	0ff0000f          	fence

00000000800010a0 <i0000000269>:
    800010a0:	d1011703          	lh	a4,-752(sp)

00000000800010a4 <i000000026a>:
    800010a4:	481a                	lw	a6,132(sp)

00000000800010a6 <i000000026b>:
    800010a6:	4196debb          	sraw	t4,a3,s9

00000000800010aa <i000000026c>:
    800010aa:	0ff0000f          	fence

00000000800010ae <i000000026d>:
    800010ae:	87013c23          	sd	a6,-1928(sp)

00000000800010b2 <i000000026e>:
    800010b2:	41080a33          	sub	s4,a6,a6

00000000800010b6 <i000000026f>:
    800010b6:	90614803          	lbu	a6,-1786(sp)

00000000800010ba <i0000000270>:
    800010ba:	00f7b833          	sltu	a6,a5,a5

00000000800010be <i0000000271>:
    800010be:	00a91b3b          	sllw	s6,s2,a0

00000000800010c2 <i0000000272>:
    800010c2:	edc12823          	sw	t3,-304(sp)
    800010c6:	00090117          	auipc	sp,0x90
    800010ca:	f3a10113          	addi	sp,sp,-198 # 80091000 <begin_signature>
    800010ce:	630d                	lui	t1,0x3
    800010d0:	2003031b          	addiw	t1,t1,512 # 3200 <_tbss_end+0x3200>
    800010d4:	911a                	add	sp,sp,t1

00000000800010d6 <i0000000273>:
    800010d6:	8f813d83          	ld	s11,-1800(sp)

00000000800010da <i0000000274>:
    800010da:	40e707bb          	subw	a5,a4,a4

00000000800010de <i0000000275>:
    800010de:	c6c11983          	lh	s3,-916(sp)

00000000800010e2 <i0000000276>:
    800010e2:	21412f83          	lw	t6,532(sp)

00000000800010e6 <i0000000277>:
    800010e6:	99016603          	lwu	a2,-1648(sp)

00000000800010ea <i0000000278>:
    800010ea:	00d7d79b          	srliw	a5,a5,0xd

00000000800010ee <i0000000279>:
    800010ee:	4126d393          	srai	t2,a3,0x12

00000000800010f2 <i000000027a>:
    800010f2:	86e13c23          	sd	a4,-1928(sp)

00000000800010f6 <i000000027b>:
    800010f6:	65013703          	ld	a4,1616(sp)

00000000800010fa <i000000027c>:
    800010fa:	48f11523          	sh	a5,1162(sp)

00000000800010fe <i000000027d>:
    800010fe:	99813983          	ld	s3,-1640(sp)

0000000080001102 <i000000027e>:
    80001102:	94dc4713          	xori	a4,s8,-1715

0000000080001106 <i000000027f>:
    80001106:	82013883          	ld	a7,-2016(sp)

000000008000110a <i0000000280>:
    8000110a:	2c813783          	ld	a5,712(sp)

000000008000110e <i0000000281>:
    8000110e:	00e75bbb          	srlw	s7,a4,a4

0000000080001112 <i0000000282>:
    80001112:	0000100f          	fence.i

0000000080001116 <i0000000283>:
    80001116:	d2f10523          	sb	a5,-726(sp)

000000008000111a <i0000000284>:
    8000111a:	73410783          	lb	a5,1844(sp)
    8000111e:	00090117          	auipc	sp,0x90
    80001122:	ee210113          	addi	sp,sp,-286 # 80091000 <begin_signature>
    80001126:	630d                	lui	t1,0x3
    80001128:	7003031b          	addiw	t1,t1,1792 # 3700 <_tbss_end+0x3700>
    8000112c:	911a                	add	sp,sp,t1

000000008000112e <i0000000285>:
    8000112e:	82813423          	sd	s0,-2008(sp)

0000000080001132 <i0000000286>:
    80001132:	0197d693          	srli	a3,a5,0x19

0000000080001136 <i0000000287>:
    80001136:	56c11683          	lh	a3,1388(sp)

000000008000113a <i0000000288>:
    8000113a:	96e15183          	lhu	gp,-1682(sp)

000000008000113e <i0000000289>:
    8000113e:	0017571b          	srliw	a4,a4,0x1

0000000080001142 <i000000028a>:
    80001142:	7c402717          	auipc	a4,0x7c402

0000000080001146 <i000000028b>:
    80001146:	bd813c03          	ld	s8,-1064(sp)

000000008000114a <i000000028c>:
    8000114a:	72ecb817          	auipc	a6,0x72ecb

000000008000114e <i000000028d>:
    8000114e:	1e469497          	auipc	s1,0x1e469

0000000080001152 <i000000028e>:
    80001152:	7b413423          	sd	s4,1960(sp)

0000000080001156 <i000000028f>:
    80001156:	19311323          	sh	s3,390(sp)

000000008000115a <i0000000290>:
    8000115a:	81813903          	ld	s2,-2024(sp)

000000008000115e <i0000000291>:
    8000115e:	55c16a03          	lwu	s4,1372(sp)

0000000080001162 <i0000000292>:
    80001162:	00939713          	slli	a4,t2,0x9

0000000080001166 <i0000000293>:
    80001166:	c3011e23          	sh	a6,-964(sp)

000000008000116a <i0000000294>:
    8000116a:	0ff0000f          	fence

000000008000116e <i0000000295>:
    8000116e:	4cd13c23          	sd	a3,1240(sp)

0000000080001172 <i0000000296>:
    80001172:	0ff0000f          	fence

0000000080001176 <i0000000297>:
    80001176:	01599cbb          	sllw	s9,s3,s5
    8000117a:	00090117          	auipc	sp,0x90
    8000117e:	e8610113          	addi	sp,sp,-378 # 80091000 <begin_signature>
    80001182:	630d                	lui	t1,0x3
    80001184:	f103031b          	addiw	t1,t1,-240 # 2f10 <_tbss_end+0x2f10>
    80001188:	911a                	add	sp,sp,t1

000000008000118a <i0000000298>:
    8000118a:	46013783          	ld	a5,1120(sp)

000000008000118e <i0000000299>:
    8000118e:	0ff0000f          	fence

0000000080001192 <i000000029a>:
    80001192:	d7012823          	sw	a6,-656(sp)

0000000080001196 <i000000029b>:
    80001196:	035d1813          	slli	a6,s10,0x35

000000008000119a <i000000029c>:
    8000119a:	0ff0000f          	fence

000000008000119e <i000000029d>:
    8000119e:	2837879b          	addiw	a5,a5,643

00000000800011a2 <i000000029e>:
    800011a2:	43e11803          	lh	a6,1086(sp)

00000000800011a6 <i000000029f>:
    800011a6:	0000100f          	fence.i

00000000800011aa <i00000002a0>:
    800011aa:	0000100f          	fence.i

00000000800011ae <i00000002a1>:
    800011ae:	0ff0000f          	fence

00000000800011b2 <i00000002a2>:
    800011b2:	c4011803          	lh	a6,-960(sp)

00000000800011b6 <i00000002a3>:
    800011b6:	56813703          	ld	a4,1384(sp)

00000000800011ba <i00000002a4>:
    800011ba:	40f7853b          	subw	a0,a5,a5

00000000800011be <i00000002a5>:
    800011be:	0000100f          	fence.i

00000000800011c2 <i00000002a6>:
    800011c2:	0000100f          	fence.i

00000000800011c6 <i00000002a7>:
    800011c6:	0000100f          	fence.i

00000000800011ca <i00000002a8>:
    800011ca:	41a2d71b          	sraiw	a4,t0,0x1a

00000000800011ce <i00000002a9>:
    800011ce:	5c816803          	lwu	a6,1480(sp)
    800011d2:	00090117          	auipc	sp,0x90
    800011d6:	e2e10113          	addi	sp,sp,-466 # 80091000 <begin_signature>
    800011da:	6305                	lui	t1,0x1
    800011dc:	2383031b          	addiw	t1,t1,568 # 1238 <_tbss_end+0x1238>
    800011e0:	911a                	add	sp,sp,t1

00000000800011e2 <i00000002aa>:
    800011e2:	94013823          	sd	zero,-1712(sp)

00000000800011e6 <i00000002ab>:
    800011e6:	62010a03          	lb	s4,1568(sp)

00000000800011ea <i00000002ac>:
    800011ea:	38214803          	lbu	a6,898(sp)

00000000800011ee <i00000002ad>:
    800011ee:	cc511523          	sh	t0,-822(sp)

00000000800011f2 <i00000002ae>:
    800011f2:	42c15c83          	lhu	s9,1068(sp)

00000000800011f6 <i00000002af>:
    800011f6:	4b313023          	sd	s3,1184(sp)

00000000800011fa <i00000002b0>:
    800011fa:	005bd81b          	srliw	a6,s7,0x5

00000000800011fe <i00000002b1>:
    800011fe:	40f70b3b          	subw	s6,a4,a5

0000000080001202 <i00000002b2>:
    80001202:	0000100f          	fence.i

0000000080001206 <i00000002b3>:
    80001206:	0ff0000f          	fence

000000008000120a <i00000002b4>:
    8000120a:	3ac15703          	lhu	a4,940(sp)
    8000120e:	00090117          	auipc	sp,0x90
    80001212:	df210113          	addi	sp,sp,-526 # 80091000 <begin_signature>
    80001216:	630d                	lui	t1,0x3
    80001218:	d003031b          	addiw	t1,t1,-768 # 2d00 <_tbss_end+0x2d00>
    8000121c:	911a                	add	sp,sp,t1

000000008000121e <i00000002b5>:
    8000121e:	1b012783          	lw	a5,432(sp)

0000000080001222 <i00000002b6>:
    80001222:	0000100f          	fence.i

0000000080001226 <i00000002b7>:
    80001226:	0ff0000f          	fence
    8000122a:	00090117          	auipc	sp,0x90
    8000122e:	dd610113          	addi	sp,sp,-554 # 80091000 <begin_signature>
    80001232:	6305                	lui	t1,0x1
    80001234:	9983031b          	addiw	t1,t1,-1640 # 998 <_tbss_end+0x998>
    80001238:	911a                	add	sp,sp,t1

000000008000123a <i00000002b8>:
    8000123a:	25013023          	sd	a6,576(sp)

000000008000123e <i00000002b9>:
    8000123e:	cbc11783          	lh	a5,-836(sp)

0000000080001242 <i00000002ba>:
    80001242:	e8d14383          	lbu	t2,-371(sp)

0000000080001246 <i00000002bb>:
    80001246:	0119d73b          	srlw	a4,s3,a7

000000008000124a <i00000002bc>:
    8000124a:	ee82                	sd	zero,344(sp)
    8000124c:	00090117          	auipc	sp,0x90
    80001250:	db410113          	addi	sp,sp,-588 # 80091000 <begin_signature>
    80001254:	6309                	lui	t1,0x2
    80001256:	5383031b          	addiw	t1,t1,1336 # 2538 <_tbss_end+0x2538>
    8000125a:	911a                	add	sp,sp,t1

000000008000125c <i00000002bd>:
    8000125c:	12016803          	lwu	a6,288(sp)

0000000080001260 <i00000002be>:
    80001260:	f4013803          	ld	a6,-192(sp)

0000000080001264 <i00000002bf>:
    80001264:	0ff0000f          	fence

0000000080001268 <i00000002c0>:
    80001268:	fe912223          	sw	s1,-28(sp)

000000008000126c <i00000002c1>:
    8000126c:	b08103a3          	sb	s0,-1273(sp)

0000000080001270 <i00000002c2>:
    80001270:	0000100f          	fence.i

0000000080001274 <i00000002c3>:
    80001274:	d7a15703          	lhu	a4,-646(sp)

0000000080001278 <i00000002c4>:
    80001278:	0000100f          	fence.i

000000008000127c <i00000002c5>:
    8000127c:	0ba15303          	lhu	t1,186(sp)

0000000080001280 <i00000002c6>:
    80001280:	0000100f          	fence.i

0000000080001284 <i00000002c7>:
    80001284:	0ff0000f          	fence

0000000080001288 <i00000002c8>:
    80001288:	caf13c23          	sd	a5,-840(sp)

000000008000128c <i00000002c9>:
    8000128c:	0ff0000f          	fence

0000000080001290 <i00000002ca>:
    80001290:	0000100f          	fence.i

0000000080001294 <i00000002cb>:
    80001294:	03f85613          	srli	a2,a6,0x3f
    80001298:	00090117          	auipc	sp,0x90
    8000129c:	d6810113          	addi	sp,sp,-664 # 80091000 <begin_signature>
    800012a0:	6305                	lui	t1,0x1
    800012a2:	5b83031b          	addiw	t1,t1,1464 # 15b8 <_tbss_end+0x15b8>
    800012a6:	911a                	add	sp,sp,t1

00000000800012a8 <i00000002cc>:
    800012a8:	ad813303          	ld	t1,-1320(sp)

00000000800012ac <i00000002cd>:
    800012ac:	7a013d03          	ld	s10,1952(sp)
    800012b0:	00090117          	auipc	sp,0x90
    800012b4:	d5010113          	addi	sp,sp,-688 # 80091000 <begin_signature>
    800012b8:	6309                	lui	t1,0x2
    800012ba:	6083031b          	addiw	t1,t1,1544 # 2608 <_tbss_end+0x2608>
    800012be:	911a                	add	sp,sp,t1

00000000800012c0 <i00000002ce>:
    800012c0:	28813703          	ld	a4,648(sp)

00000000800012c4 <i00000002cf>:
    800012c4:	fec13423          	sd	a2,-24(sp)

00000000800012c8 <i00000002d0>:
    800012c8:	9ac15803          	lhu	a6,-1620(sp)

00000000800012cc <i00000002d1>:
    800012cc:	0ff0000f          	fence

00000000800012d0 <i00000002d2>:
    800012d0:	01d8581b          	srliw	a6,a6,0x1d

00000000800012d4 <i00000002d3>:
    800012d4:	0000100f          	fence.i

00000000800012d8 <i00000002d4>:
    800012d8:	410808bb          	subw	a7,a6,a6

00000000800012dc <i00000002d5>:
    800012dc:	0000100f          	fence.i

00000000800012e0 <i00000002d6>:
    800012e0:	004413bb          	sllw	t2,s0,tp

00000000800012e4 <i00000002d7>:
    800012e4:	0ff0000f          	fence

00000000800012e8 <i00000002d8>:
    800012e8:	43a85693          	srai	a3,a6,0x3a

00000000800012ec <i00000002d9>:
    800012ec:	41385213          	srai	tp,a6,0x13

00000000800012f0 <i00000002da>:
    800012f0:	0000100f          	fence.i

00000000800012f4 <i00000002db>:
    800012f4:	fb013423          	sd	a6,-88(sp)

00000000800012f8 <i00000002dc>:
    800012f8:	00e858bb          	srlw	a7,a6,a4

00000000800012fc <i00000002dd>:
    800012fc:	0118541b          	srliw	s0,a6,0x11

0000000080001300 <i00000002de>:
    80001300:	e32d081b          	addiw	a6,s10,-462

0000000080001304 <i00000002df>:
    80001304:	38230e1b          	addiw	t3,t1,898

0000000080001308 <i00000002e0>:
    80001308:	0000100f          	fence.i

000000008000130c <i00000002e1>:
    8000130c:	0ff0000f          	fence

0000000080001310 <i00000002e2>:
    80001310:	00e709bb          	addw	s3,a4,a4

0000000080001314 <i00000002e3>:
    80001314:	0067d81b          	srliw	a6,a5,0x6

0000000080001318 <i00000002e4>:
    80001318:	abc16583          	lwu	a1,-1348(sp)

000000008000131c <i00000002e5>:
    8000131c:	0ff0000f          	fence

0000000080001320 <i00000002e6>:
    80001320:	d8816283          	lwu	t0,-632(sp)

0000000080001324 <i00000002e7>:
    80001324:	0047979b          	slliw	a5,a5,0x4

0000000080001328 <i00000002e8>:
    80001328:	0000100f          	fence.i

000000008000132c <i00000002e9>:
    8000132c:	0ff0000f          	fence

0000000080001330 <i00000002ea>:
    80001330:	0000100f          	fence.i

0000000080001334 <i00000002eb>:
    80001334:	6bc12e23          	sw	t3,1724(sp)

0000000080001338 <i00000002ec>:
    80001338:	0ff0000f          	fence

000000008000133c <i00000002ed>:
    8000133c:	a0013803          	ld	a6,-1536(sp)
    80001340:	00090117          	auipc	sp,0x90
    80001344:	cc010113          	addi	sp,sp,-832 # 80091000 <begin_signature>
    80001348:	6309                	lui	t1,0x2
    8000134a:	b803031b          	addiw	t1,t1,-1152 # 1b80 <_tbss_end+0x1b80>
    8000134e:	911a                	add	sp,sp,t1

0000000080001350 <i00000002ee>:
    80001350:	af016803          	lwu	a6,-1296(sp)

0000000080001354 <i00000002ef>:
    80001354:	0000100f          	fence.i

0000000080001358 <i00000002f0>:
    80001358:	0000100f          	fence.i

000000008000135c <i00000002f1>:
    8000135c:	0000100f          	fence.i
    80001360:	00090117          	auipc	sp,0x90
    80001364:	ca010113          	addi	sp,sp,-864 # 80091000 <begin_signature>
    80001368:	6305                	lui	t1,0x1
    8000136a:	c983031b          	addiw	t1,t1,-872 # c98 <_tbss_end+0xc98>
    8000136e:	911a                	add	sp,sp,t1

0000000080001370 <i00000002f2>:
    80001370:	0c410803          	lb	a6,196(sp)

0000000080001374 <i00000002f3>:
    80001374:	fc3e                	sd	a5,56(sp)

0000000080001376 <i00000002f4>:
    80001376:	0ff0000f          	fence

000000008000137a <i00000002f5>:
    8000137a:	0000100f          	fence.i

000000008000137e <i00000002f6>:
    8000137e:	a1412783          	lw	a5,-1516(sp)

0000000080001382 <i00000002f7>:
    80001382:	00e8173b          	sllw	a4,a6,a4

0000000080001386 <i00000002f8>:
    80001386:	0ff0000f          	fence

000000008000138a <i00000002f9>:
    8000138a:	0000100f          	fence.i

000000008000138e <i00000002fa>:
    8000138e:	e2211783          	lh	a5,-478(sp)

0000000080001392 <i00000002fb>:
    80001392:	4002d73b          	sraw	a4,t0,zero

0000000080001396 <i00000002fc>:
    80001396:	41e8571b          	sraiw	a4,a6,0x1e

000000008000139a <i00000002fd>:
    8000139a:	bfd13c23          	sd	t4,-1032(sp)

000000008000139e <i00000002fe>:
    8000139e:	9af12a23          	sw	a5,-1612(sp)

00000000800013a2 <i00000002ff>:
    800013a2:	0ff0000f          	fence

00000000800013a6 <i0000000300>:
    800013a6:	0ff0000f          	fence

00000000800013aa <i0000000301>:
    800013aa:	0000100f          	fence.i

00000000800013ae <i0000000302>:
    800013ae:	0ff0000f          	fence

00000000800013b2 <i0000000303>:
    800013b2:	0000100f          	fence.i

00000000800013b6 <i0000000304>:
    800013b6:	41d85f9b          	sraiw	t6,a6,0x1d

00000000800013ba <i0000000305>:
    800013ba:	42dad793          	srai	a5,s5,0x2d

00000000800013be <i0000000306>:
    800013be:	a2813703          	ld	a4,-1496(sp)

00000000800013c2 <i0000000307>:
    800013c2:	e1c12f03          	lw	t5,-484(sp)

00000000800013c6 <i0000000308>:
    800013c6:	11f14603          	lbu	a2,287(sp)

00000000800013ca <i0000000309>:
    800013ca:	0ff0000f          	fence

00000000800013ce <i000000030a>:
    800013ce:	4a016a03          	lwu	s4,1184(sp)

00000000800013d2 <i000000030b>:
    800013d2:	a7016a83          	lwu	s5,-1424(sp)

00000000800013d6 <i000000030c>:
    800013d6:	0000100f          	fence.i

00000000800013da <i000000030d>:
    800013da:	f6013423          	sd	zero,-152(sp)

00000000800013de <i000000030e>:
    800013de:	8d615783          	lhu	a5,-1834(sp)

00000000800013e2 <i000000030f>:
    800013e2:	3b211323          	sh	s2,934(sp)

00000000800013e6 <i0000000310>:
    800013e6:	0ff0000f          	fence

00000000800013ea <i0000000311>:
    800013ea:	406edc13          	srai	s8,t4,0x6

00000000800013ee <i0000000312>:
    800013ee:	0000100f          	fence.i

00000000800013f2 <i0000000313>:
    800013f2:	49c16783          	lwu	a5,1180(sp)

00000000800013f6 <i0000000314>:
    800013f6:	0ff0000f          	fence
    800013fa:	00090117          	auipc	sp,0x90
    800013fe:	c0610113          	addi	sp,sp,-1018 # 80091000 <begin_signature>
    80001402:	6305                	lui	t1,0x1
    80001404:	8783031b          	addiw	t1,t1,-1928 # 878 <_tbss_end+0x878>
    80001408:	911a                	add	sp,sp,t1

000000008000140a <i0000000315>:
    8000140a:	54611703          	lh	a4,1350(sp)

000000008000140e <i0000000316>:
    8000140e:	53911a23          	sh	s9,1332(sp)

0000000080001412 <i0000000317>:
    80001412:	0267d013          	srli	zero,a5,0x26

0000000080001416 <i0000000318>:
    80001416:	0ff0000f          	fence

000000008000141a <i0000000319>:
    8000141a:	c3013c03          	ld	s8,-976(sp)

000000008000141e <i000000031a>:
    8000141e:	6177081b          	addiw	a6,a4,1559 # fffffffffc403759 <_end+0xffffffff7c36acf5>

0000000080001422 <i000000031b>:
    80001422:	bceb091b          	addiw	s2,s6,-1074

0000000080001426 <i000000031c>:
    80001426:	23011a23          	sh	a6,564(sp)

000000008000142a <i000000031d>:
    8000142a:	d0412303          	lw	t1,-764(sp)

000000008000142e <i000000031e>:
    8000142e:	cee12223          	sw	a4,-796(sp)
    80001432:	00090117          	auipc	sp,0x90
    80001436:	bce10113          	addi	sp,sp,-1074 # 80091000 <begin_signature>
    8000143a:	6305                	lui	t1,0x1
    8000143c:	3203031b          	addiw	t1,t1,800 # 1320 <_tbss_end+0x1320>
    80001440:	911a                	add	sp,sp,t1

0000000080001442 <i000000031f>:
    80001442:	b7314803          	lbu	a6,-1165(sp)

0000000080001446 <i0000000320>:
    80001446:	42085b93          	srai	s7,a6,0x20

000000008000144a <i0000000321>:
    8000144a:	de814203          	lbu	tp,-536(sp)

000000008000144e <i0000000322>:
    8000144e:	02bfd813          	srli	a6,t6,0x2b

0000000080001452 <i0000000323>:
    80001452:	0000100f          	fence.i

0000000080001456 <i0000000324>:
    80001456:	d8f13823          	sd	a5,-624(sp)
    8000145a:	00090117          	auipc	sp,0x90
    8000145e:	ba610113          	addi	sp,sp,-1114 # 80091000 <begin_signature>
    80001462:	630d                	lui	t1,0x3
    80001464:	4c03031b          	addiw	t1,t1,1216 # 34c0 <_tbss_end+0x34c0>
    80001468:	911a                	add	sp,sp,t1

000000008000146a <i0000000325>:
    8000146a:	e7d10723          	sb	t4,-402(sp)

000000008000146e <i0000000326>:
    8000146e:	0af11023          	sh	a5,160(sp)

0000000080001472 <i0000000327>:
    80001472:	13010703          	lb	a4,304(sp)

0000000080001476 <i0000000328>:
    80001476:	0ff0000f          	fence
    8000147a:	00090117          	auipc	sp,0x90
    8000147e:	b8610113          	addi	sp,sp,-1146 # 80091000 <begin_signature>
    80001482:	630d                	lui	t1,0x3
    80001484:	3283031b          	addiw	t1,t1,808 # 3328 <_tbss_end+0x3328>
    80001488:	911a                	add	sp,sp,t1

000000008000148a <i0000000329>:
    8000148a:	faf12a23          	sw	a5,-76(sp)

000000008000148e <i000000032a>:
    8000148e:	63813703          	ld	a4,1592(sp)

0000000080001492 <i000000032b>:
    80001492:	20311a23          	sh	gp,532(sp)
    80001496:	00090117          	auipc	sp,0x90
    8000149a:	b6a10113          	addi	sp,sp,-1174 # 80091000 <begin_signature>
    8000149e:	6305                	lui	t1,0x1
    800014a0:	2b03031b          	addiw	t1,t1,688 # 12b0 <_tbss_end+0x12b0>
    800014a4:	911a                	add	sp,sp,t1

00000000800014a6 <i000000032c>:
    800014a6:	d7813d03          	ld	s10,-648(sp)
    800014aa:	00090117          	auipc	sp,0x90
    800014ae:	b5610113          	addi	sp,sp,-1194 # 80091000 <begin_signature>
    800014b2:	630d                	lui	t1,0x3
    800014b4:	bf03031b          	addiw	t1,t1,-1040 # 2bf0 <_tbss_end+0x2bf0>
    800014b8:	911a                	add	sp,sp,t1

00000000800014ba <i000000032d>:
    800014ba:	01e15b03          	lhu	s6,30(sp)
    800014be:	00090117          	auipc	sp,0x90
    800014c2:	b4210113          	addi	sp,sp,-1214 # 80091000 <begin_signature>
    800014c6:	6305                	lui	t1,0x1
    800014c8:	d683031b          	addiw	t1,t1,-664 # d68 <_tbss_end+0xd68>
    800014cc:	911a                	add	sp,sp,t1

00000000800014ce <i000000032e>:
    800014ce:	9b813783          	ld	a5,-1608(sp)

00000000800014d2 <i000000032f>:
    800014d2:	57413023          	sd	s4,1376(sp)

00000000800014d6 <i0000000330>:
    800014d6:	88013e83          	ld	t4,-1920(sp)

00000000800014da <i0000000331>:
    800014da:	005e581b          	srliw	a6,t3,0x5

00000000800014de <i0000000332>:
    800014de:	99110703          	lb	a4,-1647(sp)

00000000800014e2 <i0000000333>:
    800014e2:	0ff0000f          	fence
    800014e6:	00090117          	auipc	sp,0x90
    800014ea:	b1a10113          	addi	sp,sp,-1254 # 80091000 <begin_signature>
    800014ee:	6309                	lui	t1,0x2
    800014f0:	4083031b          	addiw	t1,t1,1032 # 2408 <_tbss_end+0x2408>
    800014f4:	911a                	add	sp,sp,t1

00000000800014f6 <i0000000334>:
    800014f6:	9d510ea3          	sb	s5,-1571(sp)
    800014fa:	00090117          	auipc	sp,0x90
    800014fe:	b0610113          	addi	sp,sp,-1274 # 80091000 <begin_signature>
    80001502:	630d                	lui	t1,0x3
    80001504:	4183031b          	addiw	t1,t1,1048 # 3418 <_tbss_end+0x3418>
    80001508:	911a                	add	sp,sp,t1

000000008000150a <i0000000335>:
    8000150a:	38310d83          	lb	s11,899(sp)

000000008000150e <i0000000336>:
    8000150e:	43d7da13          	srai	s4,a5,0x3d

0000000080001512 <i0000000337>:
    80001512:	e1013803          	ld	a6,-496(sp)

0000000080001516 <i0000000338>:
    80001516:	2dd88d1b          	addiw	s10,a7,733

000000008000151a <i0000000339>:
    8000151a:	ec812783          	lw	a5,-312(sp)

000000008000151e <i000000033a>:
    8000151e:	2e011203          	lh	tp,736(sp)

0000000080001522 <i000000033b>:
    80001522:	4a77889b          	addiw	a7,a5,1191

0000000080001526 <i000000033c>:
    80001526:	f7b10503          	lb	a0,-133(sp)
    8000152a:	00090117          	auipc	sp,0x90
    8000152e:	ad610113          	addi	sp,sp,-1322 # 80091000 <begin_signature>
    80001532:	6309                	lui	t1,0x2
    80001534:	7503031b          	addiw	t1,t1,1872 # 2750 <_tbss_end+0x2750>
    80001538:	911a                	add	sp,sp,t1

000000008000153a <i000000033d>:
    8000153a:	6f013583          	ld	a1,1776(sp)

000000008000153e <i000000033e>:
    8000153e:	0000100f          	fence.i

0000000080001542 <i000000033f>:
    80001542:	d5416783          	lwu	a5,-684(sp)

0000000080001546 <i0000000340>:
    80001546:	ac814383          	lbu	t2,-1336(sp)

000000008000154a <i0000000341>:
    8000154a:	ab013023          	sd	a6,-1376(sp)

000000008000154e <i0000000342>:
    8000154e:	0ff0000f          	fence

0000000080001552 <i0000000343>:
    80001552:	41ca053b          	subw	a0,s4,t3

0000000080001556 <i0000000344>:
    80001556:	53013703          	ld	a4,1328(sp)

000000008000155a <i0000000345>:
    8000155a:	e2215703          	lhu	a4,-478(sp)
    8000155e:	00090117          	auipc	sp,0x90
    80001562:	aa210113          	addi	sp,sp,-1374 # 80091000 <begin_signature>
    80001566:	630d                	lui	t1,0x3
    80001568:	0383031b          	addiw	t1,t1,56 # 3038 <_tbss_end+0x3038>
    8000156c:	911a                	add	sp,sp,t1

000000008000156e <i0000000346>:
    8000156e:	35610603          	lb	a2,854(sp)

0000000080001572 <i0000000347>:
    80001572:	d4510a03          	lb	s4,-699(sp)

0000000080001576 <i0000000348>:
    80001576:	13c16683          	lwu	a3,316(sp)

000000008000157a <i0000000349>:
    8000157a:	b7816b83          	lwu	s7,-1160(sp)

000000008000157e <i000000034a>:
    8000157e:	e0710803          	lb	a6,-505(sp)

0000000080001582 <i000000034b>:
    80001582:	40f7dabb          	sraw	s5,a5,a5

0000000080001586 <i000000034c>:
    80001586:	b0c16703          	lwu	a4,-1268(sp)

000000008000158a <i000000034d>:
    8000158a:	0188941b          	slliw	s0,a7,0x18

000000008000158e <i000000034e>:
    8000158e:	3a013703          	ld	a4,928(sp)

0000000080001592 <i000000034f>:
    80001592:	01edd81b          	srliw	a6,s11,0x1e
    80001596:	00090117          	auipc	sp,0x90
    8000159a:	a6a10113          	addi	sp,sp,-1430 # 80091000 <begin_signature>
    8000159e:	630d                	lui	t1,0x3
    800015a0:	3341                	addiw	t1,t1,-16 # 2ff0 <_tbss_end+0x2ff0>
    800015a2:	911a                	add	sp,sp,t1

00000000800015a4 <i0000000350>:
    800015a4:	4f813703          	ld	a4,1272(sp)

00000000800015a8 <i0000000351>:
    800015a8:	eac16803          	lwu	a6,-340(sp)

00000000800015ac <i0000000352>:
    800015ac:	e4016e03          	lwu	t3,-448(sp)

00000000800015b0 <i0000000353>:
    800015b0:	0ff0000f          	fence

00000000800015b4 <i0000000354>:
    800015b4:	ee610603          	lb	a2,-282(sp)

00000000800015b8 <i0000000355>:
    800015b8:	018f1b1b          	slliw	s6,t5,0x18

00000000800015bc <i0000000356>:
    800015bc:	36611983          	lh	s3,870(sp)

00000000800015c0 <i0000000357>:
    800015c0:	40e751bb          	sraw	gp,a4,a4

00000000800015c4 <i0000000358>:
    800015c4:	0ff0000f          	fence

00000000800015c8 <i0000000359>:
    800015c8:	0000100f          	fence.i

00000000800015cc <i000000035a>:
    800015cc:	6d913023          	sd	s9,1728(sp)

00000000800015d0 <i000000035b>:
    800015d0:	ae813783          	ld	a5,-1304(sp)

00000000800015d4 <i000000035c>:
    800015d4:	0000100f          	fence.i

00000000800015d8 <i000000035d>:
    800015d8:	0ff0000f          	fence

00000000800015dc <i000000035e>:
    800015dc:	0000100f          	fence.i

00000000800015e0 <i000000035f>:
    800015e0:	f4e101a3          	sb	a4,-189(sp)

00000000800015e4 <i0000000360>:
    800015e4:	0000100f          	fence.i

00000000800015e8 <i0000000361>:
    800015e8:	0ff0000f          	fence

00000000800015ec <i0000000362>:
    800015ec:	02a55713          	srli	a4,a0,0x2a

00000000800015f0 <i0000000363>:
    800015f0:	0ff0000f          	fence

00000000800015f4 <i0000000364>:
    800015f4:	019c07bb          	addw	a5,s8,s9

00000000800015f8 <i0000000365>:
    800015f8:	0057d193          	srli	gp,a5,0x5

00000000800015fc <i0000000366>:
    800015fc:	40e7573b          	sraw	a4,a4,a4

0000000080001600 <i0000000367>:
    80001600:	40813503          	ld	a0,1032(sp)

0000000080001604 <i0000000368>:
    80001604:	0000100f          	fence.i

0000000080001608 <i0000000369>:
    80001608:	02b2d713          	srli	a4,t0,0x2b

000000008000160c <i000000036a>:
    8000160c:	4078d81b          	sraiw	a6,a7,0x7

0000000080001610 <i000000036b>:
    80001610:	02d79313          	slli	t1,a5,0x2d

0000000080001614 <i000000036c>:
    80001614:	0000100f          	fence.i

0000000080001618 <i000000036d>:
    80001618:	0000100f          	fence.i

000000008000161c <i000000036e>:
    8000161c:	81811483          	lh	s1,-2024(sp)

0000000080001620 <i000000036f>:
    80001620:	b1215783          	lhu	a5,-1262(sp)

0000000080001624 <i0000000370>:
    80001624:	00f7dcbb          	srlw	s9,a5,a5

0000000080001628 <i0000000371>:
    80001628:	7e713023          	sd	t2,2016(sp)

000000008000162c <i0000000372>:
    8000162c:	0000100f          	fence.i

0000000080001630 <i0000000373>:
    80001630:	f4813e83          	ld	t4,-184(sp)

0000000080001634 <i0000000374>:
    80001634:	43175793          	srai	a5,a4,0x31

0000000080001638 <i0000000375>:
    80001638:	3ab14183          	lbu	gp,939(sp)

000000008000163c <i0000000376>:
    8000163c:	0000100f          	fence.i

0000000080001640 <i0000000377>:
    80001640:	0000100f          	fence.i

0000000080001644 <i0000000378>:
    80001644:	00e81ebb          	sllw	t4,a6,a4

0000000080001648 <i0000000379>:
    80001648:	cf816c03          	lwu	s8,-776(sp)

000000008000164c <i000000037a>:
    8000164c:	60e11c23          	sh	a4,1560(sp)
    80001650:	00090117          	auipc	sp,0x90
    80001654:	9b010113          	addi	sp,sp,-1616 # 80091000 <begin_signature>
    80001658:	630d                	lui	t1,0x3
    8000165a:	1c83031b          	addiw	t1,t1,456 # 31c8 <_tbss_end+0x31c8>
    8000165e:	911a                	add	sp,sp,t1

0000000080001660 <i000000037b>:
    80001660:	1c712a23          	sw	t2,468(sp)

0000000080001664 <i000000037c>:
    80001664:	406ed713          	srai	a4,t4,0x6

0000000080001668 <i000000037d>:
    80001668:	b5714f03          	lbu	t5,-1193(sp)
    8000166c:	00090117          	auipc	sp,0x90
    80001670:	99410113          	addi	sp,sp,-1644 # 80091000 <begin_signature>
    80001674:	6309                	lui	t1,0x2
    80001676:	2903031b          	addiw	t1,t1,656 # 2290 <_tbss_end+0x2290>
    8000167a:	911a                	add	sp,sp,t1

000000008000167c <i000000037e>:
    8000167c:	a2016803          	lwu	a6,-1504(sp)

0000000080001680 <i000000037f>:
    80001680:	4a78021b          	addiw	tp,a6,1191 # fffffffff2ecc5f1 <_end+0xffffffff72e33b8d>

0000000080001684 <i0000000380>:
    80001684:	0ff0000f          	fence

0000000080001688 <i0000000381>:
    80001688:	71710703          	lb	a4,1815(sp)

000000008000168c <i0000000382>:
    8000168c:	0ff0000f          	fence

0000000080001690 <i0000000383>:
    80001690:	24012783          	lw	a5,576(sp)

0000000080001694 <i0000000384>:
    80001694:	0000100f          	fence.i

0000000080001698 <i0000000385>:
    80001698:	24f11f23          	sh	a5,606(sp)

000000008000169c <i0000000386>:
    8000169c:	40585f13          	srai	t5,a6,0x5

00000000800016a0 <i0000000387>:
    800016a0:	7eb12c23          	sw	a1,2040(sp)
    800016a4:	00090117          	auipc	sp,0x90
    800016a8:	95c10113          	addi	sp,sp,-1700 # 80091000 <begin_signature>
    800016ac:	6309                	lui	t1,0x2
    800016ae:	6003031b          	addiw	t1,t1,1536 # 2600 <_tbss_end+0x2600>
    800016b2:	911a                	add	sp,sp,t1

00000000800016b4 <i0000000388>:
    800016b4:	d4211483          	lh	s1,-702(sp)

00000000800016b8 <i0000000389>:
    800016b8:	0148571b          	srliw	a4,a6,0x14

00000000800016bc <i000000038a>:
    800016bc:	40d48d3b          	subw	s10,s1,a3

00000000800016c0 <i000000038b>:
    800016c0:	0000100f          	fence.i

00000000800016c4 <i000000038c>:
    800016c4:	0000100f          	fence.i

00000000800016c8 <i000000038d>:
    800016c8:	2e016983          	lwu	s3,736(sp)

00000000800016cc <i000000038e>:
    800016cc:	6e860e9b          	addiw	t4,a2,1768
    800016d0:	00090117          	auipc	sp,0x90
    800016d4:	93010113          	addi	sp,sp,-1744 # 80091000 <begin_signature>
    800016d8:	6309                	lui	t1,0x2
    800016da:	8203031b          	addiw	t1,t1,-2016 # 1820 <_tbss_end+0x1820>
    800016de:	911a                	add	sp,sp,t1

00000000800016e0 <i000000038f>:
    800016e0:	66012f03          	lw	t5,1632(sp)

00000000800016e4 <i0000000390>:
    800016e4:	0ff0000f          	fence

00000000800016e8 <i0000000391>:
    800016e8:	c4013f83          	ld	t6,-960(sp)

00000000800016ec <i0000000392>:
    800016ec:	7d816483          	lwu	s1,2008(sp)

00000000800016f0 <i0000000393>:
    800016f0:	2a416783          	lwu	a5,676(sp)
    800016f4:	00090117          	auipc	sp,0x90
    800016f8:	90c10113          	addi	sp,sp,-1780 # 80091000 <begin_signature>
    800016fc:	6309                	lui	t1,0x2
    800016fe:	b703031b          	addiw	t1,t1,-1168 # 1b70 <_tbss_end+0x1b70>
    80001702:	911a                	add	sp,sp,t1

0000000080001704 <i0000000394>:
    80001704:	59813583          	ld	a1,1432(sp)

0000000080001708 <i0000000395>:
    80001708:	49016583          	lwu	a1,1168(sp)

000000008000170c <i0000000396>:
    8000170c:	bce10783          	lb	a5,-1074(sp)

0000000080001710 <i0000000397>:
    80001710:	ea810223          	sb	s0,-348(sp)

0000000080001714 <i0000000398>:
    80001714:	0000100f          	fence.i
    80001718:	00090117          	auipc	sp,0x90
    8000171c:	8e810113          	addi	sp,sp,-1816 # 80091000 <begin_signature>
    80001720:	6309                	lui	t1,0x2
    80001722:	2341                	addiw	t1,t1,16 # 2010 <_tbss_end+0x2010>
    80001724:	911a                	add	sp,sp,t1

0000000080001726 <i0000000399>:
    80001726:	6d416803          	lwu	a6,1748(sp)

000000008000172a <i000000039a>:
    8000172a:	e2e10a23          	sb	a4,-460(sp)

000000008000172e <i000000039b>:
    8000172e:	0ff0000f          	fence

0000000080001732 <i000000039c>:
    80001732:	56813803          	ld	a6,1384(sp)

0000000080001736 <i000000039d>:
    80001736:	0227d813          	srli	a6,a5,0x22
    8000173a:	00090117          	auipc	sp,0x90
    8000173e:	8c610113          	addi	sp,sp,-1850 # 80091000 <begin_signature>
    80001742:	6309                	lui	t1,0x2
    80001744:	9c83031b          	addiw	t1,t1,-1592 # 19c8 <_tbss_end+0x19c8>
    80001748:	911a                	add	sp,sp,t1

000000008000174a <i000000039e>:
    8000174a:	85813283          	ld	t0,-1960(sp)

000000008000174e <i000000039f>:
    8000174e:	50016703          	lwu	a4,1280(sp)

0000000080001752 <i00000003a0>:
    80001752:	8ab12e23          	sw	a1,-1860(sp)

0000000080001756 <i00000003a1>:
    80001756:	93eb071b          	addiw	a4,s6,-1730

000000008000175a <i00000003a2>:
    8000175a:	0ff0000f          	fence

000000008000175e <i00000003a3>:
    8000175e:	78da                	ld	a7,432(sp)

0000000080001760 <i00000003a4>:
    80001760:	2ab11723          	sh	a1,686(sp)

0000000080001764 <i00000003a5>:
    80001764:	6b814783          	lbu	a5,1720(sp)

0000000080001768 <i00000003a6>:
    80001768:	ce011c23          	sh	zero,-776(sp)

000000008000176c <i00000003a7>:
    8000176c:	feba                	sd	a4,376(sp)

000000008000176e <i00000003a8>:
    8000176e:	bb713423          	sd	s7,-1112(sp)

0000000080001772 <i00000003a9>:
    80001772:	0ff0000f          	fence

0000000080001776 <i00000003aa>:
    80001776:	0000100f          	fence.i

000000008000177a <i00000003ab>:
    8000177a:	03675c13          	srli	s8,a4,0x36

000000008000177e <i00000003ac>:
    8000177e:	40d7d013          	srai	zero,a5,0xd

0000000080001782 <i00000003ad>:
    80001782:	070108a3          	sb	a6,113(sp)

0000000080001786 <i00000003ae>:
    80001786:	ba415883          	lhu	a7,-1116(sp)

000000008000178a <i00000003af>:
    8000178a:	00f78a3b          	addw	s4,a5,a5

000000008000178e <i00000003b0>:
    8000178e:	f4f10823          	sb	a5,-176(sp)

0000000080001792 <i00000003b1>:
    80001792:	e4f13823          	sd	a5,-432(sp)

0000000080001796 <i00000003b2>:
    80001796:	0000100f          	fence.i

000000008000179a <i00000003b3>:
    8000179a:	66f11f23          	sh	a5,1662(sp)

000000008000179e <i00000003b4>:
    8000179e:	0000100f          	fence.i

00000000800017a2 <i00000003b5>:
    800017a2:	0000100f          	fence.i

00000000800017a6 <i00000003b6>:
    800017a6:	fe816903          	lwu	s2,-24(sp)

00000000800017aa <i00000003b7>:
    800017aa:	02e05813          	srli	a6,zero,0x2e

00000000800017ae <i00000003b8>:
    800017ae:	0000100f          	fence.i

00000000800017b2 <i00000003b9>:
    800017b2:	0107973b          	sllw	a4,a5,a6
    800017b6:	00090117          	auipc	sp,0x90
    800017ba:	84a10113          	addi	sp,sp,-1974 # 80091000 <begin_signature>
    800017be:	6305                	lui	t1,0x1
    800017c0:	2803031b          	addiw	t1,t1,640 # 1280 <_tbss_end+0x1280>
    800017c4:	911a                	add	sp,sp,t1

00000000800017c6 <i00000003ba>:
    800017c6:	7e016703          	lwu	a4,2016(sp)

00000000800017ca <i00000003bb>:
    800017ca:	0ff0000f          	fence

00000000800017ce <i00000003bc>:
    800017ce:	03805793          	srli	a5,zero,0x38

00000000800017d2 <i00000003bd>:
    800017d2:	35b13c23          	sd	s11,856(sp)

00000000800017d6 <i00000003be>:
    800017d6:	0ff0000f          	fence

00000000800017da <i00000003bf>:
    800017da:	00171013          	slli	zero,a4,0x1

00000000800017de <i00000003c0>:
    800017de:	0ff0000f          	fence
    800017e2:	00090117          	auipc	sp,0x90
    800017e6:	81e10113          	addi	sp,sp,-2018 # 80091000 <begin_signature>
    800017ea:	6305                	lui	t1,0x1
    800017ec:	9b03031b          	addiw	t1,t1,-1616 # 9b0 <_tbss_end+0x9b0>
    800017f0:	911a                	add	sp,sp,t1

00000000800017f2 <i00000003c1>:
    800017f2:	21013423          	sd	a6,520(sp)

00000000800017f6 <i00000003c2>:
    800017f6:	400dd793          	srai	a5,s11,0x0

00000000800017fa <i00000003c3>:
    800017fa:	0ff0000f          	fence

00000000800017fe <i00000003c4>:
    800017fe:	54211803          	lh	a6,1346(sp)

0000000080001802 <i00000003c5>:
    80001802:	2d012703          	lw	a4,720(sp)

0000000080001806 <i00000003c6>:
    80001806:	00c4571b          	srliw	a4,s0,0xc

000000008000180a <i00000003c7>:
    8000180a:	0ff0000f          	fence
    8000180e:	0008f117          	auipc	sp,0x8f
    80001812:	7f210113          	addi	sp,sp,2034 # 80091000 <begin_signature>
    80001816:	6305                	lui	t1,0x1
    80001818:	5a03031b          	addiw	t1,t1,1440 # 15a0 <_tbss_end+0x15a0>
    8000181c:	911a                	add	sp,sp,t1

000000008000181e <i00000003c8>:
    8000181e:	46b13423          	sd	a1,1128(sp)

0000000080001822 <i00000003c9>:
    80001822:	52d13023          	sd	a3,1312(sp)

0000000080001826 <i00000003ca>:
    80001826:	0ff0000f          	fence

000000008000182a <i00000003cb>:
    8000182a:	9db13c23          	sd	s11,-1576(sp)

000000008000182e <i00000003cc>:
    8000182e:	7c813b03          	ld	s6,1992(sp)

0000000080001832 <i00000003cd>:
    80001832:	0ff0000f          	fence

0000000080001836 <i00000003ce>:
    80001836:	0ff0000f          	fence

000000008000183a <i00000003cf>:
    8000183a:	0017181b          	slliw	a6,a4,0x1

000000008000183e <i00000003d0>:
    8000183e:	00e78ebb          	addw	t4,a5,a4
    80001842:	0008f117          	auipc	sp,0x8f
    80001846:	7be10113          	addi	sp,sp,1982 # 80091000 <begin_signature>
    8000184a:	6305                	lui	t1,0x1
    8000184c:	e403031b          	addiw	t1,t1,-448 # e40 <_tbss_end+0xe40>
    80001850:	911a                	add	sp,sp,t1

0000000080001852 <i00000003d1>:
    80001852:	ea016783          	lwu	a5,-352(sp)

0000000080001856 <i00000003d2>:
    80001856:	7ba15783          	lhu	a5,1978(sp)

000000008000185a <i00000003d3>:
    8000185a:	51214d83          	lbu	s11,1298(sp)

000000008000185e <i00000003d4>:
    8000185e:	02d7dd13          	srli	s10,a5,0x2d

0000000080001862 <i00000003d5>:
    80001862:	38f12c23          	sw	a5,920(sp)

0000000080001866 <i00000003d6>:
    80001866:	69911323          	sh	s9,1670(sp)

000000008000186a <i00000003d7>:
    8000186a:	6742                	ld	a4,16(sp)
    8000186c:	0008f117          	auipc	sp,0x8f
    80001870:	79410113          	addi	sp,sp,1940 # 80091000 <begin_signature>
    80001874:	630d                	lui	t1,0x3
    80001876:	c883031b          	addiw	t1,t1,-888 # 2c88 <_tbss_end+0x2c88>
    8000187a:	911a                	add	sp,sp,t1

000000008000187c <i00000003d8>:
    8000187c:	1ce11c23          	sh	a4,472(sp)

0000000080001880 <i00000003d9>:
    80001880:	b6914703          	lbu	a4,-1175(sp)

0000000080001884 <i00000003da>:
    80001884:	01775d9b          	srliw	s11,a4,0x17
    80001888:	0008f117          	auipc	sp,0x8f
    8000188c:	77810113          	addi	sp,sp,1912 # 80091000 <begin_signature>
    80001890:	6305                	lui	t1,0x1
    80001892:	4103031b          	addiw	t1,t1,1040 # 1410 <_tbss_end+0x1410>
    80001896:	911a                	add	sp,sp,t1

0000000080001898 <i00000003db>:
    80001898:	86c16a83          	lwu	s5,-1940(sp)

000000008000189c <i00000003dc>:
    8000189c:	006f9a1b          	slliw	s4,t6,0x6

00000000800018a0 <i00000003dd>:
    800018a0:	018dd7bb          	srlw	a5,s11,s8

00000000800018a4 <i00000003de>:
    800018a4:	cb815383          	lhu	t2,-840(sp)

00000000800018a8 <i00000003df>:
    800018a8:	fc52                	sd	s4,56(sp)

00000000800018aa <i00000003e0>:
    800018aa:	0ff0000f          	fence

00000000800018ae <i00000003e1>:
    800018ae:	87013e83          	ld	t4,-1936(sp)

00000000800018b2 <i00000003e2>:
    800018b2:	0000100f          	fence.i

00000000800018b6 <i00000003e3>:
    800018b6:	006a873b          	addw	a4,s5,t1

00000000800018ba <i00000003e4>:
    800018ba:	0ff0000f          	fence

00000000800018be <i00000003e5>:
    800018be:	0ff0000f          	fence

00000000800018c2 <i00000003e6>:
    800018c2:	0000100f          	fence.i

00000000800018c6 <i00000003e7>:
    800018c6:	30e11023          	sh	a4,768(sp)

00000000800018ca <i00000003e8>:
    800018ca:	c3816783          	lwu	a5,-968(sp)

00000000800018ce <i00000003e9>:
    800018ce:	b5f11323          	sh	t6,-1210(sp)

00000000800018d2 <i00000003ea>:
    800018d2:	0ff0000f          	fence
    800018d6:	0008f117          	auipc	sp,0x8f
    800018da:	72a10113          	addi	sp,sp,1834 # 80091000 <begin_signature>
    800018de:	630d                	lui	t1,0x3
    800018e0:	5103031b          	addiw	t1,t1,1296 # 3510 <_tbss_end+0x3510>
    800018e4:	911a                	add	sp,sp,t1

00000000800018e6 <i00000003eb>:
    800018e6:	2bc11483          	lh	s1,700(sp)

00000000800018ea <i00000003ec>:
    800018ea:	a9313423          	sd	s3,-1400(sp)

00000000800018ee <i00000003ed>:
    800018ee:	00f7973b          	sllw	a4,a5,a5
    800018f2:	0008f117          	auipc	sp,0x8f
    800018f6:	70e10113          	addi	sp,sp,1806 # 80091000 <begin_signature>
    800018fa:	630d                	lui	t1,0x3
    800018fc:	8683031b          	addiw	t1,t1,-1944 # 2868 <_tbss_end+0x2868>
    80001900:	911a                	add	sp,sp,t1

0000000080001902 <i00000003ee>:
    80001902:	f0813a03          	ld	s4,-248(sp)

0000000080001906 <i00000003ef>:
    80001906:	0000100f          	fence.i

000000008000190a <i00000003f0>:
    8000190a:	01af1ebb          	sllw	t4,t5,s10

000000008000190e <i00000003f1>:
    8000190e:	0000100f          	fence.i

0000000080001912 <i00000003f2>:
    80001912:	0ff0000f          	fence

0000000080001916 <i00000003f3>:
    80001916:	0000100f          	fence.i

000000008000191a <i00000003f4>:
    8000191a:	71015703          	lhu	a4,1808(sp)

000000008000191e <i00000003f5>:
    8000191e:	0000100f          	fence.i

0000000080001922 <i00000003f6>:
    80001922:	9cd13c23          	sd	a3,-1576(sp)

0000000080001926 <i00000003f7>:
    80001926:	0000100f          	fence.i

000000008000192a <i00000003f8>:
    8000192a:	57013803          	ld	a6,1392(sp)

000000008000192e <i00000003f9>:
    8000192e:	0ff0000f          	fence

0000000080001932 <i00000003fa>:
    80001932:	41013783          	ld	a5,1040(sp)

0000000080001936 <i00000003fb>:
    80001936:	cd911823          	sh	s9,-816(sp)

000000008000193a <i00000003fc>:
    8000193a:	43b85713          	srai	a4,a6,0x3b

000000008000193e <i00000003fd>:
    8000193e:	00079c1b          	slliw	s8,a5,0x0

0000000080001942 <i00000003fe>:
    80001942:	01a75c93          	srli	s9,a4,0x1a

0000000080001946 <i00000003ff>:
    80001946:	fbb10783          	lb	a5,-69(sp)

000000008000194a <i0000000400>:
    8000194a:	6dc16803          	lwu	a6,1756(sp)
    8000194e:	0008f117          	auipc	sp,0x8f
    80001952:	6b210113          	addi	sp,sp,1714 # 80091000 <begin_signature>
    80001956:	6309                	lui	t1,0x2
    80001958:	a603031b          	addiw	t1,t1,-1440 # 1a60 <_tbss_end+0x1a60>
    8000195c:	911a                	add	sp,sp,t1

000000008000195e <i0000000401>:
    8000195e:	ccc16703          	lwu	a4,-820(sp)
    80001962:	0008f117          	auipc	sp,0x8f
    80001966:	69e10113          	addi	sp,sp,1694 # 80091000 <begin_signature>
    8000196a:	6305                	lui	t1,0x1
    8000196c:	e203031b          	addiw	t1,t1,-480 # e20 <_tbss_end+0xe20>
    80001970:	911a                	add	sp,sp,t1

0000000080001972 <i0000000402>:
    80001972:	b3013703          	ld	a4,-1232(sp)

0000000080001976 <i0000000403>:
    80001976:	a187021b          	addiw	tp,a4,-1512

000000008000197a <i0000000404>:
    8000197a:	4153dd3b          	sraw	s10,t2,s5

000000008000197e <i0000000405>:
    8000197e:	40e7d73b          	sraw	a4,a5,a4

0000000080001982 <i0000000406>:
    80001982:	0ff0000f          	fence

0000000080001986 <i0000000407>:
    80001986:	0081d83b          	srlw	a6,gp,s0

000000008000198a <i0000000408>:
    8000198a:	0000100f          	fence.i

000000008000198e <i0000000409>:
    8000198e:	76813803          	ld	a6,1896(sp)

0000000080001992 <i000000040a>:
    80001992:	31013883          	ld	a7,784(sp)

0000000080001996 <i000000040b>:
    80001996:	012adf3b          	srlw	t5,s5,s2

000000008000199a <i000000040c>:
    8000199a:	ae812c83          	lw	s9,-1304(sp)

000000008000199e <i000000040d>:
    8000199e:	85913423          	sd	s9,-1976(sp)

00000000800019a2 <i000000040e>:
    800019a2:	e43e                	sd	a5,8(sp)

00000000800019a4 <i000000040f>:
    800019a4:	d2c16703          	lwu	a4,-724(sp)

00000000800019a8 <i0000000410>:
    800019a8:	c98b041b          	addiw	s0,s6,-872

00000000800019ac <i0000000411>:
    800019ac:	61816b83          	lwu	s7,1560(sp)

00000000800019b0 <i0000000412>:
    800019b0:	0ff0000f          	fence

00000000800019b4 <i0000000413>:
    800019b4:	20816e83          	lwu	t4,520(sp)
    800019b8:	0008f117          	auipc	sp,0x8f
    800019bc:	64810113          	addi	sp,sp,1608 # 80091000 <begin_signature>
    800019c0:	6305                	lui	t1,0x1
    800019c2:	3e83031b          	addiw	t1,t1,1000 # 13e8 <_tbss_end+0x13e8>
    800019c6:	911a                	add	sp,sp,t1

00000000800019c8 <i0000000414>:
    800019c8:	aaf13023          	sd	a5,-1376(sp)

00000000800019cc <i0000000415>:
    800019cc:	cb013823          	sd	a6,-848(sp)

00000000800019d0 <i0000000416>:
    800019d0:	8b416603          	lwu	a2,-1868(sp)

00000000800019d4 <i0000000417>:
    800019d4:	4f010623          	sb	a6,1260(sp)
    800019d8:	0008f117          	auipc	sp,0x8f
    800019dc:	62810113          	addi	sp,sp,1576 # 80091000 <begin_signature>
    800019e0:	6309                	lui	t1,0x2
    800019e2:	fd03031b          	addiw	t1,t1,-48 # 1fd0 <_tbss_end+0x1fd0>
    800019e6:	911a                	add	sp,sp,t1

00000000800019e8 <i0000000418>:
    800019e8:	2c816803          	lwu	a6,712(sp)

00000000800019ec <i0000000419>:
    800019ec:	d6f10b83          	lb	s7,-657(sp)

00000000800019f0 <i000000041a>:
    800019f0:	0000100f          	fence.i

00000000800019f4 <i000000041b>:
    800019f4:	0000100f          	fence.i

00000000800019f8 <i000000041c>:
    800019f8:	4097d59b          	sraiw	a1,a5,0x9

00000000800019fc <i000000041d>:
    800019fc:	50c16703          	lwu	a4,1292(sp)

0000000080001a00 <i000000041e>:
    80001a00:	d8816803          	lwu	a6,-632(sp)

0000000080001a04 <i000000041f>:
    80001a04:	0ff0000f          	fence

0000000080001a08 <i0000000420>:
    80001a08:	56e13023          	sd	a4,1376(sp)

0000000080001a0c <i0000000421>:
    80001a0c:	eee11783          	lh	a5,-274(sp)

0000000080001a10 <i0000000422>:
    80001a10:	0000100f          	fence.i

0000000080001a14 <i0000000423>:
    80001a14:	0000100f          	fence.i

0000000080001a18 <i0000000424>:
    80001a18:	01ebd7bb          	srlw	a5,s7,t5

0000000080001a1c <i0000000425>:
    80001a1c:	9f816e03          	lwu	t3,-1544(sp)

0000000080001a20 <i0000000426>:
    80001a20:	26412783          	lw	a5,612(sp)

0000000080001a24 <i0000000427>:
    80001a24:	5c812703          	lw	a4,1480(sp)

0000000080001a28 <i0000000428>:
    80001a28:	0000100f          	fence.i

0000000080001a2c <i0000000429>:
    80001a2c:	9ec16883          	lwu	a7,-1556(sp)

0000000080001a30 <i000000042a>:
    80001a30:	5dc11703          	lh	a4,1500(sp)

0000000080001a34 <i000000042b>:
    80001a34:	ba611f03          	lh	t5,-1114(sp)

0000000080001a38 <i000000042c>:
    80001a38:	0000100f          	fence.i
    80001a3c:	0008f117          	auipc	sp,0x8f
    80001a40:	5c410113          	addi	sp,sp,1476 # 80091000 <begin_signature>
    80001a44:	630d                	lui	t1,0x3
    80001a46:	7203031b          	addiw	t1,t1,1824 # 3720 <_tbss_end+0x3720>
    80001a4a:	911a                	add	sp,sp,t1

0000000080001a4c <i000000042d>:
    80001a4c:	cf312423          	sw	s3,-792(sp)

0000000080001a50 <i000000042e>:
    80001a50:	5ab2871b          	addiw	a4,t0,1451

0000000080001a54 <i000000042f>:
    80001a54:	27011f23          	sh	a6,638(sp)

0000000080001a58 <i0000000430>:
    80001a58:	7ef13823          	sd	a5,2032(sp)

0000000080001a5c <i0000000431>:
    80001a5c:	0ff0000f          	fence

0000000080001a60 <i0000000432>:
    80001a60:	ec8a861b          	addiw	a2,s5,-312

0000000080001a64 <i0000000433>:
    80001a64:	0000100f          	fence.i

0000000080001a68 <i0000000434>:
    80001a68:	d4013a83          	ld	s5,-704(sp)

0000000080001a6c <i0000000435>:
    80001a6c:	15816703          	lwu	a4,344(sp)

0000000080001a70 <i0000000436>:
    80001a70:	01015803          	lhu	a6,16(sp)

0000000080001a74 <i0000000437>:
    80001a74:	0ff0000f          	fence

0000000080001a78 <i0000000438>:
    80001a78:	7b310b23          	sb	s3,1974(sp)

0000000080001a7c <i0000000439>:
    80001a7c:	012e11bb          	sllw	gp,t3,s2

0000000080001a80 <i000000043a>:
    80001a80:	0000100f          	fence.i

0000000080001a84 <i000000043b>:
    80001a84:	41295bbb          	sraw	s7,s2,s2

0000000080001a88 <i000000043c>:
    80001a88:	c1510803          	lb	a6,-1003(sp)

0000000080001a8c <i000000043d>:
    80001a8c:	39013983          	ld	s3,912(sp)

0000000080001a90 <i000000043e>:
    80001a90:	0000100f          	fence.i

0000000080001a94 <i000000043f>:
    80001a94:	675e                	ld	a4,464(sp)

0000000080001a96 <i0000000440>:
    80001a96:	51513823          	sd	s5,1296(sp)

0000000080001a9a <i0000000441>:
    80001a9a:	f1813783          	ld	a5,-232(sp)

0000000080001a9e <i0000000442>:
    80001a9e:	03dd5713          	srli	a4,s10,0x3d

0000000080001aa2 <i0000000443>:
    80001aa2:	dbb13823          	sd	s11,-592(sp)

0000000080001aa6 <i0000000444>:
    80001aa6:	0ff0000f          	fence

0000000080001aaa <i0000000445>:
    80001aaa:	4147d79b          	sraiw	a5,a5,0x14
    80001aae:	0008f117          	auipc	sp,0x8f
    80001ab2:	55210113          	addi	sp,sp,1362 # 80091000 <begin_signature>
    80001ab6:	6305                	lui	t1,0x1
    80001ab8:	1703031b          	addiw	t1,t1,368 # 1170 <_tbss_end+0x1170>
    80001abc:	911a                	add	sp,sp,t1

0000000080001abe <i0000000446>:
    80001abe:	87713023          	sd	s7,-1952(sp)

0000000080001ac2 <i0000000447>:
    80001ac2:	0000100f          	fence.i

0000000080001ac6 <i0000000448>:
    80001ac6:	84f104a3          	sb	a5,-1975(sp)

0000000080001aca <i0000000449>:
    80001aca:	1d411783          	lh	a5,468(sp)
    80001ace:	0008f117          	auipc	sp,0x8f
    80001ad2:	53210113          	addi	sp,sp,1330 # 80091000 <begin_signature>
    80001ad6:	6305                	lui	t1,0x1
    80001ad8:	2f03031b          	addiw	t1,t1,752 # 12f0 <_tbss_end+0x12f0>
    80001adc:	911a                	add	sp,sp,t1

0000000080001ade <i000000044a>:
    80001ade:	b9013423          	sd	a6,-1144(sp)

0000000080001ae2 <i000000044b>:
    80001ae2:	0ff0000f          	fence

0000000080001ae6 <i000000044c>:
    80001ae6:	01016783          	lwu	a5,16(sp)
    80001aea:	0008f117          	auipc	sp,0x8f
    80001aee:	51610113          	addi	sp,sp,1302 # 80091000 <begin_signature>
    80001af2:	6309                	lui	t1,0x2
    80001af4:	2383031b          	addiw	t1,t1,568 # 2238 <_tbss_end+0x2238>
    80001af8:	911a                	add	sp,sp,t1

0000000080001afa <i000000044d>:
    80001afa:	35013423          	sd	a6,840(sp)

0000000080001afe <i000000044e>:
    80001afe:	0000100f          	fence.i

0000000080001b02 <i000000044f>:
    80001b02:	0000100f          	fence.i

0000000080001b06 <i0000000450>:
    80001b06:	0000100f          	fence.i

0000000080001b0a <i0000000451>:
    80001b0a:	90511c23          	sh	t0,-1768(sp)

0000000080001b0e <i0000000452>:
    80001b0e:	0000100f          	fence.i

0000000080001b12 <i0000000453>:
    80001b12:	02c71813          	slli	a6,a4,0x2c

0000000080001b16 <i0000000454>:
    80001b16:	c1011e23          	sh	a6,-996(sp)

0000000080001b1a <i0000000455>:
    80001b1a:	0ff0000f          	fence

0000000080001b1e <i0000000456>:
    80001b1e:	0000100f          	fence.i

0000000080001b22 <i0000000457>:
    80001b22:	0000100f          	fence.i

0000000080001b26 <i0000000458>:
    80001b26:	cc013883          	ld	a7,-832(sp)

0000000080001b2a <i0000000459>:
    80001b2a:	92611703          	lh	a4,-1754(sp)

0000000080001b2e <i000000045a>:
    80001b2e:	a1015783          	lhu	a5,-1520(sp)

0000000080001b32 <i000000045b>:
    80001b32:	62e13423          	sd	a4,1576(sp)

0000000080001b36 <i000000045c>:
    80001b36:	38f13823          	sd	a5,912(sp)

0000000080001b3a <i000000045d>:
    80001b3a:	9399                	srli	a5,a5,0x26

0000000080001b3c <i000000045e>:
    80001b3c:	91c16803          	lwu	a6,-1764(sp)

0000000080001b40 <i000000045f>:
    80001b40:	7e013803          	ld	a6,2016(sp)

0000000080001b44 <i0000000460>:
    80001b44:	0000100f          	fence.i

0000000080001b48 <i0000000461>:
    80001b48:	66411e23          	sh	tp,1660(sp)

0000000080001b4c <i0000000462>:
    80001b4c:	0082d813          	srli	a6,t0,0x8

0000000080001b50 <i0000000463>:
    80001b50:	cf410703          	lb	a4,-780(sp)
    80001b54:	0008f117          	auipc	sp,0x8f
    80001b58:	4ac10113          	addi	sp,sp,1196 # 80091000 <begin_signature>
    80001b5c:	630d                	lui	t1,0x3
    80001b5e:	be03031b          	addiw	t1,t1,-1056 # 2be0 <_tbss_end+0x2be0>
    80001b62:	911a                	add	sp,sp,t1

0000000080001b64 <i0000000464>:
    80001b64:	fea12423          	sw	a0,-24(sp)

0000000080001b68 <i0000000465>:
    80001b68:	41175b9b          	sraiw	s7,a4,0x11

0000000080001b6c <i0000000466>:
    80001b6c:	10815583          	lhu	a1,264(sp)

0000000080001b70 <i0000000467>:
    80001b70:	a0c12803          	lw	a6,-1524(sp)

0000000080001b74 <i0000000468>:
    80001b74:	c7113423          	sd	a7,-920(sp)
    80001b78:	0008f117          	auipc	sp,0x8f
    80001b7c:	48810113          	addi	sp,sp,1160 # 80091000 <begin_signature>
    80001b80:	6305                	lui	t1,0x1
    80001b82:	1683031b          	addiw	t1,t1,360 # 1168 <_tbss_end+0x1168>
    80001b86:	911a                	add	sp,sp,t1

0000000080001b88 <i0000000469>:
    80001b88:	83813f03          	ld	t5,-1992(sp)

0000000080001b8c <i000000046a>:
    80001b8c:	b3813a03          	ld	s4,-1224(sp)
    80001b90:	0008f117          	auipc	sp,0x8f
    80001b94:	47010113          	addi	sp,sp,1136 # 80091000 <begin_signature>
    80001b98:	630d                	lui	t1,0x3
    80001b9a:	7283031b          	addiw	t1,t1,1832 # 3728 <_tbss_end+0x3728>
    80001b9e:	911a                	add	sp,sp,t1

0000000080001ba0 <i000000046b>:
    80001ba0:	1b816803          	lwu	a6,440(sp)

0000000080001ba4 <i000000046c>:
    80001ba4:	58416383          	lwu	t2,1412(sp)
    80001ba8:	0008f117          	auipc	sp,0x8f
    80001bac:	45810113          	addi	sp,sp,1112 # 80091000 <begin_signature>
    80001bb0:	6309                	lui	t1,0x2
    80001bb2:	e203031b          	addiw	t1,t1,-480 # 1e20 <_tbss_end+0x1e20>
    80001bb6:	911a                	add	sp,sp,t1

0000000080001bb8 <i000000046d>:
    80001bb8:	98816d03          	lwu	s10,-1656(sp)

0000000080001bbc <i000000046e>:
    80001bbc:	fd012803          	lw	a6,-48(sp)

0000000080001bc0 <i000000046f>:
    80001bc0:	fce13023          	sd	a4,-64(sp)
    80001bc4:	0008f117          	auipc	sp,0x8f
    80001bc8:	43c10113          	addi	sp,sp,1084 # 80091000 <begin_signature>
    80001bcc:	6305                	lui	t1,0x1
    80001bce:	2361                	addiw	t1,t1,24 # 1018 <_tbss_end+0x1018>
    80001bd0:	911a                	add	sp,sp,t1

0000000080001bd2 <i0000000470>:
    80001bd2:	88813003          	ld	zero,-1912(sp)

0000000080001bd6 <i0000000471>:
    80001bd6:	0000100f          	fence.i

0000000080001bda <i0000000472>:
    80001bda:	21016783          	lwu	a5,528(sp)
    80001bde:	0008f117          	auipc	sp,0x8f
    80001be2:	42210113          	addi	sp,sp,1058 # 80091000 <begin_signature>
    80001be6:	6305                	lui	t1,0x1
    80001be8:	9c83031b          	addiw	t1,t1,-1592 # 9c8 <_tbss_end+0x9c8>
    80001bec:	911a                	add	sp,sp,t1

0000000080001bee <i0000000473>:
    80001bee:	b0c11803          	lh	a6,-1268(sp)

0000000080001bf2 <i0000000474>:
    80001bf2:	0f016803          	lwu	a6,240(sp)

0000000080001bf6 <i0000000475>:
    80001bf6:	00e79abb          	sllw	s5,a5,a4

0000000080001bfa <i0000000476>:
    80001bfa:	02c99713          	slli	a4,s3,0x2c

0000000080001bfe <i0000000477>:
    80001bfe:	0000100f          	fence.i

0000000080001c02 <i0000000478>:
    80001c02:	00f791bb          	sllw	gp,a5,a5

0000000080001c06 <i0000000479>:
    80001c06:	4068571b          	sraiw	a4,a6,0x6

0000000080001c0a <i000000047a>:
    80001c0a:	b3416703          	lwu	a4,-1228(sp)

0000000080001c0e <i000000047b>:
    80001c0e:	7c510723          	sb	t0,1998(sp)

0000000080001c12 <i000000047c>:
    80001c12:	89e11783          	lh	a5,-1890(sp)
    80001c16:	0008f117          	auipc	sp,0x8f
    80001c1a:	3ea10113          	addi	sp,sp,1002 # 80091000 <begin_signature>
    80001c1e:	6305                	lui	t1,0x1
    80001c20:	9303031b          	addiw	t1,t1,-1744 # 930 <_tbss_end+0x930>
    80001c24:	911a                	add	sp,sp,t1

0000000080001c26 <i000000047d>:
    80001c26:	d3813603          	ld	a2,-712(sp)

0000000080001c2a <i000000047e>:
    80001c2a:	0ff0000f          	fence

0000000080001c2e <i000000047f>:
    80001c2e:	1e612423          	sw	t1,488(sp)

0000000080001c32 <i0000000480>:
    80001c32:	4067d01b          	sraiw	zero,a5,0x6

0000000080001c36 <i0000000481>:
    80001c36:	ef7e                	sd	t6,408(sp)

0000000080001c38 <i0000000482>:
    80001c38:	01816903          	lwu	s2,24(sp)
    80001c3c:	0008f117          	auipc	sp,0x8f
    80001c40:	3c410113          	addi	sp,sp,964 # 80091000 <begin_signature>
    80001c44:	6305                	lui	t1,0x1
    80001c46:	911a                	add	sp,sp,t1

0000000080001c48 <i0000000483>:
    80001c48:	16511323          	sh	t0,358(sp)

0000000080001c4c <i0000000484>:
    80001c4c:	45912823          	sw	s9,1104(sp)

0000000080001c50 <i0000000485>:
    80001c50:	546e861b          	addiw	a2,t4,1350
    80001c54:	0008f117          	auipc	sp,0x8f
    80001c58:	3ac10113          	addi	sp,sp,940 # 80091000 <begin_signature>
    80001c5c:	6305                	lui	t1,0x1
    80001c5e:	1f03031b          	addiw	t1,t1,496 # 11f0 <_tbss_end+0x11f0>
    80001c62:	911a                	add	sp,sp,t1

0000000080001c64 <i0000000486>:
    80001c64:	09615283          	lhu	t0,150(sp)

0000000080001c68 <i0000000487>:
    80001c68:	0000100f          	fence.i

0000000080001c6c <i0000000488>:
    80001c6c:	0000100f          	fence.i

0000000080001c70 <i0000000489>:
    80001c70:	47413823          	sd	s4,1136(sp)

0000000080001c74 <i000000048a>:
    80001c74:	003b59bb          	srlw	s3,s6,gp

0000000080001c78 <i000000048b>:
    80001c78:	45912c23          	sw	s9,1112(sp)

0000000080001c7c <i000000048c>:
    80001c7c:	4384d893          	srai	a7,s1,0x38

0000000080001c80 <i000000048d>:
    80001c80:	01741793          	slli	a5,s0,0x17

0000000080001c84 <i000000048e>:
    80001c84:	f4816803          	lwu	a6,-184(sp)
    80001c88:	0008f117          	auipc	sp,0x8f
    80001c8c:	37810113          	addi	sp,sp,888 # 80091000 <begin_signature>
    80001c90:	630d                	lui	t1,0x3
    80001c92:	8683031b          	addiw	t1,t1,-1944 # 2868 <_tbss_end+0x2868>
    80001c96:	911a                	add	sp,sp,t1

0000000080001c98 <i000000048f>:
    80001c98:	47013803          	ld	a6,1136(sp)

0000000080001c9c <i0000000490>:
    80001c9c:	4058579b          	sraiw	a5,a6,0x5

0000000080001ca0 <i0000000491>:
    80001ca0:	5ae11723          	sh	a4,1454(sp)

0000000080001ca4 <i0000000492>:
    80001ca4:	f8712223          	sw	t2,-124(sp)

0000000080001ca8 <i0000000493>:
    80001ca8:	b9013823          	sd	a6,-1136(sp)

0000000080001cac <i0000000494>:
    80001cac:	0000100f          	fence.i

0000000080001cb0 <i0000000495>:
    80001cb0:	57a2                	lw	a5,40(sp)

0000000080001cb2 <i0000000496>:
    80001cb2:	3ba7879b          	addiw	a5,a5,954

0000000080001cb6 <i0000000497>:
    80001cb6:	e8013303          	ld	t1,-384(sp)

0000000080001cba <i0000000498>:
    80001cba:	0000100f          	fence.i

0000000080001cbe <i0000000499>:
    80001cbe:	ea3e                	sd	a5,272(sp)

0000000080001cc0 <i000000049a>:
    80001cc0:	c2914583          	lbu	a1,-983(sp)

0000000080001cc4 <i000000049b>:
    80001cc4:	0ff0000f          	fence

0000000080001cc8 <i000000049c>:
    80001cc8:	0ff0000f          	fence
    80001ccc:	0008f117          	auipc	sp,0x8f
    80001cd0:	33410113          	addi	sp,sp,820 # 80091000 <begin_signature>
    80001cd4:	630d                	lui	t1,0x3
    80001cd6:	f883031b          	addiw	t1,t1,-120 # 2f88 <_tbss_end+0x2f88>
    80001cda:	911a                	add	sp,sp,t1

0000000080001cdc <i000000049d>:
    80001cdc:	e7416b83          	lwu	s7,-396(sp)
    80001ce0:	0008f117          	auipc	sp,0x8f
    80001ce4:	32010113          	addi	sp,sp,800 # 80091000 <begin_signature>
    80001ce8:	6309                	lui	t1,0x2
    80001cea:	9683031b          	addiw	t1,t1,-1688 # 1968 <_tbss_end+0x1968>
    80001cee:	911a                	add	sp,sp,t1

0000000080001cf0 <i000000049e>:
    80001cf0:	e6c16783          	lwu	a5,-404(sp)
    80001cf4:	0008f117          	auipc	sp,0x8f
    80001cf8:	30c10113          	addi	sp,sp,780 # 80091000 <begin_signature>
    80001cfc:	6309                	lui	t1,0x2
    80001cfe:	2303031b          	addiw	t1,t1,560 # 2230 <_tbss_end+0x2230>
    80001d02:	911a                	add	sp,sp,t1

0000000080001d04 <i000000049f>:
    80001d04:	ef013023          	sd	a6,-288(sp)

0000000080001d08 <i00000004a0>:
    80001d08:	00f8d813          	srli	a6,a7,0xf

0000000080001d0c <i00000004a1>:
    80001d0c:	d1013b83          	ld	s7,-752(sp)

0000000080001d10 <i00000004a2>:
    80001d10:	01705b93          	srli	s7,zero,0x17

0000000080001d14 <i00000004a3>:
    80001d14:	0ff0000f          	fence

0000000080001d18 <i00000004a4>:
    80001d18:	30815c83          	lhu	s9,776(sp)

0000000080001d1c <i00000004a5>:
    80001d1c:	dd814883          	lbu	a7,-552(sp)

0000000080001d20 <i00000004a6>:
    80001d20:	4a012803          	lw	a6,1184(sp)

0000000080001d24 <i00000004a7>:
    80001d24:	0134d01b          	srliw	zero,s1,0x13

0000000080001d28 <i00000004a8>:
    80001d28:	87713423          	sd	s7,-1944(sp)

0000000080001d2c <i00000004a9>:
    80001d2c:	00b81c13          	slli	s8,a6,0xb

0000000080001d30 <i00000004aa>:
    80001d30:	15a11d23          	sh	s10,346(sp)

0000000080001d34 <i00000004ab>:
    80001d34:	a8814703          	lbu	a4,-1400(sp)

0000000080001d38 <i00000004ac>:
    80001d38:	00081b9b          	slliw	s7,a6,0x0

0000000080001d3c <i00000004ad>:
    80001d3c:	014fdabb          	srlw	s5,t6,s4
    80001d40:	0008f117          	auipc	sp,0x8f
    80001d44:	2c010113          	addi	sp,sp,704 # 80091000 <begin_signature>
    80001d48:	6305                	lui	t1,0x1
    80001d4a:	5c03031b          	addiw	t1,t1,1472 # 15c0 <_tbss_end+0x15c0>
    80001d4e:	911a                	add	sp,sp,t1

0000000080001d50 <i00000004ae>:
    80001d50:	6c5108a3          	sb	t0,1745(sp)

0000000080001d54 <i00000004af>:
    80001d54:	aae13823          	sd	a4,-1360(sp)

0000000080001d58 <i00000004b0>:
    80001d58:	b3d14803          	lbu	a6,-1219(sp)

0000000080001d5c <i00000004b1>:
    80001d5c:	0000100f          	fence.i

0000000080001d60 <i00000004b2>:
    80001d60:	0000100f          	fence.i

0000000080001d64 <i00000004b3>:
    80001d64:	6ac16f83          	lwu	t6,1708(sp)

0000000080001d68 <i00000004b4>:
    80001d68:	fc010683          	lb	a3,-64(sp)

0000000080001d6c <i00000004b5>:
    80001d6c:	0ff0000f          	fence

0000000080001d70 <i00000004b6>:
    80001d70:	0ff0000f          	fence

0000000080001d74 <i00000004b7>:
    80001d74:	406a873b          	subw	a4,s5,t1

0000000080001d78 <i00000004b8>:
    80001d78:	8bf10623          	sb	t6,-1876(sp)
    80001d7c:	0008f117          	auipc	sp,0x8f
    80001d80:	28410113          	addi	sp,sp,644 # 80091000 <begin_signature>
    80001d84:	630d                	lui	t1,0x3
    80001d86:	b883031b          	addiw	t1,t1,-1144 # 2b88 <_tbss_end+0x2b88>
    80001d8a:	911a                	add	sp,sp,t1

0000000080001d8c <i00000004b9>:
    80001d8c:	9b813c23          	sd	s8,-1608(sp)

0000000080001d90 <i00000004ba>:
    80001d90:	0000100f          	fence.i

0000000080001d94 <i00000004bb>:
    80001d94:	3a812783          	lw	a5,936(sp)

0000000080001d98 <i00000004bc>:
    80001d98:	00a71813          	slli	a6,a4,0xa

0000000080001d9c <i00000004bd>:
    80001d9c:	03bed493          	srli	s1,t4,0x3b
    80001da0:	0008f117          	auipc	sp,0x8f
    80001da4:	26010113          	addi	sp,sp,608 # 80091000 <begin_signature>
    80001da8:	6305                	lui	t1,0x1
    80001daa:	cb83031b          	addiw	t1,t1,-840 # cb8 <_tbss_end+0xcb8>
    80001dae:	911a                	add	sp,sp,t1

0000000080001db0 <i00000004be>:
    80001db0:	d3016803          	lwu	a6,-720(sp)

0000000080001db4 <i00000004bf>:
    80001db4:	0000100f          	fence.i

0000000080001db8 <i00000004c0>:
    80001db8:	0000100f          	fence.i

0000000080001dbc <i00000004c1>:
    80001dbc:	02775213          	srli	tp,a4,0x27

0000000080001dc0 <i00000004c2>:
    80001dc0:	1739079b          	addiw	a5,s2,371 # ffffffffdc2ae9a5 <_end+0xffffffff5c215f41>

0000000080001dc4 <i00000004c3>:
    80001dc4:	0000100f          	fence.i

0000000080001dc8 <i00000004c4>:
    80001dc8:	4107d51b          	sraiw	a0,a5,0x10
    80001dcc:	0008f117          	auipc	sp,0x8f
    80001dd0:	23410113          	addi	sp,sp,564 # 80091000 <begin_signature>
    80001dd4:	6309                	lui	t1,0x2
    80001dd6:	f003031b          	addiw	t1,t1,-256 # 1f00 <_tbss_end+0x1f00>
    80001dda:	911a                	add	sp,sp,t1

0000000080001ddc <i00000004c5>:
    80001ddc:	7e015803          	lhu	a6,2016(sp)

0000000080001de0 <i00000004c6>:
    80001de0:	41075a3b          	sraw	s4,a4,a6

0000000080001de4 <i00000004c7>:
    80001de4:	0000100f          	fence.i

0000000080001de8 <i00000004c8>:
    80001de8:	00a81413          	slli	s0,a6,0xa

0000000080001dec <i00000004c9>:
    80001dec:	411a5b93          	srai	s7,s4,0x11

0000000080001df0 <i00000004ca>:
    80001df0:	0000100f          	fence.i

0000000080001df4 <i00000004cb>:
    80001df4:	e54a                	sd	s2,136(sp)

0000000080001df6 <i00000004cc>:
    80001df6:	40f7573b          	sraw	a4,a4,a5

0000000080001dfa <i00000004cd>:
    80001dfa:	4207d813          	srai	a6,a5,0x20

0000000080001dfe <i00000004ce>:
    80001dfe:	88e13823          	sd	a4,-1904(sp)

0000000080001e02 <i00000004cf>:
    80001e02:	0000100f          	fence.i

0000000080001e06 <i00000004d0>:
    80001e06:	0000100f          	fence.i

0000000080001e0a <i00000004d1>:
    80001e0a:	01175893          	srli	a7,a4,0x11

0000000080001e0e <i00000004d2>:
    80001e0e:	0000100f          	fence.i

0000000080001e12 <i00000004d3>:
    80001e12:	6ee14183          	lbu	gp,1774(sp)

0000000080001e16 <i00000004d4>:
    80001e16:	0000100f          	fence.i

0000000080001e1a <i00000004d5>:
    80001e1a:	40f857bb          	sraw	a5,a6,a5

0000000080001e1e <i00000004d6>:
    80001e1e:	fac12d03          	lw	s10,-84(sp)

0000000080001e22 <i00000004d7>:
    80001e22:	0ff0000f          	fence

0000000080001e26 <i00000004d8>:
    80001e26:	eff108a3          	sb	t6,-271(sp)

0000000080001e2a <i00000004d9>:
    80001e2a:	0000100f          	fence.i

0000000080001e2e <i00000004da>:
    80001e2e:	00c2083b          	addw	a6,tp,a2

0000000080001e32 <i00000004db>:
    80001e32:	01931813          	slli	a6,t1,0x19

0000000080001e36 <i00000004dc>:
    80001e36:	0ff0000f          	fence

0000000080001e3a <i00000004dd>:
    80001e3a:	40a457bb          	sraw	a5,s0,a0
    80001e3e:	0008f117          	auipc	sp,0x8f
    80001e42:	1c210113          	addi	sp,sp,450 # 80091000 <begin_signature>
    80001e46:	6305                	lui	t1,0x1
    80001e48:	e583031b          	addiw	t1,t1,-424 # e58 <_tbss_end+0xe58>
    80001e4c:	911a                	add	sp,sp,t1

0000000080001e4e <i00000004de>:
    80001e4e:	27e15803          	lhu	a6,638(sp)

0000000080001e52 <i00000004df>:
    80001e52:	1e812783          	lw	a5,488(sp)

0000000080001e56 <i00000004e0>:
    80001e56:	3c013803          	ld	a6,960(sp)

0000000080001e5a <i00000004e1>:
    80001e5a:	4f813423          	sd	s8,1256(sp)

0000000080001e5e <i00000004e2>:
    80001e5e:	0ff0000f          	fence
    80001e62:	0008f117          	auipc	sp,0x8f
    80001e66:	19e10113          	addi	sp,sp,414 # 80091000 <begin_signature>
    80001e6a:	630d                	lui	t1,0x3
    80001e6c:	5603031b          	addiw	t1,t1,1376 # 3560 <_tbss_end+0x3560>
    80001e70:	911a                	add	sp,sp,t1

0000000080001e72 <i00000004e3>:
    80001e72:	c6c16383          	lwu	t2,-916(sp)

0000000080001e76 <i00000004e4>:
    80001e76:	00e11823          	sh	a4,16(sp)

0000000080001e7a <i00000004e5>:
    80001e7a:	42585793          	srai	a5,a6,0x25
    80001e7e:	0008f117          	auipc	sp,0x8f
    80001e82:	18210113          	addi	sp,sp,386 # 80091000 <begin_signature>
    80001e86:	6309                	lui	t1,0x2
    80001e88:	ca03031b          	addiw	t1,t1,-864 # 1ca0 <_tbss_end+0x1ca0>
    80001e8c:	911a                	add	sp,sp,t1

0000000080001e8e <i00000004e6>:
    80001e8e:	7b82                	ld	s7,32(sp)

0000000080001e90 <i00000004e7>:
    80001e90:	00781793          	slli	a5,a6,0x7

0000000080001e94 <i00000004e8>:
    80001e94:	3268079b          	addiw	a5,a6,806

0000000080001e98 <i00000004e9>:
    80001e98:	0000100f          	fence.i

0000000080001e9c <i00000004ea>:
    80001e9c:	0000100f          	fence.i
    80001ea0:	0008f117          	auipc	sp,0x8f
    80001ea4:	16010113          	addi	sp,sp,352 # 80091000 <begin_signature>
    80001ea8:	630d                	lui	t1,0x3
    80001eaa:	5703031b          	addiw	t1,t1,1392 # 3570 <_tbss_end+0x3570>
    80001eae:	911a                	add	sp,sp,t1

0000000080001eb0 <i00000004eb>:
    80001eb0:	84e12e23          	sw	a4,-1956(sp)

0000000080001eb4 <i00000004ec>:
    80001eb4:	0107d7bb          	srlw	a5,a5,a6

0000000080001eb8 <i00000004ed>:
    80001eb8:	d3a12c23          	sw	s10,-712(sp)

0000000080001ebc <i00000004ee>:
    80001ebc:	0ff0000f          	fence

0000000080001ec0 <i00000004ef>:
    80001ec0:	28a11023          	sh	a0,640(sp)

0000000080001ec4 <i00000004f0>:
    80001ec4:	40d10783          	lb	a5,1037(sp)

0000000080001ec8 <i00000004f1>:
    80001ec8:	b3013783          	ld	a5,-1232(sp)

0000000080001ecc <i00000004f2>:
    80001ecc:	6daa                	ld	s11,136(sp)

0000000080001ece <i00000004f3>:
    80001ece:	ad013e03          	ld	t3,-1328(sp)

0000000080001ed2 <i00000004f4>:
    80001ed2:	0000100f          	fence.i

0000000080001ed6 <i00000004f5>:
    80001ed6:	0ff0000f          	fence

0000000080001eda <i00000004f6>:
    80001eda:	00e79a3b          	sllw	s4,a5,a4

0000000080001ede <i00000004f7>:
    80001ede:	a2412803          	lw	a6,-1500(sp)

0000000080001ee2 <i00000004f8>:
    80001ee2:	41dad71b          	sraiw	a4,s5,0x1d

0000000080001ee6 <i00000004f9>:
    80001ee6:	0ff0000f          	fence

0000000080001eea <i00000004fa>:
    80001eea:	0ff0000f          	fence

0000000080001eee <i00000004fb>:
    80001eee:	81710123          	sb	s7,-2046(sp)

0000000080001ef2 <i00000004fc>:
    80001ef2:	0000100f          	fence.i

0000000080001ef6 <i00000004fd>:
    80001ef6:	66511723          	sh	t0,1646(sp)

0000000080001efa <i00000004fe>:
    80001efa:	9e815303          	lhu	t1,-1560(sp)

0000000080001efe <i00000004ff>:
    80001efe:	00e7199b          	slliw	s3,a4,0xe
    80001f02:	0008f117          	auipc	sp,0x8f
    80001f06:	0fe10113          	addi	sp,sp,254 # 80091000 <begin_signature>
    80001f0a:	6309                	lui	t1,0x2
    80001f0c:	9683031b          	addiw	t1,t1,-1688 # 1968 <_tbss_end+0x1968>
    80001f10:	911a                	add	sp,sp,t1

0000000080001f12 <i0000000500>:
    80001f12:	f3013703          	ld	a4,-208(sp)

0000000080001f16 <i0000000501>:
    80001f16:	2ce12e23          	sw	a4,732(sp)
    80001f1a:	0008f117          	auipc	sp,0x8f
    80001f1e:	0e610113          	addi	sp,sp,230 # 80091000 <begin_signature>
    80001f22:	630d                	lui	t1,0x3
    80001f24:	ba83031b          	addiw	t1,t1,-1112 # 2ba8 <_tbss_end+0x2ba8>
    80001f28:	911a                	add	sp,sp,t1

0000000080001f2a <i0000000502>:
    80001f2a:	42813023          	sd	s0,1056(sp)

0000000080001f2e <i0000000503>:
    80001f2e:	f4016703          	lwu	a4,-192(sp)

0000000080001f32 <i0000000504>:
    80001f32:	8cc14d03          	lbu	s10,-1844(sp)

0000000080001f36 <i0000000505>:
    80001f36:	83013423          	sd	a6,-2008(sp)

0000000080001f3a <i0000000506>:
    80001f3a:	f5413c23          	sd	s4,-168(sp)

0000000080001f3e <i0000000507>:
    80001f3e:	00b6161b          	slliw	a2,a2,0xb

0000000080001f42 <i0000000508>:
    80001f42:	0ff0000f          	fence
    80001f46:	0008f117          	auipc	sp,0x8f
    80001f4a:	0ba10113          	addi	sp,sp,186 # 80091000 <begin_signature>
    80001f4e:	6305                	lui	t1,0x1
    80001f50:	ec03031b          	addiw	t1,t1,-320 # ec0 <_tbss_end+0xec0>
    80001f54:	911a                	add	sp,sp,t1

0000000080001f56 <i0000000509>:
    80001f56:	29013783          	ld	a5,656(sp)

0000000080001f5a <i000000050a>:
    80001f5a:	0ff0000f          	fence

0000000080001f5e <i000000050b>:
    80001f5e:	0ff0000f          	fence

0000000080001f62 <i000000050c>:
    80001f62:	03c16783          	lwu	a5,60(sp)
    80001f66:	0008f117          	auipc	sp,0x8f
    80001f6a:	09a10113          	addi	sp,sp,154 # 80091000 <begin_signature>
    80001f6e:	6305                	lui	t1,0x1
    80001f70:	ba83031b          	addiw	t1,t1,-1112 # ba8 <_tbss_end+0xba8>
    80001f74:	911a                	add	sp,sp,t1

0000000080001f76 <i000000050d>:
    80001f76:	14510d03          	lb	s10,325(sp)

0000000080001f7a <i000000050e>:
    80001f7a:	d1612023          	sw	s6,-768(sp)
    80001f7e:	0008f117          	auipc	sp,0x8f
    80001f82:	08210113          	addi	sp,sp,130 # 80091000 <begin_signature>
    80001f86:	6305                	lui	t1,0x1
    80001f88:	8003031b          	addiw	t1,t1,-2048 # 800 <_tbss_end+0x800>
    80001f8c:	911a                	add	sp,sp,t1

0000000080001f8e <i000000050f>:
    80001f8e:	23e15703          	lhu	a4,574(sp)

0000000080001f92 <i0000000510>:
    80001f92:	02629793          	slli	a5,t0,0x26

0000000080001f96 <i0000000511>:
    80001f96:	4cf10123          	sb	a5,1218(sp)

0000000080001f9a <i0000000512>:
    80001f9a:	85812703          	lw	a4,-1960(sp)

0000000080001f9e <i0000000513>:
    80001f9e:	66f13823          	sd	a5,1648(sp)

0000000080001fa2 <i0000000514>:
    80001fa2:	38f10ea3          	sb	a5,925(sp)

0000000080001fa6 <i0000000515>:
    80001fa6:	0000100f          	fence.i

0000000080001faa <i0000000516>:
    80001faa:	64c16803          	lwu	a6,1612(sp)

0000000080001fae <i0000000517>:
    80001fae:	98614783          	lbu	a5,-1658(sp)

0000000080001fb2 <i0000000518>:
    80001fb2:	40c8d793          	srai	a5,a7,0xc

0000000080001fb6 <i0000000519>:
    80001fb6:	0ff0000f          	fence

0000000080001fba <i000000051a>:
    80001fba:	0267d813          	srli	a6,a5,0x26

0000000080001fbe <i000000051b>:
    80001fbe:	7b016c03          	lwu	s8,1968(sp)

0000000080001fc2 <i000000051c>:
    80001fc2:	db615703          	lhu	a4,-586(sp)

0000000080001fc6 <i000000051d>:
    80001fc6:	b9810703          	lb	a4,-1128(sp)

0000000080001fca <i000000051e>:
    80001fca:	4327dd13          	srai	s10,a5,0x32

0000000080001fce <i000000051f>:
    80001fce:	0000100f          	fence.i

0000000080001fd2 <i0000000520>:
    80001fd2:	45010723          	sb	a6,1102(sp)
    80001fd6:	0008f117          	auipc	sp,0x8f
    80001fda:	02a10113          	addi	sp,sp,42 # 80091000 <begin_signature>
    80001fde:	6305                	lui	t1,0x1
    80001fe0:	3403031b          	addiw	t1,t1,832 # 1340 <_tbss_end+0x1340>
    80001fe4:	911a                	add	sp,sp,t1

0000000080001fe6 <i0000000521>:
    80001fe6:	84513023          	sd	t0,-1984(sp)

0000000080001fea <i0000000522>:
    80001fea:	ea411783          	lh	a5,-348(sp)

0000000080001fee <i0000000523>:
    80001fee:	61813783          	ld	a5,1560(sp)

0000000080001ff2 <i0000000524>:
    80001ff2:	01f7db9b          	srliw	s7,a5,0x1f

0000000080001ff6 <i0000000525>:
    80001ff6:	9c813b83          	ld	s7,-1592(sp)

0000000080001ffa <i0000000526>:
    80001ffa:	49f10483          	lb	s1,1183(sp)

0000000080001ffe <i0000000527>:
    80001ffe:	0fc16703          	lwu	a4,252(sp)

0000000080002002 <i0000000528>:
    80002002:	0ff0000f          	fence

0000000080002006 <i0000000529>:
    80002006:	27013783          	ld	a5,624(sp)

000000008000200a <i000000052a>:
    8000200a:	67d2                	ld	a5,272(sp)

000000008000200c <i000000052b>:
    8000200c:	0ff0000f          	fence

0000000080002010 <i000000052c>:
    80002010:	00e714bb          	sllw	s1,a4,a4

0000000080002014 <i000000052d>:
    80002014:	b6f13c23          	sd	a5,-1160(sp)

0000000080002018 <i000000052e>:
    80002018:	00071c1b          	slliw	s8,a4,0x0

000000008000201c <i000000052f>:
    8000201c:	41810ea3          	sb	s8,1053(sp)

0000000080002020 <i0000000530>:
    80002020:	96812583          	lw	a1,-1688(sp)

0000000080002024 <i0000000531>:
    80002024:	b1c16703          	lwu	a4,-1252(sp)

0000000080002028 <i0000000532>:
    80002028:	00a1943b          	sllw	s0,gp,a0

000000008000202c <i0000000533>:
    8000202c:	ba410c03          	lb	s8,-1116(sp)

0000000080002030 <i0000000534>:
    80002030:	0000100f          	fence.i

0000000080002034 <i0000000535>:
    80002034:	fe27029b          	addiw	t0,a4,-30

0000000080002038 <i0000000536>:
    80002038:	0ff0000f          	fence

000000008000203c <i0000000537>:
    8000203c:	cca11123          	sh	a0,-830(sp)
    80002040:	0008f117          	auipc	sp,0x8f
    80002044:	fc010113          	addi	sp,sp,-64 # 80091000 <begin_signature>
    80002048:	6309                	lui	t1,0x2
    8000204a:	ae83031b          	addiw	t1,t1,-1304 # 1ae8 <_tbss_end+0x1ae8>
    8000204e:	911a                	add	sp,sp,t1

0000000080002050 <i0000000538>:
    80002050:	5d512023          	sw	s5,1472(sp)

0000000080002054 <i0000000539>:
    80002054:	2e813803          	ld	a6,744(sp)

0000000080002058 <i000000053a>:
    80002058:	0000100f          	fence.i

000000008000205c <i000000053b>:
    8000205c:	03859813          	slli	a6,a1,0x38
    80002060:	0008f117          	auipc	sp,0x8f
    80002064:	fa010113          	addi	sp,sp,-96 # 80091000 <begin_signature>
    80002068:	6305                	lui	t1,0x1
    8000206a:	8583031b          	addiw	t1,t1,-1960 # 858 <_tbss_end+0x858>
    8000206e:	911a                	add	sp,sp,t1

0000000080002070 <i000000053c>:
    80002070:	f8813803          	ld	a6,-120(sp)

0000000080002074 <i000000053d>:
    80002074:	83c16b03          	lwu	s6,-1988(sp)

0000000080002078 <i000000053e>:
    80002078:	0ff0000f          	fence

000000008000207c <i000000053f>:
    8000207c:	0000100f          	fence.i

0000000080002080 <i0000000540>:
    80002080:	01078d3b          	addw	s10,a5,a6

0000000080002084 <i0000000541>:
    80002084:	0ff0000f          	fence

0000000080002088 <i0000000542>:
    80002088:	1ec16f03          	lwu	t5,492(sp)

000000008000208c <i0000000543>:
    8000208c:	0000100f          	fence.i

0000000080002090 <i0000000544>:
    80002090:	60813b03          	ld	s6,1544(sp)

0000000080002094 <i0000000545>:
    80002094:	70c10683          	lb	a3,1804(sp)

0000000080002098 <i0000000546>:
    80002098:	4f913423          	sd	s9,1256(sp)
    8000209c:	0008f117          	auipc	sp,0x8f
    800020a0:	f6410113          	addi	sp,sp,-156 # 80091000 <begin_signature>
    800020a4:	6305                	lui	t1,0x1
    800020a6:	b203031b          	addiw	t1,t1,-1248 # b20 <_tbss_end+0xb20>
    800020aa:	911a                	add	sp,sp,t1

00000000800020ac <i0000000547>:
    800020ac:	f0012803          	lw	a6,-256(sp)

00000000800020b0 <i0000000548>:
    800020b0:	01535013          	srli	zero,t1,0x15

00000000800020b4 <i0000000549>:
    800020b4:	0ff0000f          	fence

00000000800020b8 <i000000054a>:
    800020b8:	e4c12003          	lw	zero,-436(sp)

00000000800020bc <i000000054b>:
    800020bc:	e8911323          	sh	s1,-378(sp)

00000000800020c0 <i000000054c>:
    800020c0:	0000100f          	fence.i

00000000800020c4 <i000000054d>:
    800020c4:	4776                	lw	a4,92(sp)

00000000800020c6 <i000000054e>:
    800020c6:	39815503          	lhu	a0,920(sp)

00000000800020ca <i000000054f>:
    800020ca:	00ee989b          	slliw	a7,t4,0xe

00000000800020ce <i0000000550>:
    800020ce:	0000100f          	fence.i
    800020d2:	0008f117          	auipc	sp,0x8f
    800020d6:	f2e10113          	addi	sp,sp,-210 # 80091000 <begin_signature>
    800020da:	6305                	lui	t1,0x1
    800020dc:	4f83031b          	addiw	t1,t1,1272 # 14f8 <_tbss_end+0x14f8>
    800020e0:	911a                	add	sp,sp,t1

00000000800020e2 <i0000000551>:
    800020e2:	7a016883          	lwu	a7,1952(sp)

00000000800020e6 <i0000000552>:
    800020e6:	ca012383          	lw	t2,-864(sp)

00000000800020ea <i0000000553>:
    800020ea:	0ff0000f          	fence

00000000800020ee <i0000000554>:
    800020ee:	9f27071b          	addiw	a4,a4,-1550

00000000800020f2 <i0000000555>:
    800020f2:	29013423          	sd	a6,648(sp)
    800020f6:	0008f117          	auipc	sp,0x8f
    800020fa:	f0a10113          	addi	sp,sp,-246 # 80091000 <begin_signature>
    800020fe:	6309                	lui	t1,0x2
    80002100:	6d83031b          	addiw	t1,t1,1752 # 26d8 <_tbss_end+0x26d8>
    80002104:	911a                	add	sp,sp,t1

0000000080002106 <i0000000556>:
    80002106:	bcc16783          	lwu	a5,-1076(sp)

000000008000210a <i0000000557>:
    8000210a:	12411c83          	lh	s9,292(sp)

000000008000210e <i0000000558>:
    8000210e:	0ff0000f          	fence

0000000080002112 <i0000000559>:
    80002112:	ba38071b          	addiw	a4,a6,-1117
    80002116:	0008f117          	auipc	sp,0x8f
    8000211a:	eea10113          	addi	sp,sp,-278 # 80091000 <begin_signature>
    8000211e:	630d                	lui	t1,0x3
    80002120:	5103031b          	addiw	t1,t1,1296 # 3510 <_tbss_end+0x3510>
    80002124:	911a                	add	sp,sp,t1

0000000080002126 <i000000055a>:
    80002126:	3c015703          	lhu	a4,960(sp)

000000008000212a <i000000055b>:
    8000212a:	0ff0000f          	fence

000000008000212e <i000000055c>:
    8000212e:	21013e03          	ld	t3,528(sp)

0000000080002132 <i000000055d>:
    80002132:	8ac16703          	lwu	a4,-1876(sp)

0000000080002136 <i000000055e>:
    80002136:	a1310f23          	sb	s3,-1506(sp)

000000008000213a <i000000055f>:
    8000213a:	0ff0000f          	fence

000000008000213e <i0000000560>:
    8000213e:	c2f13423          	sd	a5,-984(sp)

0000000080002142 <i0000000561>:
    80002142:	01d8551b          	srliw	a0,a6,0x1d

0000000080002146 <i0000000562>:
    80002146:	004e5793          	srli	a5,t3,0x4

000000008000214a <i0000000563>:
    8000214a:	13e11b03          	lh	s6,318(sp)

000000008000214e <i0000000564>:
    8000214e:	01da5d1b          	srliw	s10,s4,0x1d

0000000080002152 <i0000000565>:
    80002152:	9be11483          	lh	s1,-1602(sp)

0000000080002156 <i0000000566>:
    80002156:	b8e100a3          	sb	a4,-1151(sp)

000000008000215a <i0000000567>:
    8000215a:	4359d213          	srai	tp,s3,0x35

000000008000215e <i0000000568>:
    8000215e:	e0812703          	lw	a4,-504(sp)

0000000080002162 <i0000000569>:
    80002162:	4af11b23          	sh	a5,1206(sp)

0000000080002166 <i000000056a>:
    80002166:	aa816783          	lwu	a5,-1368(sp)

000000008000216a <i000000056b>:
    8000216a:	be013803          	ld	a6,-1056(sp)

000000008000216e <i000000056c>:
    8000216e:	0000100f          	fence.i

0000000080002172 <i000000056d>:
    80002172:	01db17bb          	sllw	a5,s6,t4

0000000080002176 <i000000056e>:
    80002176:	0ff0000f          	fence

000000008000217a <i000000056f>:
    8000217a:	47a11803          	lh	a6,1146(sp)

000000008000217e <i0000000570>:
    8000217e:	16816703          	lwu	a4,360(sp)

0000000080002182 <i0000000571>:
    80002182:	8b5109a3          	sb	s5,-1869(sp)

0000000080002186 <i0000000572>:
    80002186:	43175e13          	srai	t3,a4,0x31

000000008000218a <i0000000573>:
    8000218a:	9eb11b23          	sh	a1,-1546(sp)

000000008000218e <i0000000574>:
    8000218e:	40a1d73b          	sraw	a4,gp,a0

0000000080002192 <i0000000575>:
    80002192:	c5c10e03          	lb	t3,-932(sp)

0000000080002196 <i0000000576>:
    80002196:	72416703          	lwu	a4,1828(sp)

000000008000219a <i0000000577>:
    8000219a:	0000100f          	fence.i

000000008000219e <i0000000578>:
    8000219e:	73013803          	ld	a6,1840(sp)

00000000800021a2 <i0000000579>:
    800021a2:	a0813303          	ld	t1,-1528(sp)

00000000800021a6 <i000000057a>:
    800021a6:	93013b03          	ld	s6,-1744(sp)

00000000800021aa <i000000057b>:
    800021aa:	30816d03          	lwu	s10,776(sp)
    800021ae:	0008f117          	auipc	sp,0x8f
    800021b2:	e5210113          	addi	sp,sp,-430 # 80091000 <begin_signature>
    800021b6:	630d                	lui	t1,0x3
    800021b8:	4503031b          	addiw	t1,t1,1104 # 3450 <_tbss_end+0x3450>
    800021bc:	911a                	add	sp,sp,t1

00000000800021be <i000000057c>:
    800021be:	17016b83          	lwu	s7,368(sp)

00000000800021c2 <i000000057d>:
    800021c2:	0ff0000f          	fence
    800021c6:	0008f117          	auipc	sp,0x8f
    800021ca:	e3a10113          	addi	sp,sp,-454 # 80091000 <begin_signature>
    800021ce:	6305                	lui	t1,0x1
    800021d0:	2303031b          	addiw	t1,t1,560 # 1230 <_tbss_end+0x1230>
    800021d4:	911a                	add	sp,sp,t1

00000000800021d6 <i000000057e>:
    800021d6:	fce13423          	sd	a4,-56(sp)

00000000800021da <i000000057f>:
    800021da:	0000100f          	fence.i
    800021de:	0008f117          	auipc	sp,0x8f
    800021e2:	e2210113          	addi	sp,sp,-478 # 80091000 <begin_signature>
    800021e6:	6309                	lui	t1,0x2
    800021e8:	7e03031b          	addiw	t1,t1,2016 # 27e0 <_tbss_end+0x27e0>
    800021ec:	911a                	add	sp,sp,t1

00000000800021ee <i0000000580>:
    800021ee:	e0f13423          	sd	a5,-504(sp)
    800021f2:	0008f117          	auipc	sp,0x8f
    800021f6:	e0e10113          	addi	sp,sp,-498 # 80091000 <begin_signature>
    800021fa:	630d                	lui	t1,0x3
    800021fc:	fd03031b          	addiw	t1,t1,-48 # 2fd0 <_tbss_end+0x2fd0>
    80002200:	911a                	add	sp,sp,t1

0000000080002202 <i0000000581>:
    80002202:	e5be                	sd	a5,200(sp)

0000000080002204 <i0000000582>:
    80002204:	eef13423          	sd	a5,-280(sp)

0000000080002208 <i0000000583>:
    80002208:	ef416883          	lwu	a7,-268(sp)

000000008000220c <i0000000584>:
    8000220c:	4167581b          	sraiw	a6,a4,0x16

0000000080002210 <i0000000585>:
    80002210:	013a5c13          	srli	s8,s4,0x13

0000000080002214 <i0000000586>:
    80002214:	8bc12b83          	lw	s7,-1860(sp)

0000000080002218 <i0000000587>:
    80002218:	9d013683          	ld	a3,-1584(sp)

000000008000221c <i0000000588>:
    8000221c:	00185793          	srli	a5,a6,0x1

0000000080002220 <i0000000589>:
    80002220:	48e13823          	sd	a4,1168(sp)

0000000080002224 <i000000058a>:
    80002224:	0000100f          	fence.i
    80002228:	0008f117          	auipc	sp,0x8f
    8000222c:	dd810113          	addi	sp,sp,-552 # 80091000 <begin_signature>
    80002230:	6309                	lui	t1,0x2
    80002232:	1603031b          	addiw	t1,t1,352 # 2160 <_tbss_end+0x2160>
    80002236:	911a                	add	sp,sp,t1

0000000080002238 <i000000058b>:
    80002238:	6fa6                	ld	t6,72(sp)

000000008000223a <i000000058c>:
    8000223a:	0d511e23          	sh	s5,220(sp)

000000008000223e <i000000058d>:
    8000223e:	0000100f          	fence.i

0000000080002242 <i000000058e>:
    80002242:	0ff0000f          	fence

0000000080002246 <i000000058f>:
    80002246:	4147d393          	srai	t2,a5,0x14

000000008000224a <i0000000590>:
    8000224a:	be016583          	lwu	a1,-1056(sp)
    8000224e:	0008f117          	auipc	sp,0x8f
    80002252:	db210113          	addi	sp,sp,-590 # 80091000 <begin_signature>
    80002256:	630d                	lui	t1,0x3
    80002258:	9703031b          	addiw	t1,t1,-1680 # 2970 <_tbss_end+0x2970>
    8000225c:	911a                	add	sp,sp,t1

000000008000225e <i0000000591>:
    8000225e:	e7f11e23          	sh	t6,-388(sp)

0000000080002262 <i0000000592>:
    80002262:	9d412703          	lw	a4,-1580(sp)

0000000080002266 <i0000000593>:
    80002266:	fd6107a3          	sb	s6,-49(sp)

000000008000226a <i0000000594>:
    8000226a:	80416283          	lwu	t0,-2044(sp)

000000008000226e <i0000000595>:
    8000226e:	0000100f          	fence.i

0000000080002272 <i0000000596>:
    80002272:	0ff0000f          	fence

0000000080002276 <i0000000597>:
    80002276:	4040571b          	sraiw	a4,zero,0x4

000000008000227a <i0000000598>:
    8000227a:	0000100f          	fence.i
    8000227e:	0008f117          	auipc	sp,0x8f
    80002282:	d8210113          	addi	sp,sp,-638 # 80091000 <begin_signature>
    80002286:	6305                	lui	t1,0x1
    80002288:	d003031b          	addiw	t1,t1,-768 # d00 <_tbss_end+0xd00>
    8000228c:	911a                	add	sp,sp,t1

000000008000228e <i0000000599>:
    8000228e:	0a614d03          	lbu	s10,166(sp)

0000000080002292 <i000000059a>:
    80002292:	0000100f          	fence.i

0000000080002296 <i000000059b>:
    80002296:	b9d10d23          	sb	t4,-1126(sp)

000000008000229a <i000000059c>:
    8000229a:	0000100f          	fence.i

000000008000229e <i000000059d>:
    8000229e:	0005093b          	addw	s2,a0,zero

00000000800022a2 <i000000059e>:
    800022a2:	35416803          	lwu	a6,852(sp)

00000000800022a6 <i000000059f>:
    800022a6:	b0e12a23          	sw	a4,-1260(sp)
    800022aa:	0008f117          	auipc	sp,0x8f
    800022ae:	d5610113          	addi	sp,sp,-682 # 80091000 <begin_signature>
    800022b2:	6305                	lui	t1,0x1
    800022b4:	fd03031b          	addiw	t1,t1,-48 # fd0 <_tbss_end+0xfd0>
    800022b8:	911a                	add	sp,sp,t1

00000000800022ba <i00000005a0>:
    800022ba:	7736                	ld	a4,360(sp)

00000000800022bc <i00000005a1>:
    800022bc:	d8f100a3          	sb	a5,-639(sp)

00000000800022c0 <i00000005a2>:
    800022c0:	67816803          	lwu	a6,1656(sp)

00000000800022c4 <i00000005a3>:
    800022c4:	0000100f          	fence.i

00000000800022c8 <i00000005a4>:
    800022c8:	0ff0000f          	fence

00000000800022cc <i00000005a5>:
    800022cc:	0af14e03          	lbu	t3,175(sp)
    800022d0:	0008f117          	auipc	sp,0x8f
    800022d4:	d3010113          	addi	sp,sp,-720 # 80091000 <begin_signature>
    800022d8:	6309                	lui	t1,0x2
    800022da:	db03031b          	addiw	t1,t1,-592 # 1db0 <_tbss_end+0x1db0>
    800022de:	911a                	add	sp,sp,t1

00000000800022e0 <i00000005a6>:
    800022e0:	feba                	sd	a4,376(sp)

00000000800022e2 <i00000005a7>:
    800022e2:	def13423          	sd	a5,-536(sp)
    800022e6:	0008f117          	auipc	sp,0x8f
    800022ea:	d1a10113          	addi	sp,sp,-742 # 80091000 <begin_signature>
    800022ee:	6309                	lui	t1,0x2
    800022f0:	6383031b          	addiw	t1,t1,1592 # 2638 <_tbss_end+0x2638>
    800022f4:	911a                	add	sp,sp,t1

00000000800022f6 <i00000005a8>:
    800022f6:	22416303          	lwu	t1,548(sp)

00000000800022fa <i00000005a9>:
    800022fa:	42d11f23          	sh	a3,1086(sp)

00000000800022fe <i00000005aa>:
    800022fe:	e4b14503          	lbu	a0,-437(sp)

0000000080002302 <i00000005ab>:
    80002302:	0000100f          	fence.i

0000000080002306 <i00000005ac>:
    80002306:	0051863b          	addw	a2,gp,t0

000000008000230a <i00000005ad>:
    8000230a:	c5313c23          	sd	s3,-936(sp)

000000008000230e <i00000005ae>:
    8000230e:	40c7519b          	sraiw	gp,a4,0xc

0000000080002312 <i00000005af>:
    80002312:	0ff0000f          	fence

0000000080002316 <i00000005b0>:
    80002316:	80012283          	lw	t0,-2048(sp)

000000008000231a <i00000005b1>:
    8000231a:	00cb88bb          	addw	a7,s7,a2

000000008000231e <i00000005b2>:
    8000231e:	0000100f          	fence.i
    80002322:	0008f117          	auipc	sp,0x8f
    80002326:	cde10113          	addi	sp,sp,-802 # 80091000 <begin_signature>
    8000232a:	630d                	lui	t1,0x3
    8000232c:	d683031b          	addiw	t1,t1,-664 # 2d68 <_tbss_end+0x2d68>
    80002330:	911a                	add	sp,sp,t1

0000000080002332 <i00000005b3>:
    80002332:	4c713823          	sd	t2,1232(sp)

0000000080002336 <i00000005b4>:
    80002336:	2e012803          	lw	a6,736(sp)

000000008000233a <i00000005b5>:
    8000233a:	00a51813          	slli	a6,a0,0xa

000000008000233e <i00000005b6>:
    8000233e:	b9a11703          	lh	a4,-1126(sp)

0000000080002342 <i00000005b7>:
    80002342:	c5013423          	sd	a6,-952(sp)

0000000080002346 <i00000005b8>:
    80002346:	0000100f          	fence.i

000000008000234a <i00000005b9>:
    8000234a:	00cc983b          	sllw	a6,s9,a2

000000008000234e <i00000005ba>:
    8000234e:	026b5813          	srli	a6,s6,0x26

0000000080002352 <i00000005bb>:
    80002352:	51411303          	lh	t1,1300(sp)

0000000080002356 <i00000005bc>:
    80002356:	e19107a3          	sb	s9,-497(sp)

000000008000235a <i00000005bd>:
    8000235a:	99c16883          	lwu	a7,-1636(sp)
    8000235e:	0008f117          	auipc	sp,0x8f
    80002362:	ca210113          	addi	sp,sp,-862 # 80091000 <begin_signature>
    80002366:	6305                	lui	t1,0x1
    80002368:	7c83031b          	addiw	t1,t1,1992 # 17c8 <_tbss_end+0x17c8>
    8000236c:	911a                	add	sp,sp,t1

000000008000236e <i00000005be>:
    8000236e:	e0813703          	ld	a4,-504(sp)

0000000080002372 <i00000005bf>:
    80002372:	0ff0000f          	fence

0000000080002376 <i00000005c0>:
    80002376:	e5b13423          	sd	s11,-440(sp)

000000008000237a <i00000005c1>:
    8000237a:	0000100f          	fence.i

000000008000237e <i00000005c2>:
    8000237e:	f3814303          	lbu	t1,-200(sp)

0000000080002382 <i00000005c3>:
    80002382:	0000100f          	fence.i

0000000080002386 <i00000005c4>:
    80002386:	010757bb          	srlw	a5,a4,a6

000000008000238a <i00000005c5>:
    8000238a:	0ff0000f          	fence
    8000238e:	0008f117          	auipc	sp,0x8f
    80002392:	c7210113          	addi	sp,sp,-910 # 80091000 <begin_signature>
    80002396:	630d                	lui	t1,0x3
    80002398:	4003031b          	addiw	t1,t1,1024 # 3400 <_tbss_end+0x3400>
    8000239c:	911a                	add	sp,sp,t1

000000008000239e <i00000005c6>:
    8000239e:	f6813f83          	ld	t6,-152(sp)

00000000800023a2 <i00000005c7>:
    800023a2:	0144971b          	slliw	a4,s1,0x14
    800023a6:	0008f117          	auipc	sp,0x8f
    800023aa:	c5a10113          	addi	sp,sp,-934 # 80091000 <begin_signature>
    800023ae:	6305                	lui	t1,0x1
    800023b0:	fc03031b          	addiw	t1,t1,-64 # fc0 <_tbss_end+0xfc0>
    800023b4:	911a                	add	sp,sp,t1

00000000800023b6 <i00000005c8>:
    800023b6:	56c16483          	lwu	s1,1388(sp)

00000000800023ba <i00000005c9>:
    800023ba:	22812883          	lw	a7,552(sp)

00000000800023be <i00000005ca>:
    800023be:	02071813          	slli	a6,a4,0x20

00000000800023c2 <i00000005cb>:
    800023c2:	c6e11f03          	lh	t5,-914(sp)

00000000800023c6 <i00000005cc>:
    800023c6:	e9815783          	lhu	a5,-360(sp)

00000000800023ca <i00000005cd>:
    800023ca:	0000100f          	fence.i

00000000800023ce <i00000005ce>:
    800023ce:	b6414803          	lbu	a6,-1180(sp)

00000000800023d2 <i00000005cf>:
    800023d2:	01f3973b          	sllw	a4,t2,t6

00000000800023d6 <i00000005d0>:
    800023d6:	3a813e03          	ld	t3,936(sp)

00000000800023da <i00000005d1>:
    800023da:	24114883          	lbu	a7,577(sp)

00000000800023de <i00000005d2>:
    800023de:	0ff0000f          	fence

00000000800023e2 <i00000005d3>:
    800023e2:	416f82bb          	subw	t0,t6,s6

00000000800023e6 <i00000005d4>:
    800023e6:	016e933b          	sllw	t1,t4,s6
    800023ea:	0008f117          	auipc	sp,0x8f
    800023ee:	c1610113          	addi	sp,sp,-1002 # 80091000 <begin_signature>
    800023f2:	6305                	lui	t1,0x1
    800023f4:	5903031b          	addiw	t1,t1,1424 # 1590 <_tbss_end+0x1590>
    800023f8:	911a                	add	sp,sp,t1

00000000800023fa <i00000005d5>:
    800023fa:	675a                	ld	a4,400(sp)

00000000800023fc <i00000005d6>:
    800023fc:	23411023          	sh	s4,544(sp)

0000000080002400 <i00000005d7>:
    80002400:	43f8d893          	srai	a7,a7,0x3f

0000000080002404 <i00000005d8>:
    80002404:	00421e3b          	sllw	t3,tp,tp
    80002408:	0008f117          	auipc	sp,0x8f
    8000240c:	bf810113          	addi	sp,sp,-1032 # 80091000 <begin_signature>
    80002410:	6305                	lui	t1,0x1
    80002412:	5083031b          	addiw	t1,t1,1288 # 1508 <_tbss_end+0x1508>
    80002416:	911a                	add	sp,sp,t1

0000000080002418 <i00000005d9>:
    80002418:	97013803          	ld	a6,-1680(sp)

000000008000241c <i00000005da>:
    8000241c:	0000100f          	fence.i

0000000080002420 <i00000005db>:
    80002420:	50e11323          	sh	a4,1286(sp)

0000000080002424 <i00000005dc>:
    80002424:	0ff0000f          	fence

0000000080002428 <i00000005dd>:
    80002428:	7b012023          	sw	a6,1952(sp)

000000008000242c <i00000005de>:
    8000242c:	0ff0000f          	fence

0000000080002430 <i00000005df>:
    80002430:	17c16803          	lwu	a6,380(sp)

0000000080002434 <i00000005e0>:
    80002434:	0ff0000f          	fence

0000000080002438 <i00000005e1>:
    80002438:	0000100f          	fence.i

000000008000243c <i00000005e2>:
    8000243c:	0ff0000f          	fence

0000000080002440 <i00000005e3>:
    80002440:	06810e03          	lb	t3,104(sp)

0000000080002444 <i00000005e4>:
    80002444:	0ff0000f          	fence

0000000080002448 <i00000005e5>:
    80002448:	017a579b          	srliw	a5,s4,0x17

000000008000244c <i00000005e6>:
    8000244c:	9e8100a3          	sb	s0,-1567(sp)

0000000080002450 <i00000005e7>:
    80002450:	0000100f          	fence.i

0000000080002454 <i00000005e8>:
    80002454:	15c8071b          	addiw	a4,a6,348

0000000080002458 <i00000005e9>:
    80002458:	02c35713          	srli	a4,t1,0x2c

000000008000245c <i00000005ea>:
    8000245c:	0000100f          	fence.i

0000000080002460 <i00000005eb>:
    80002460:	86f13c23          	sd	a5,-1928(sp)

0000000080002464 <i00000005ec>:
    80002464:	84013783          	ld	a5,-1984(sp)

0000000080002468 <i00000005ed>:
    80002468:	6b013b83          	ld	s7,1712(sp)

000000008000246c <i00000005ee>:
    8000246c:	5f415f83          	lhu	t6,1524(sp)

0000000080002470 <i00000005ef>:
    80002470:	ee514783          	lbu	a5,-283(sp)
    80002474:	0008f117          	auipc	sp,0x8f
    80002478:	b8c10113          	addi	sp,sp,-1140 # 80091000 <begin_signature>
    8000247c:	630d                	lui	t1,0x3
    8000247e:	f883031b          	addiw	t1,t1,-120 # 2f88 <_tbss_end+0x2f88>
    80002482:	911a                	add	sp,sp,t1

0000000080002484 <i00000005f0>:
    80002484:	aaf13023          	sd	a5,-1376(sp)

0000000080002488 <i00000005f1>:
    80002488:	7ae11c23          	sh	a4,1976(sp)

000000008000248c <i00000005f2>:
    8000248c:	0000100f          	fence.i

0000000080002490 <i00000005f3>:
    80002490:	94e15483          	lhu	s1,-1714(sp)

0000000080002494 <i00000005f4>:
    80002494:	4dc12203          	lw	tp,1244(sp)
    80002498:	0008f117          	auipc	sp,0x8f
    8000249c:	b6810113          	addi	sp,sp,-1176 # 80091000 <begin_signature>
    800024a0:	630d                	lui	t1,0x3
    800024a2:	6e03031b          	addiw	t1,t1,1760 # 36e0 <_tbss_end+0x36e0>
    800024a6:	911a                	add	sp,sp,t1

00000000800024a8 <i00000005f5>:
    800024a8:	a3714783          	lbu	a5,-1481(sp)

00000000800024ac <i00000005f6>:
    800024ac:	0ff0000f          	fence

00000000800024b0 <i00000005f7>:
    800024b0:	e3be                	sd	a5,448(sp)

00000000800024b2 <i00000005f8>:
    800024b2:	63813703          	ld	a4,1592(sp)

00000000800024b6 <i00000005f9>:
    800024b6:	40f80c3b          	subw	s8,a6,a5

00000000800024ba <i00000005fa>:
    800024ba:	fd013883          	ld	a7,-48(sp)

00000000800024be <i00000005fb>:
    800024be:	0ff0000f          	fence

00000000800024c2 <i00000005fc>:
    800024c2:	4ae70c1b          	addiw	s8,a4,1198

00000000800024c6 <i00000005fd>:
    800024c6:	0000100f          	fence.i

00000000800024ca <i00000005fe>:
    800024ca:	56c12d03          	lw	s10,1388(sp)

00000000800024ce <i00000005ff>:
    800024ce:	0000100f          	fence.i

00000000800024d2 <i0000000600>:
    800024d2:	96c16703          	lwu	a4,-1684(sp)

00000000800024d6 <i0000000601>:
    800024d6:	74f13823          	sd	a5,1872(sp)

00000000800024da <i0000000602>:
    800024da:	00e8073b          	addw	a4,a6,a4

00000000800024de <i0000000603>:
    800024de:	00e7573b          	srlw	a4,a4,a4

00000000800024e2 <i0000000604>:
    800024e2:	cf016e03          	lwu	t3,-784(sp)

00000000800024e6 <i0000000605>:
    800024e6:	0ff0000f          	fence

00000000800024ea <i0000000606>:
    800024ea:	0187149b          	slliw	s1,a4,0x18

00000000800024ee <i0000000607>:
    800024ee:	45a11483          	lh	s1,1114(sp)

00000000800024f2 <i0000000608>:
    800024f2:	0000100f          	fence.i

00000000800024f6 <i0000000609>:
    800024f6:	6ae13423          	sd	a4,1704(sp)

00000000800024fa <i000000060a>:
    800024fa:	59111023          	sh	a7,1408(sp)

00000000800024fe <i000000060b>:
    800024fe:	0ff0000f          	fence

0000000080002502 <i000000060c>:
    80002502:	00e8073b          	addw	a4,a6,a4

0000000080002506 <i000000060d>:
    80002506:	43785793          	srai	a5,a6,0x37

000000008000250a <i000000060e>:
    8000250a:	0ff0000f          	fence

000000008000250e <i000000060f>:
    8000250e:	0ff0000f          	fence

0000000080002512 <i0000000610>:
    80002512:	00e11823          	sh	a4,16(sp)

0000000080002516 <i0000000611>:
    80002516:	50f11123          	sh	a5,1282(sp)

000000008000251a <i0000000612>:
    8000251a:	0ff0000f          	fence

000000008000251e <i0000000613>:
    8000251e:	24f13423          	sd	a5,584(sp)

0000000080002522 <i0000000614>:
    80002522:	ca016a83          	lwu	s5,-864(sp)

0000000080002526 <i0000000615>:
    80002526:	22f12c23          	sw	a5,568(sp)

000000008000252a <i0000000616>:
    8000252a:	40e9d71b          	sraiw	a4,s3,0xe

000000008000252e <i0000000617>:
    8000252e:	9c412783          	lw	a5,-1596(sp)

0000000080002532 <i0000000618>:
    80002532:	ef013823          	sd	a6,-272(sp)

0000000080002536 <i0000000619>:
    80002536:	0000100f          	fence.i

000000008000253a <i000000061a>:
    8000253a:	36013783          	ld	a5,864(sp)

000000008000253e <i000000061b>:
    8000253e:	bec13823          	sd	a2,-1040(sp)

0000000080002542 <i000000061c>:
    80002542:	40c9d19b          	sraiw	gp,s3,0xc

0000000080002546 <i000000061d>:
    80002546:	4c013803          	ld	a6,1216(sp)

000000008000254a <i000000061e>:
    8000254a:	02d39713          	slli	a4,t2,0x2d

000000008000254e <i000000061f>:
    8000254e:	0107d5bb          	srlw	a1,a5,a6

0000000080002552 <i0000000620>:
    80002552:	4107573b          	sraw	a4,a4,a6

0000000080002556 <i0000000621>:
    80002556:	71814c83          	lbu	s9,1816(sp)

000000008000255a <i0000000622>:
    8000255a:	f0d10423          	sb	a3,-248(sp)

000000008000255e <i0000000623>:
    8000255e:	4e813703          	ld	a4,1256(sp)
    80002562:	0008f117          	auipc	sp,0x8f
    80002566:	a9e10113          	addi	sp,sp,-1378 # 80091000 <begin_signature>
    8000256a:	630d                	lui	t1,0x3
    8000256c:	ea83031b          	addiw	t1,t1,-344 # 2ea8 <_tbss_end+0x2ea8>
    80002570:	911a                	add	sp,sp,t1

0000000080002572 <i0000000624>:
    80002572:	0c410503          	lb	a0,196(sp)

0000000080002576 <i0000000625>:
    80002576:	86012e03          	lw	t3,-1952(sp)

000000008000257a <i0000000626>:
    8000257a:	c4b12023          	sw	a1,-960(sp)

000000008000257e <i0000000627>:
    8000257e:	41dbdb9b          	sraiw	s7,s7,0x1d

0000000080002582 <i0000000628>:
    80002582:	aac16d83          	lwu	s11,-1364(sp)

0000000080002586 <i0000000629>:
    80002586:	0000100f          	fence.i

000000008000258a <i000000062a>:
    8000258a:	b42b871b          	addiw	a4,s7,-1214

000000008000258e <i000000062b>:
    8000258e:	9f57881b          	addiw	a6,a5,-1547

0000000080002592 <i000000062c>:
    80002592:	be013703          	ld	a4,-1056(sp)

0000000080002596 <i000000062d>:
    80002596:	0000100f          	fence.i

000000008000259a <i000000062e>:
    8000259a:	0000100f          	fence.i

000000008000259e <i000000062f>:
    8000259e:	0000100f          	fence.i

00000000800025a2 <i0000000630>:
    800025a2:	40e756bb          	sraw	a3,a4,a4

00000000800025a6 <i0000000631>:
    800025a6:	0000100f          	fence.i

00000000800025aa <i0000000632>:
    800025aa:	0ff0000f          	fence

00000000800025ae <i0000000633>:
    800025ae:	40f7873b          	subw	a4,a5,a5

00000000800025b2 <i0000000634>:
    800025b2:	ff1e                	sd	t2,440(sp)

00000000800025b4 <i0000000635>:
    800025b4:	40f75abb          	sraw	s5,a4,a5

00000000800025b8 <i0000000636>:
    800025b8:	411356bb          	sraw	a3,t1,a7

00000000800025bc <i0000000637>:
    800025bc:	0ff0000f          	fence

00000000800025c0 <i0000000638>:
    800025c0:	0000100f          	fence.i

00000000800025c4 <i0000000639>:
    800025c4:	0000100f          	fence.i

00000000800025c8 <i000000063a>:
    800025c8:	00b7db9b          	srliw	s7,a5,0xb

00000000800025cc <i000000063b>:
    800025cc:	010791bb          	sllw	gp,a5,a6
    800025d0:	0008f117          	auipc	sp,0x8f
    800025d4:	a3010113          	addi	sp,sp,-1488 # 80091000 <begin_signature>
    800025d8:	630d                	lui	t1,0x3
    800025da:	9c83031b          	addiw	t1,t1,-1592 # 29c8 <_tbss_end+0x29c8>
    800025de:	911a                	add	sp,sp,t1

00000000800025e0 <i000000063c>:
    800025e0:	70c16783          	lwu	a5,1804(sp)

00000000800025e4 <i000000063d>:
    800025e4:	402b5793          	srai	a5,s6,0x2

00000000800025e8 <i000000063e>:
    800025e8:	69f10fa3          	sb	t6,1695(sp)

00000000800025ec <i000000063f>:
    800025ec:	a1b13023          	sd	s11,-1536(sp)
    800025f0:	0008f117          	auipc	sp,0x8f
    800025f4:	a1010113          	addi	sp,sp,-1520 # 80091000 <begin_signature>
    800025f8:	6309                	lui	t1,0x2
    800025fa:	5903031b          	addiw	t1,t1,1424 # 2590 <_tbss_end+0x2590>
    800025fe:	911a                	add	sp,sp,t1

0000000080002600 <i0000000640>:
    80002600:	1df10ba3          	sb	t6,471(sp)

0000000080002604 <i0000000641>:
    80002604:	43415783          	lhu	a5,1076(sp)

0000000080002608 <i0000000642>:
    80002608:	0ff0000f          	fence
    8000260c:	0008f117          	auipc	sp,0x8f
    80002610:	9f410113          	addi	sp,sp,-1548 # 80091000 <begin_signature>
    80002614:	6305                	lui	t1,0x1
    80002616:	b183031b          	addiw	t1,t1,-1256 # b18 <_tbss_end+0xb18>
    8000261a:	911a                	add	sp,sp,t1

000000008000261c <i0000000643>:
    8000261c:	80014a83          	lbu	s5,-2048(sp)

0000000080002620 <i0000000644>:
    80002620:	0ff0000f          	fence

0000000080002624 <i0000000645>:
    80002624:	0142983b          	sllw	a6,t0,s4

0000000080002628 <i0000000646>:
    80002628:	0107183b          	sllw	a6,a4,a6

000000008000262c <i0000000647>:
    8000262c:	e9013b83          	ld	s7,-368(sp)

0000000080002630 <i0000000648>:
    80002630:	7f211803          	lh	a6,2034(sp)

0000000080002634 <i0000000649>:
    80002634:	01bbde9b          	srliw	t4,s7,0x1b

0000000080002638 <i000000064a>:
    80002638:	003b103b          	sllw	zero,s6,gp

000000008000263c <i000000064b>:
    8000263c:	0000100f          	fence.i
    80002640:	0008f117          	auipc	sp,0x8f
    80002644:	9c010113          	addi	sp,sp,-1600 # 80091000 <begin_signature>
    80002648:	6305                	lui	t1,0x1
    8000264a:	f383031b          	addiw	t1,t1,-200 # f38 <_tbss_end+0xf38>
    8000264e:	911a                	add	sp,sp,t1

0000000080002650 <i000000064c>:
    80002650:	d8015583          	lhu	a1,-640(sp)

0000000080002654 <i000000064d>:
    80002654:	ae8a079b          	addiw	a5,s4,-1304

0000000080002658 <i000000064e>:
    80002658:	0000100f          	fence.i

000000008000265c <i000000064f>:
    8000265c:	f0e13423          	sd	a4,-248(sp)

0000000080002660 <i0000000650>:
    80002660:	0ff0000f          	fence

0000000080002664 <i0000000651>:
    80002664:	fb013a03          	ld	s4,-80(sp)

0000000080002668 <i0000000652>:
    80002668:	8e513023          	sd	t0,-1824(sp)

000000008000266c <i0000000653>:
    8000266c:	00d7179b          	slliw	a5,a4,0xd

0000000080002670 <i0000000654>:
    80002670:	41ef57bb          	sraw	a5,t5,t5

0000000080002674 <i0000000655>:
    80002674:	011a5d1b          	srliw	s10,s4,0x11

0000000080002678 <i0000000656>:
    80002678:	0000100f          	fence.i

000000008000267c <i0000000657>:
    8000267c:	00621d9b          	slliw	s11,tp,0x6

0000000080002680 <i0000000658>:
    80002680:	0108133b          	sllw	t1,a6,a6
    80002684:	0008f117          	auipc	sp,0x8f
    80002688:	97c10113          	addi	sp,sp,-1668 # 80091000 <begin_signature>
    8000268c:	6309                	lui	t1,0x2
    8000268e:	3321                	addiw	t1,t1,-24 # 1fe8 <_tbss_end+0x1fe8>
    80002690:	911a                	add	sp,sp,t1

0000000080002692 <i0000000659>:
    80002692:	84a15783          	lhu	a5,-1974(sp)

0000000080002696 <i000000065a>:
    80002696:	002d9913          	slli	s2,s11,0x2

000000008000269a <i000000065b>:
    8000269a:	0ff0000f          	fence

000000008000269e <i000000065c>:
    8000269e:	44816783          	lwu	a5,1096(sp)

00000000800026a2 <i000000065d>:
    800026a2:	0000100f          	fence.i

00000000800026a6 <i000000065e>:
    800026a6:	fbba                	sd	a4,496(sp)

00000000800026a8 <i000000065f>:
    800026a8:	1cf12c23          	sw	a5,472(sp)

00000000800026ac <i0000000660>:
    800026ac:	85314703          	lbu	a4,-1965(sp)

00000000800026b0 <i0000000661>:
    800026b0:	e02a                	sd	a0,0(sp)

00000000800026b2 <i0000000662>:
    800026b2:	0ff0000f          	fence
    800026b6:	0008f117          	auipc	sp,0x8f
    800026ba:	94a10113          	addi	sp,sp,-1718 # 80091000 <begin_signature>
    800026be:	6309                	lui	t1,0x2
    800026c0:	3e83031b          	addiw	t1,t1,1000 # 23e8 <_tbss_end+0x23e8>
    800026c4:	911a                	add	sp,sp,t1

00000000800026c6 <i0000000663>:
    800026c6:	5d016703          	lwu	a4,1488(sp)
    800026ca:	0008f117          	auipc	sp,0x8f
    800026ce:	93610113          	addi	sp,sp,-1738 # 80091000 <begin_signature>
    800026d2:	6305                	lui	t1,0x1
    800026d4:	aa03031b          	addiw	t1,t1,-1376 # aa0 <_tbss_end+0xaa0>
    800026d8:	911a                	add	sp,sp,t1

00000000800026da <i0000000664>:
    800026da:	e642                	sd	a6,264(sp)

00000000800026dc <i0000000665>:
    800026dc:	0ff0000f          	fence

00000000800026e0 <i0000000666>:
    800026e0:	11816803          	lwu	a6,280(sp)

00000000800026e4 <i0000000667>:
    800026e4:	00f8093b          	addw	s2,a6,a5

00000000800026e8 <i0000000668>:
    800026e8:	00e75a3b          	srlw	s4,a4,a4

00000000800026ec <i0000000669>:
    800026ec:	0ff0000f          	fence

00000000800026f0 <i000000066a>:
    800026f0:	0000100f          	fence.i
    800026f4:	0008f117          	auipc	sp,0x8f
    800026f8:	90c10113          	addi	sp,sp,-1780 # 80091000 <begin_signature>
    800026fc:	630d                	lui	t1,0x3
    800026fe:	c003031b          	addiw	t1,t1,-1024 # 2c00 <_tbss_end+0x2c00>
    80002702:	911a                	add	sp,sp,t1

0000000080002704 <i000000066b>:
    80002704:	eae12223          	sw	a4,-348(sp)

0000000080002708 <i000000066c>:
    80002708:	0ff0000f          	fence

000000008000270c <i000000066d>:
    8000270c:	0000100f          	fence.i

0000000080002710 <i000000066e>:
    80002710:	0000100f          	fence.i
    80002714:	0008f117          	auipc	sp,0x8f
    80002718:	8ec10113          	addi	sp,sp,-1812 # 80091000 <begin_signature>
    8000271c:	6305                	lui	t1,0x1
    8000271e:	0383031b          	addiw	t1,t1,56 # 1038 <_tbss_end+0x1038>
    80002722:	911a                	add	sp,sp,t1

0000000080002724 <i000000066f>:
    80002724:	b2f107a3          	sb	a5,-1233(sp)

0000000080002728 <i0000000670>:
    80002728:	9ca13023          	sd	a0,-1600(sp)

000000008000272c <i0000000671>:
    8000272c:	72e13823          	sd	a4,1840(sp)

0000000080002730 <i0000000672>:
    80002730:	eca13823          	sd	a0,-304(sp)

0000000080002734 <i0000000673>:
    80002734:	0ff0000f          	fence

0000000080002738 <i0000000674>:
    80002738:	0ff0000f          	fence

000000008000273c <i0000000675>:
    8000273c:	76e15703          	lhu	a4,1902(sp)

0000000080002740 <i0000000676>:
    80002740:	0198181b          	slliw	a6,a6,0x19

0000000080002744 <i0000000677>:
    80002744:	40e80f3b          	subw	t5,a6,a4

0000000080002748 <i0000000678>:
    80002748:	11610423          	sb	s6,264(sp)

000000008000274c <i0000000679>:
    8000274c:	fee6                	sd	s9,376(sp)

000000008000274e <i000000067a>:
    8000274e:	bca13423          	sd	a0,-1080(sp)

0000000080002752 <i000000067b>:
    80002752:	a8c10703          	lb	a4,-1396(sp)

0000000080002756 <i000000067c>:
    80002756:	0ff0000f          	fence

000000008000275a <i000000067d>:
    8000275a:	019659bb          	srlw	s3,a2,s9

000000008000275e <i000000067e>:
    8000275e:	84812783          	lw	a5,-1976(sp)

0000000080002762 <i000000067f>:
    80002762:	88813803          	ld	a6,-1912(sp)

0000000080002766 <i0000000680>:
    80002766:	41075dbb          	sraw	s11,a4,a6

000000008000276a <i0000000681>:
    8000276a:	40e754bb          	sraw	s1,a4,a4

000000008000276e <i0000000682>:
    8000276e:	a3211783          	lh	a5,-1486(sp)

0000000080002772 <i0000000683>:
    80002772:	66c2                	ld	a3,16(sp)

0000000080002774 <i0000000684>:
    80002774:	0000100f          	fence.i

0000000080002778 <i0000000685>:
    80002778:	00ce873b          	addw	a4,t4,a2

000000008000277c <i0000000686>:
    8000277c:	785e                	ld	a6,496(sp)

000000008000277e <i0000000687>:
    8000277e:	29415803          	lhu	a6,660(sp)

0000000080002782 <i0000000688>:
    80002782:	65112623          	sw	a7,1612(sp)

0000000080002786 <i0000000689>:
    80002786:	b8c12c03          	lw	s8,-1140(sp)

000000008000278a <i000000068a>:
    8000278a:	43013003          	ld	zero,1072(sp)

000000008000278e <i000000068b>:
    8000278e:	49813783          	ld	a5,1176(sp)

0000000080002792 <i000000068c>:
    80002792:	53813783          	ld	a5,1336(sp)

0000000080002796 <i000000068d>:
    80002796:	0000100f          	fence.i

000000008000279a <i000000068e>:
    8000279a:	015ed73b          	srlw	a4,t4,s5

000000008000279e <i000000068f>:
    8000279e:	0000100f          	fence.i

00000000800027a2 <i0000000690>:
    800027a2:	007bd71b          	srliw	a4,s7,0x7

00000000800027a6 <i0000000691>:
    800027a6:	2f813803          	ld	a6,760(sp)

00000000800027aa <i0000000692>:
    800027aa:	0108183b          	sllw	a6,a6,a6

00000000800027ae <i0000000693>:
    800027ae:	60f106a3          	sb	a5,1549(sp)

00000000800027b2 <i0000000694>:
    800027b2:	40f8073b          	subw	a4,a6,a5

00000000800027b6 <i0000000695>:
    800027b6:	0ff0000f          	fence

00000000800027ba <i0000000696>:
    800027ba:	98013503          	ld	a0,-1664(sp)

00000000800027be <i0000000697>:
    800027be:	0197981b          	slliw	a6,a5,0x19

00000000800027c2 <i0000000698>:
    800027c2:	d3215603          	lhu	a2,-718(sp)

00000000800027c6 <i0000000699>:
    800027c6:	4087df13          	srai	t5,a5,0x8

00000000800027ca <i000000069a>:
    800027ca:	42475593          	srai	a1,a4,0x24

00000000800027ce <i000000069b>:
    800027ce:	41070dbb          	subw	s11,a4,a6

00000000800027d2 <i000000069c>:
    800027d2:	413d093b          	subw	s2,s10,s3

00000000800027d6 <i000000069d>:
    800027d6:	28016703          	lwu	a4,640(sp)
    800027da:	0008f117          	auipc	sp,0x8f
    800027de:	82610113          	addi	sp,sp,-2010 # 80091000 <begin_signature>
    800027e2:	6305                	lui	t1,0x1
    800027e4:	1183031b          	addiw	t1,t1,280 # 1118 <_tbss_end+0x1118>
    800027e8:	911a                	add	sp,sp,t1

00000000800027ea <i000000069e>:
    800027ea:	d4011703          	lh	a4,-704(sp)

00000000800027ee <i000000069f>:
    800027ee:	7b416e03          	lwu	t3,1972(sp)

00000000800027f2 <i00000006a0>:
    800027f2:	0ff0000f          	fence

00000000800027f6 <i00000006a1>:
    800027f6:	1af11323          	sh	a5,422(sp)
    800027fa:	0008f117          	auipc	sp,0x8f
    800027fe:	80610113          	addi	sp,sp,-2042 # 80091000 <begin_signature>
    80002802:	6309                	lui	t1,0x2
    80002804:	6483031b          	addiw	t1,t1,1608 # 2648 <_tbss_end+0x2648>
    80002808:	911a                	add	sp,sp,t1

000000008000280a <i00000006a2>:
    8000280a:	b4014883          	lbu	a7,-1216(sp)
    8000280e:	0008e117          	auipc	sp,0x8e
    80002812:	7f210113          	addi	sp,sp,2034 # 80091000 <begin_signature>
    80002816:	630d                	lui	t1,0x3
    80002818:	d783031b          	addiw	t1,t1,-648 # 2d78 <_tbss_end+0x2d78>
    8000281c:	911a                	add	sp,sp,t1

000000008000281e <i00000006a3>:
    8000281e:	e9c10803          	lb	a6,-356(sp)

0000000080002822 <i00000006a4>:
    80002822:	e6013703          	ld	a4,-416(sp)

0000000080002826 <i00000006a5>:
    80002826:	0000100f          	fence.i

000000008000282a <i00000006a6>:
    8000282a:	0000100f          	fence.i

000000008000282e <i00000006a7>:
    8000282e:	e6816483          	lwu	s1,-408(sp)
    80002832:	0008e117          	auipc	sp,0x8e
    80002836:	7ce10113          	addi	sp,sp,1998 # 80091000 <begin_signature>
    8000283a:	630d                	lui	t1,0x3
    8000283c:	c403031b          	addiw	t1,t1,-960 # 2c40 <_tbss_end+0x2c40>
    80002840:	911a                	add	sp,sp,t1

0000000080002842 <i00000006a8>:
    80002842:	2a813783          	ld	a5,680(sp)

0000000080002846 <i00000006a9>:
    80002846:	00e7173b          	sllw	a4,a4,a4

000000008000284a <i00000006aa>:
    8000284a:	0000100f          	fence.i
    8000284e:	0008e117          	auipc	sp,0x8e
    80002852:	7b210113          	addi	sp,sp,1970 # 80091000 <begin_signature>
    80002856:	630d                	lui	t1,0x3
    80002858:	b203031b          	addiw	t1,t1,-1248 # 2b20 <_tbss_end+0x2b20>
    8000285c:	911a                	add	sp,sp,t1

000000008000285e <i00000006ab>:
    8000285e:	e7a13c23          	sd	s10,-392(sp)

0000000080002862 <i00000006ac>:
    80002862:	7f416803          	lwu	a6,2036(sp)

0000000080002866 <i00000006ad>:
    80002866:	0000100f          	fence.i

000000008000286a <i00000006ae>:
    8000286a:	0000100f          	fence.i

000000008000286e <i00000006af>:
    8000286e:	50013f03          	ld	t5,1280(sp)
    80002872:	0008e117          	auipc	sp,0x8e
    80002876:	78e10113          	addi	sp,sp,1934 # 80091000 <begin_signature>
    8000287a:	6305                	lui	t1,0x1
    8000287c:	1f83031b          	addiw	t1,t1,504 # 11f8 <_tbss_end+0x11f8>
    80002880:	911a                	add	sp,sp,t1

0000000080002882 <i00000006b0>:
    80002882:	74214003          	lbu	zero,1858(sp)

0000000080002886 <i00000006b1>:
    80002886:	f2a15583          	lhu	a1,-214(sp)
    8000288a:	0008e117          	auipc	sp,0x8e
    8000288e:	77610113          	addi	sp,sp,1910 # 80091000 <begin_signature>
    80002892:	6309                	lui	t1,0x2
    80002894:	4f83031b          	addiw	t1,t1,1272 # 24f8 <_tbss_end+0x24f8>
    80002898:	911a                	add	sp,sp,t1

000000008000289a <i00000006b2>:
    8000289a:	ee016683          	lwu	a3,-288(sp)

000000008000289e <i00000006b3>:
    8000289e:	0ff0000f          	fence

00000000800028a2 <i00000006b4>:
    800028a2:	30816703          	lwu	a4,776(sp)

00000000800028a6 <i00000006b5>:
    800028a6:	ed511023          	sh	s5,-320(sp)

00000000800028aa <i00000006b6>:
    800028aa:	010796bb          	sllw	a3,a5,a6

00000000800028ae <i00000006b7>:
    800028ae:	0000100f          	fence.i

00000000800028b2 <i00000006b8>:
    800028b2:	82e12c23          	sw	a4,-1992(sp)

00000000800028b6 <i00000006b9>:
    800028b6:	0ff0000f          	fence

00000000800028ba <i00000006ba>:
    800028ba:	7cf13c23          	sd	a5,2008(sp)

00000000800028be <i00000006bb>:
    800028be:	0ff0000f          	fence

00000000800028c2 <i00000006bc>:
    800028c2:	00dbd83b          	srlw	a6,s7,a3

00000000800028c6 <i00000006bd>:
    800028c6:	75c12203          	lw	tp,1884(sp)

00000000800028ca <i00000006be>:
    800028ca:	b4013c03          	ld	s8,-1216(sp)

00000000800028ce <i00000006bf>:
    800028ce:	0067121b          	slliw	tp,a4,0x6

00000000800028d2 <i00000006c0>:
    800028d2:	0000100f          	fence.i

00000000800028d6 <i00000006c1>:
    800028d6:	41ee5713          	srai	a4,t3,0x1e

00000000800028da <i00000006c2>:
    800028da:	0000100f          	fence.i

00000000800028de <i00000006c3>:
    800028de:	0000100f          	fence.i

00000000800028e2 <i00000006c4>:
    800028e2:	0ff0000f          	fence

00000000800028e6 <i00000006c5>:
    800028e6:	40975793          	srai	a5,a4,0x9

00000000800028ea <i00000006c6>:
    800028ea:	61816803          	lwu	a6,1560(sp)

00000000800028ee <i00000006c7>:
    800028ee:	8fd12e23          	sw	t4,-1796(sp)

00000000800028f2 <i00000006c8>:
    800028f2:	0000100f          	fence.i

00000000800028f6 <i00000006c9>:
    800028f6:	93010423          	sb	a6,-1752(sp)

00000000800028fa <i00000006ca>:
    800028fa:	01cfd81b          	srliw	a6,t6,0x1c

00000000800028fe <i00000006cb>:
    800028fe:	01185b93          	srli	s7,a6,0x11

0000000080002902 <i00000006cc>:
    80002902:	0000100f          	fence.i

0000000080002906 <i00000006cd>:
    80002906:	4186853b          	subw	a0,a3,s8

000000008000290a <i00000006ce>:
    8000290a:	0000100f          	fence.i

000000008000290e <i00000006cf>:
    8000290e:	ecf11723          	sh	a5,-306(sp)

0000000080002912 <i00000006d0>:
    80002912:	2ee13423          	sd	a4,744(sp)

0000000080002916 <i00000006d1>:
    80002916:	0000100f          	fence.i

000000008000291a <i00000006d2>:
    8000291a:	2ec15703          	lhu	a4,748(sp)

000000008000291e <i00000006d3>:
    8000291e:	0007979b          	slliw	a5,a5,0x0

0000000080002922 <i00000006d4>:
    80002922:	430b5c13          	srai	s8,s6,0x30

0000000080002926 <i00000006d5>:
    80002926:	e8012703          	lw	a4,-384(sp)

000000008000292a <i00000006d6>:
    8000292a:	38813d83          	ld	s11,904(sp)

000000008000292e <i00000006d7>:
    8000292e:	fca13823          	sd	a0,-48(sp)

0000000080002932 <i00000006d8>:
    80002932:	e3c2                	sd	a6,448(sp)

0000000080002934 <i00000006d9>:
    80002934:	0ff0000f          	fence

0000000080002938 <i00000006da>:
    80002938:	0193903b          	sllw	zero,t2,s9

000000008000293c <i00000006db>:
    8000293c:	4107d23b          	sraw	tp,a5,a6

0000000080002940 <i00000006dc>:
    80002940:	79c15383          	lhu	t2,1948(sp)

0000000080002944 <i00000006dd>:
    80002944:	4098579b          	sraiw	a5,a6,0x9

0000000080002948 <i00000006de>:
    80002948:	0000100f          	fence.i

000000008000294c <i00000006df>:
    8000294c:	de813383          	ld	t2,-536(sp)

0000000080002950 <i00000006e0>:
    80002950:	9fc16803          	lwu	a6,-1540(sp)
    80002954:	0008e117          	auipc	sp,0x8e
    80002958:	6ac10113          	addi	sp,sp,1708 # 80091000 <begin_signature>
    8000295c:	6305                	lui	t1,0x1
    8000295e:	7d83031b          	addiw	t1,t1,2008 # 17d8 <_tbss_end+0x17d8>
    80002962:	911a                	add	sp,sp,t1

0000000080002964 <i00000006e1>:
    80002964:	6f411303          	lh	t1,1780(sp)
    80002968:	0008e117          	auipc	sp,0x8e
    8000296c:	69810113          	addi	sp,sp,1688 # 80091000 <begin_signature>
    80002970:	6305                	lui	t1,0x1
    80002972:	3e03031b          	addiw	t1,t1,992 # 13e0 <_tbss_end+0x13e0>
    80002976:	911a                	add	sp,sp,t1

0000000080002978 <i00000006e2>:
    80002978:	b8013783          	ld	a5,-1152(sp)

000000008000297c <i00000006e3>:
    8000297c:	40e7d7bb          	sraw	a5,a5,a4

0000000080002980 <i00000006e4>:
    80002980:	0ff0000f          	fence

0000000080002984 <i00000006e5>:
    80002984:	0117de1b          	srliw	t3,a5,0x11

0000000080002988 <i00000006e6>:
    80002988:	0d011323          	sh	a6,198(sp)

000000008000298c <i00000006e7>:
    8000298c:	ca012803          	lw	a6,-864(sp)

0000000080002990 <i00000006e8>:
    80002990:	0000100f          	fence.i

0000000080002994 <i00000006e9>:
    80002994:	00af989b          	slliw	a7,t6,0xa
    80002998:	0008e117          	auipc	sp,0x8e
    8000299c:	66810113          	addi	sp,sp,1640 # 80091000 <begin_signature>
    800029a0:	630d                	lui	t1,0x3
    800029a2:	e783031b          	addiw	t1,t1,-392 # 2e78 <_tbss_end+0x2e78>
    800029a6:	911a                	add	sp,sp,t1

00000000800029a8 <i00000006ea>:
    800029a8:	47013303          	ld	t1,1136(sp)

00000000800029ac <i00000006eb>:
    800029ac:	93013d03          	ld	s10,-1744(sp)

00000000800029b0 <i00000006ec>:
    800029b0:	68c11803          	lh	a6,1676(sp)

00000000800029b4 <i00000006ed>:
    800029b4:	e9010fa3          	sb	a6,-353(sp)
    800029b8:	0008e117          	auipc	sp,0x8e
    800029bc:	64810113          	addi	sp,sp,1608 # 80091000 <begin_signature>
    800029c0:	6305                	lui	t1,0x1
    800029c2:	8003031b          	addiw	t1,t1,-2048 # 800 <_tbss_end+0x800>
    800029c6:	911a                	add	sp,sp,t1

00000000800029c8 <i00000006ee>:
    800029c8:	7ba13823          	sd	s10,1968(sp)

00000000800029cc <i00000006ef>:
    800029cc:	bcc16983          	lwu	s3,-1076(sp)

00000000800029d0 <i00000006f0>:
    800029d0:	df212623          	sw	s2,-532(sp)

00000000800029d4 <i00000006f1>:
    800029d4:	baf13423          	sd	a5,-1112(sp)

00000000800029d8 <i00000006f2>:
    800029d8:	33016703          	lwu	a4,816(sp)

00000000800029dc <i00000006f3>:
    800029dc:	0000100f          	fence.i

00000000800029e0 <i00000006f4>:
    800029e0:	4347d813          	srai	a6,a5,0x34

00000000800029e4 <i00000006f5>:
    800029e4:	414908bb          	subw	a7,s2,s4

00000000800029e8 <i00000006f6>:
    800029e8:	e1710703          	lb	a4,-489(sp)

00000000800029ec <i00000006f7>:
    800029ec:	409c0f3b          	subw	t5,s8,s1

00000000800029f0 <i00000006f8>:
    800029f0:	0ff0000f          	fence

00000000800029f4 <i00000006f9>:
    800029f4:	00a1873b          	addw	a4,gp,a0

00000000800029f8 <i00000006fa>:
    800029f8:	0ff0000f          	fence

00000000800029fc <i00000006fb>:
    800029fc:	e8416703          	lwu	a4,-380(sp)

0000000080002a00 <i00000006fc>:
    80002a00:	0ff0000f          	fence

0000000080002a04 <i00000006fd>:
    80002a04:	eec16883          	lwu	a7,-276(sp)

0000000080002a08 <i00000006fe>:
    80002a08:	64415483          	lhu	s1,1604(sp)

0000000080002a0c <i00000006ff>:
    80002a0c:	0000100f          	fence.i

0000000080002a10 <i0000000700>:
    80002a10:	0ff0000f          	fence

0000000080002a14 <i0000000701>:
    80002a14:	94c16803          	lwu	a6,-1716(sp)

0000000080002a18 <i0000000702>:
    80002a18:	0ff0000f          	fence

0000000080002a1c <i0000000703>:
    80002a1c:	0000100f          	fence.i

0000000080002a20 <i0000000704>:
    80002a20:	0000100f          	fence.i

0000000080002a24 <i0000000705>:
    80002a24:	17a11883          	lh	a7,378(sp)

0000000080002a28 <i0000000706>:
    80002a28:	0000100f          	fence.i

0000000080002a2c <i0000000707>:
    80002a2c:	b0210783          	lb	a5,-1278(sp)

0000000080002a30 <i0000000708>:
    80002a30:	90412703          	lw	a4,-1788(sp)

0000000080002a34 <i0000000709>:
    80002a34:	03379d13          	slli	s10,a5,0x33
    80002a38:	0008e117          	auipc	sp,0x8e
    80002a3c:	5c810113          	addi	sp,sp,1480 # 80091000 <begin_signature>
    80002a40:	6309                	lui	t1,0x2
    80002a42:	da83031b          	addiw	t1,t1,-600 # 1da8 <_tbss_end+0x1da8>
    80002a46:	911a                	add	sp,sp,t1

0000000080002a48 <i000000070a>:
    80002a48:	db010f23          	sb	a6,-578(sp)
    80002a4c:	0008e117          	auipc	sp,0x8e
    80002a50:	5b410113          	addi	sp,sp,1460 # 80091000 <begin_signature>
    80002a54:	6305                	lui	t1,0x1
    80002a56:	4a03031b          	addiw	t1,t1,1184 # 14a0 <_tbss_end+0x14a0>
    80002a5a:	911a                	add	sp,sp,t1

0000000080002a5c <i000000070b>:
    80002a5c:	b7013703          	ld	a4,-1168(sp)

0000000080002a60 <i000000070c>:
    80002a60:	0f211323          	sh	s2,230(sp)
    80002a64:	0008e117          	auipc	sp,0x8e
    80002a68:	59c10113          	addi	sp,sp,1436 # 80091000 <begin_signature>
    80002a6c:	630d                	lui	t1,0x3
    80002a6e:	6783031b          	addiw	t1,t1,1656 # 3678 <_tbss_end+0x3678>
    80002a72:	911a                	add	sp,sp,t1

0000000080002a74 <i000000070d>:
    80002a74:	de914883          	lbu	a7,-535(sp)

0000000080002a78 <i000000070e>:
    80002a78:	0ff0000f          	fence

0000000080002a7c <i000000070f>:
    80002a7c:	23813803          	ld	a6,568(sp)

0000000080002a80 <i0000000710>:
    80002a80:	bfe10783          	lb	a5,-1026(sp)

0000000080002a84 <i0000000711>:
    80002a84:	76f13823          	sd	a5,1904(sp)

0000000080002a88 <i0000000712>:
    80002a88:	0000100f          	fence.i

0000000080002a8c <i0000000713>:
    80002a8c:	13c11f23          	sh	t3,318(sp)

0000000080002a90 <i0000000714>:
    80002a90:	0000100f          	fence.i

0000000080002a94 <i0000000715>:
    80002a94:	2f415703          	lhu	a4,756(sp)
    80002a98:	0008e117          	auipc	sp,0x8e
    80002a9c:	56810113          	addi	sp,sp,1384 # 80091000 <begin_signature>
    80002aa0:	6305                	lui	t1,0x1
    80002aa2:	9503031b          	addiw	t1,t1,-1712 # 950 <_tbss_end+0x950>
    80002aa6:	911a                	add	sp,sp,t1

0000000080002aa8 <i0000000716>:
    80002aa8:	b6416f83          	lwu	t6,-1180(sp)

0000000080002aac <i0000000717>:
    80002aac:	1ffa079b          	addiw	a5,s4,511

0000000080002ab0 <i0000000718>:
    80002ab0:	100106a3          	sb	zero,269(sp)

0000000080002ab4 <i0000000719>:
    80002ab4:	8d816703          	lwu	a4,-1832(sp)

0000000080002ab8 <i000000071a>:
    80002ab8:	0277d813          	srli	a6,a5,0x27
    80002abc:	0008e117          	auipc	sp,0x8e
    80002ac0:	54410113          	addi	sp,sp,1348 # 80091000 <begin_signature>
    80002ac4:	6305                	lui	t1,0x1
    80002ac6:	9883031b          	addiw	t1,t1,-1656 # 988 <_tbss_end+0x988>
    80002aca:	911a                	add	sp,sp,t1

0000000080002acc <i000000071b>:
    80002acc:	b6013183          	ld	gp,-1184(sp)

0000000080002ad0 <i000000071c>:
    80002ad0:	fcc16483          	lwu	s1,-52(sp)

0000000080002ad4 <i000000071d>:
    80002ad4:	59013a03          	ld	s4,1424(sp)
    80002ad8:	0008e117          	auipc	sp,0x8e
    80002adc:	52810113          	addi	sp,sp,1320 # 80091000 <begin_signature>
    80002ae0:	6309                	lui	t1,0x2
    80002ae2:	7f03031b          	addiw	t1,t1,2032 # 27f0 <_tbss_end+0x27f0>
    80002ae6:	911a                	add	sp,sp,t1

0000000080002ae8 <i000000071e>:
    80002ae8:	2a013f03          	ld	t5,672(sp)

0000000080002aec <i000000071f>:
    80002aec:	0000100f          	fence.i
    80002af0:	0008e117          	auipc	sp,0x8e
    80002af4:	51010113          	addi	sp,sp,1296 # 80091000 <begin_signature>
    80002af8:	630d                	lui	t1,0x3
    80002afa:	a103031b          	addiw	t1,t1,-1520 # 2a10 <_tbss_end+0x2a10>
    80002afe:	911a                	add	sp,sp,t1

0000000080002b00 <i0000000720>:
    80002b00:	44813703          	ld	a4,1096(sp)

0000000080002b04 <i0000000721>:
    80002b04:	5e813583          	ld	a1,1512(sp)

0000000080002b08 <i0000000722>:
    80002b08:	0000100f          	fence.i
    80002b0c:	0008e117          	auipc	sp,0x8e
    80002b10:	4f410113          	addi	sp,sp,1268 # 80091000 <begin_signature>
    80002b14:	6305                	lui	t1,0x1
    80002b16:	9883031b          	addiw	t1,t1,-1656 # 988 <_tbss_end+0x988>
    80002b1a:	911a                	add	sp,sp,t1

0000000080002b1c <i0000000723>:
    80002b1c:	95416a03          	lwu	s4,-1708(sp)

0000000080002b20 <i0000000724>:
    80002b20:	41bcd83b          	sraw	a6,s9,s11

0000000080002b24 <i0000000725>:
    80002b24:	0000100f          	fence.i

0000000080002b28 <i0000000726>:
    80002b28:	0ff0000f          	fence

0000000080002b2c <i0000000727>:
    80002b2c:	d7215783          	lhu	a5,-654(sp)

0000000080002b30 <i0000000728>:
    80002b30:	013019bb          	sllw	s3,zero,s3

0000000080002b34 <i0000000729>:
    80002b34:	8731                	srai	a4,a4,0xc

0000000080002b36 <i000000072a>:
    80002b36:	b407801b          	addiw	zero,a5,-1216

0000000080002b3a <i000000072b>:
    80002b3a:	0000100f          	fence.i
    80002b3e:	0008e117          	auipc	sp,0x8e
    80002b42:	4c210113          	addi	sp,sp,1218 # 80091000 <begin_signature>
    80002b46:	6309                	lui	t1,0x2
    80002b48:	8403031b          	addiw	t1,t1,-1984 # 1840 <_tbss_end+0x1840>
    80002b4c:	911a                	add	sp,sp,t1

0000000080002b4e <i000000072c>:
    80002b4e:	89813c03          	ld	s8,-1896(sp)

0000000080002b52 <i000000072d>:
    80002b52:	0000100f          	fence.i

0000000080002b56 <i000000072e>:
    80002b56:	0ff0000f          	fence

0000000080002b5a <i000000072f>:
    80002b5a:	007d083b          	addw	a6,s10,t2

0000000080002b5e <i0000000730>:
    80002b5e:	0000100f          	fence.i

0000000080002b62 <i0000000731>:
    80002b62:	ee48071b          	addiw	a4,a6,-284
    80002b66:	0008e117          	auipc	sp,0x8e
    80002b6a:	49a10113          	addi	sp,sp,1178 # 80091000 <begin_signature>
    80002b6e:	630d                	lui	t1,0x3
    80002b70:	c203031b          	addiw	t1,t1,-992 # 2c20 <_tbss_end+0x2c20>
    80002b74:	911a                	add	sp,sp,t1

0000000080002b76 <i0000000732>:
    80002b76:	4e416703          	lwu	a4,1252(sp)

0000000080002b7a <i0000000733>:
    80002b7a:	72416e83          	lwu	t4,1828(sp)

0000000080002b7e <i0000000734>:
    80002b7e:	fa813d83          	ld	s11,-88(sp)

0000000080002b82 <i0000000735>:
    80002b82:	9529071b          	addiw	a4,s2,-1710

0000000080002b86 <i0000000736>:
    80002b86:	41016a83          	lwu	s5,1040(sp)

0000000080002b8a <i0000000737>:
    80002b8a:	4fc16d83          	lwu	s11,1276(sp)

0000000080002b8e <i0000000738>:
    80002b8e:	8c816803          	lwu	a6,-1848(sp)

0000000080002b92 <i0000000739>:
    80002b92:	0000100f          	fence.i

0000000080002b96 <i000000073a>:
    80002b96:	62510803          	lb	a6,1573(sp)

0000000080002b9a <i000000073b>:
    80002b9a:	0000100f          	fence.i

0000000080002b9e <i000000073c>:
    80002b9e:	41aad63b          	sraw	a2,s5,s10

0000000080002ba2 <i000000073d>:
    80002ba2:	01c88cbb          	addw	s9,a7,t3

0000000080002ba6 <i000000073e>:
    80002ba6:	023fde93          	srli	t4,t6,0x23

0000000080002baa <i000000073f>:
    80002baa:	93015b83          	lhu	s7,-1744(sp)

0000000080002bae <i0000000740>:
    80002bae:	0000100f          	fence.i
    80002bb2:	0008e117          	auipc	sp,0x8e
    80002bb6:	44e10113          	addi	sp,sp,1102 # 80091000 <begin_signature>
    80002bba:	6309                	lui	t1,0x2
    80002bbc:	c783031b          	addiw	t1,t1,-904 # 1c78 <_tbss_end+0x1c78>
    80002bc0:	911a                	add	sp,sp,t1

0000000080002bc2 <i0000000741>:
    80002bc2:	29012023          	sw	a6,640(sp)

0000000080002bc6 <i0000000742>:
    80002bc6:	def11723          	sh	a5,-530(sp)

0000000080002bca <i0000000743>:
    80002bca:	a6678f9b          	addiw	t6,a5,-1434

0000000080002bce <i0000000744>:
    80002bce:	0ff0000f          	fence

0000000080002bd2 <i0000000745>:
    80002bd2:	43816803          	lwu	a6,1080(sp)

0000000080002bd6 <i0000000746>:
    80002bd6:	0ff0000f          	fence

0000000080002bda <i0000000747>:
    80002bda:	ca816a03          	lwu	s4,-856(sp)

0000000080002bde <i0000000748>:
    80002bde:	a4513423          	sd	t0,-1464(sp)

0000000080002be2 <i0000000749>:
    80002be2:	b7013423          	sd	a6,-1176(sp)

0000000080002be6 <i000000074a>:
    80002be6:	8791                	srai	a5,a5,0x4

0000000080002be8 <i000000074b>:
    80002be8:	0257d393          	srli	t2,a5,0x25

0000000080002bec <i000000074c>:
    80002bec:	ef510a03          	lb	s4,-267(sp)

0000000080002bf0 <i000000074d>:
    80002bf0:	0000100f          	fence.i

0000000080002bf4 <i000000074e>:
    80002bf4:	0ff0000f          	fence

0000000080002bf8 <i000000074f>:
    80002bf8:	0068169b          	slliw	a3,a6,0x6

0000000080002bfc <i0000000750>:
    80002bfc:	0ff0000f          	fence
    80002c00:	0008e117          	auipc	sp,0x8e
    80002c04:	40010113          	addi	sp,sp,1024 # 80091000 <begin_signature>
    80002c08:	630d                	lui	t1,0x3
    80002c0a:	c103031b          	addiw	t1,t1,-1008 # 2c10 <_tbss_end+0x2c10>
    80002c0e:	911a                	add	sp,sp,t1

0000000080002c10 <i0000000751>:
    80002c10:	63c16883          	lwu	a7,1596(sp)

0000000080002c14 <i0000000752>:
    80002c14:	db013803          	ld	a6,-592(sp)

0000000080002c18 <i0000000753>:
    80002c18:	01914783          	lbu	a5,25(sp)

0000000080002c1c <i0000000754>:
    80002c1c:	0000100f          	fence.i

0000000080002c20 <i0000000755>:
    80002c20:	0000100f          	fence.i

0000000080002c24 <i0000000756>:
    80002c24:	33416783          	lwu	a5,820(sp)

0000000080002c28 <i0000000757>:
    80002c28:	46811503          	lh	a0,1128(sp)

0000000080002c2c <i0000000758>:
    80002c2c:	f0f12223          	sw	a5,-252(sp)

0000000080002c30 <i0000000759>:
    80002c30:	4c611a23          	sh	t1,1236(sp)

0000000080002c34 <i000000075a>:
    80002c34:	a2416983          	lwu	s3,-1500(sp)

0000000080002c38 <i000000075b>:
    80002c38:	c5416283          	lwu	t0,-940(sp)

0000000080002c3c <i000000075c>:
    80002c3c:	ec813023          	sd	s0,-320(sp)

0000000080002c40 <i000000075d>:
    80002c40:	3d012e83          	lw	t4,976(sp)

0000000080002c44 <i000000075e>:
    80002c44:	4a86                	lw	s5,64(sp)

0000000080002c46 <i000000075f>:
    80002c46:	c4f104a3          	sb	a5,-951(sp)

0000000080002c4a <i0000000760>:
    80002c4a:	2d214903          	lbu	s2,722(sp)

0000000080002c4e <i0000000761>:
    80002c4e:	be412883          	lw	a7,-1052(sp)

0000000080002c52 <i0000000762>:
    80002c52:	0317db93          	srli	s7,a5,0x31

0000000080002c56 <i0000000763>:
    80002c56:	02fe5413          	srli	s0,t3,0x2f

0000000080002c5a <i0000000764>:
    80002c5a:	0ff0000f          	fence

0000000080002c5e <i0000000765>:
    80002c5e:	3e416803          	lwu	a6,996(sp)
    80002c62:	0008e117          	auipc	sp,0x8e
    80002c66:	39e10113          	addi	sp,sp,926 # 80091000 <begin_signature>
    80002c6a:	630d                	lui	t1,0x3
    80002c6c:	eb83031b          	addiw	t1,t1,-328 # 2eb8 <_tbss_end+0x2eb8>
    80002c70:	911a                	add	sp,sp,t1

0000000080002c72 <i0000000766>:
    80002c72:	22f105a3          	sb	a5,555(sp)

0000000080002c76 <i0000000767>:
    80002c76:	ac813503          	ld	a0,-1336(sp)

0000000080002c7a <i0000000768>:
    80002c7a:	68a12e23          	sw	a0,1692(sp)

0000000080002c7e <i0000000769>:
    80002c7e:	40f8533b          	sraw	t1,a6,a5

0000000080002c82 <i000000076a>:
    80002c82:	2e012803          	lw	a6,736(sp)

0000000080002c86 <i000000076b>:
    80002c86:	d0416703          	lwu	a4,-764(sp)

0000000080002c8a <i000000076c>:
    80002c8a:	db013803          	ld	a6,-592(sp)

0000000080002c8e <i000000076d>:
    80002c8e:	b5811783          	lh	a5,-1192(sp)

0000000080002c92 <i000000076e>:
    80002c92:	05714d83          	lbu	s11,87(sp)

0000000080002c96 <i000000076f>:
    80002c96:	0000100f          	fence.i

0000000080002c9a <i0000000770>:
    80002c9a:	0ff0000f          	fence

0000000080002c9e <i0000000771>:
    80002c9e:	76c16703          	lwu	a4,1900(sp)

0000000080002ca2 <i0000000772>:
    80002ca2:	0000100f          	fence.i

0000000080002ca6 <i0000000773>:
    80002ca6:	b8d14783          	lbu	a5,-1139(sp)

0000000080002caa <i0000000774>:
    80002caa:	03171b13          	slli	s6,a4,0x31

0000000080002cae <i0000000775>:
    80002cae:	4124073b          	subw	a4,s0,s2

0000000080002cb2 <i0000000776>:
    80002cb2:	41198cbb          	subw	s9,s3,a7

0000000080002cb6 <i0000000777>:
    80002cb6:	0000100f          	fence.i

0000000080002cba <i0000000778>:
    80002cba:	839d                	srli	a5,a5,0x7

0000000080002cbc <i0000000779>:
    80002cbc:	0ff0000f          	fence
    80002cc0:	0008e117          	auipc	sp,0x8e
    80002cc4:	34010113          	addi	sp,sp,832 # 80091000 <begin_signature>
    80002cc8:	6305                	lui	t1,0x1
    80002cca:	7783031b          	addiw	t1,t1,1912 # 1778 <_tbss_end+0x1778>
    80002cce:	911a                	add	sp,sp,t1

0000000080002cd0 <i000000077a>:
    80002cd0:	ff016583          	lwu	a1,-16(sp)
    80002cd4:	0008e117          	auipc	sp,0x8e
    80002cd8:	32c10113          	addi	sp,sp,812 # 80091000 <begin_signature>
    80002cdc:	6305                	lui	t1,0x1
    80002cde:	d103031b          	addiw	t1,t1,-752 # d10 <_tbss_end+0xd10>
    80002ce2:	911a                	add	sp,sp,t1

0000000080002ce4 <i000000077b>:
    80002ce4:	a1215003          	lhu	zero,-1518(sp)

0000000080002ce8 <i000000077c>:
    80002ce8:	67480c9b          	addiw	s9,a6,1652
    80002cec:	0008e117          	auipc	sp,0x8e
    80002cf0:	31410113          	addi	sp,sp,788 # 80091000 <begin_signature>
    80002cf4:	6309                	lui	t1,0x2
    80002cf6:	b603031b          	addiw	t1,t1,-1184 # 1b60 <_tbss_end+0x1b60>
    80002cfa:	911a                	add	sp,sp,t1

0000000080002cfc <i000000077d>:
    80002cfc:	73aa                	ld	t2,168(sp)

0000000080002cfe <i000000077e>:
    80002cfe:	7c9e                	ld	s9,480(sp)

0000000080002d00 <i000000077f>:
    80002d00:	0ff0000f          	fence

0000000080002d04 <i0000000780>:
    80002d04:	0000100f          	fence.i

0000000080002d08 <i0000000781>:
    80002d08:	b4a15803          	lhu	a6,-1206(sp)

0000000080002d0c <i0000000782>:
    80002d0c:	20013703          	ld	a4,512(sp)

0000000080002d10 <i0000000783>:
    80002d10:	aca13c23          	sd	a0,-1320(sp)

0000000080002d14 <i0000000784>:
    80002d14:	0000100f          	fence.i

0000000080002d18 <i0000000785>:
    80002d18:	00e8083b          	addw	a6,a6,a4

0000000080002d1c <i0000000786>:
    80002d1c:	0ff0000f          	fence

0000000080002d20 <i0000000787>:
    80002d20:	43813783          	ld	a5,1080(sp)

0000000080002d24 <i0000000788>:
    80002d24:	4d310a03          	lb	s4,1235(sp)

0000000080002d28 <i0000000789>:
    80002d28:	43611723          	sh	s6,1070(sp)

0000000080002d2c <i000000078a>:
    80002d2c:	c3811d03          	lh	s10,-968(sp)

0000000080002d30 <i000000078b>:
    80002d30:	0ff0000f          	fence

0000000080002d34 <i000000078c>:
    80002d34:	008dd993          	srli	s3,s11,0x8

0000000080002d38 <i000000078d>:
    80002d38:	00f7983b          	sllw	a6,a5,a5

0000000080002d3c <i000000078e>:
    80002d3c:	02d85713          	srli	a4,a6,0x2d

0000000080002d40 <i000000078f>:
    80002d40:	95012783          	lw	a5,-1712(sp)

0000000080002d44 <i0000000790>:
    80002d44:	01f7579b          	srliw	a5,a4,0x1f
    80002d48:	0008e117          	auipc	sp,0x8e
    80002d4c:	2b810113          	addi	sp,sp,696 # 80091000 <begin_signature>
    80002d50:	630d                	lui	t1,0x3
    80002d52:	1e03031b          	addiw	t1,t1,480 # 31e0 <_tbss_end+0x31e0>
    80002d56:	911a                	add	sp,sp,t1

0000000080002d58 <i0000000791>:
    80002d58:	81013e03          	ld	t3,-2032(sp)

0000000080002d5c <i0000000792>:
    80002d5c:	0ff0000f          	fence

0000000080002d60 <i0000000793>:
    80002d60:	0096939b          	slliw	t2,a3,0x9

0000000080002d64 <i0000000794>:
    80002d64:	00e7173b          	sllw	a4,a4,a4

0000000080002d68 <i0000000795>:
    80002d68:	0ff0000f          	fence

0000000080002d6c <i0000000796>:
    80002d6c:	57010423          	sb	a6,1384(sp)

0000000080002d70 <i0000000797>:
    80002d70:	43475593          	srai	a1,a4,0x34

0000000080002d74 <i0000000798>:
    80002d74:	23711e23          	sh	s7,572(sp)

0000000080002d78 <i0000000799>:
    80002d78:	0ff0000f          	fence

0000000080002d7c <i000000079a>:
    80002d7c:	0000100f          	fence.i

0000000080002d80 <i000000079b>:
    80002d80:	00b55c3b          	srlw	s8,a0,a1

0000000080002d84 <i000000079c>:
    80002d84:	7bb104a3          	sb	s11,1961(sp)

0000000080002d88 <i000000079d>:
    80002d88:	77513823          	sd	s5,1904(sp)

0000000080002d8c <i000000079e>:
    80002d8c:	2cc12703          	lw	a4,716(sp)

0000000080002d90 <i000000079f>:
    80002d90:	0000100f          	fence.i
    80002d94:	0008e117          	auipc	sp,0x8e
    80002d98:	26c10113          	addi	sp,sp,620 # 80091000 <begin_signature>
    80002d9c:	630d                	lui	t1,0x3
    80002d9e:	9f83031b          	addiw	t1,t1,-1544 # 29f8 <_tbss_end+0x29f8>
    80002da2:	911a                	add	sp,sp,t1

0000000080002da4 <i00000007a0>:
    80002da4:	b7013703          	ld	a4,-1168(sp)

0000000080002da8 <i00000007a1>:
    80002da8:	dce13c23          	sd	a4,-552(sp)

0000000080002dac <i00000007a2>:
    80002dac:	02414703          	lbu	a4,36(sp)

0000000080002db0 <i00000007a3>:
    80002db0:	0000100f          	fence.i

0000000080002db4 <i00000007a4>:
    80002db4:	f2214683          	lbu	a3,-222(sp)

0000000080002db8 <i00000007a5>:
    80002db8:	33d11723          	sh	t4,814(sp)
    80002dbc:	0008e117          	auipc	sp,0x8e
    80002dc0:	24410113          	addi	sp,sp,580 # 80091000 <begin_signature>
    80002dc4:	630d                	lui	t1,0x3
    80002dc6:	7703031b          	addiw	t1,t1,1904 # 3770 <_tbss_end+0x3770>
    80002dca:	911a                	add	sp,sp,t1

0000000080002dcc <i00000007a6>:
    80002dcc:	85c16b03          	lwu	s6,-1956(sp)

0000000080002dd0 <i00000007a7>:
    80002dd0:	011b03bb          	addw	t2,s6,a7

0000000080002dd4 <i00000007a8>:
    80002dd4:	01c6d7bb          	srlw	a5,a3,t3

0000000080002dd8 <i00000007a9>:
    80002dd8:	03f85793          	srli	a5,a6,0x3f

0000000080002ddc <i00000007aa>:
    80002ddc:	0ff0000f          	fence

0000000080002de0 <i00000007ab>:
    80002de0:	49910803          	lb	a6,1177(sp)

0000000080002de4 <i00000007ac>:
    80002de4:	0000100f          	fence.i
    80002de8:	0008e117          	auipc	sp,0x8e
    80002dec:	21810113          	addi	sp,sp,536 # 80091000 <begin_signature>
    80002df0:	6309                	lui	t1,0x2
    80002df2:	9703031b          	addiw	t1,t1,-1680 # 1970 <_tbss_end+0x1970>
    80002df6:	911a                	add	sp,sp,t1

0000000080002df8 <i00000007ad>:
    80002df8:	b3813423          	sd	s8,-1240(sp)

0000000080002dfc <i00000007ae>:
    80002dfc:	0000100f          	fence.i

0000000080002e00 <i00000007af>:
    80002e00:	0ff0000f          	fence

0000000080002e04 <i00000007b0>:
    80002e04:	81e9081b          	addiw	a6,s2,-2018

0000000080002e08 <i00000007b1>:
    80002e08:	0000100f          	fence.i

0000000080002e0c <i00000007b2>:
    80002e0c:	0000100f          	fence.i

0000000080002e10 <i00000007b3>:
    80002e10:	0000100f          	fence.i

0000000080002e14 <i00000007b4>:
    80002e14:	00181493          	slli	s1,a6,0x1

0000000080002e18 <i00000007b5>:
    80002e18:	68c16803          	lwu	a6,1676(sp)
    80002e1c:	0008e117          	auipc	sp,0x8e
    80002e20:	1e410113          	addi	sp,sp,484 # 80091000 <begin_signature>
    80002e24:	6305                	lui	t1,0x1
    80002e26:	f003031b          	addiw	t1,t1,-256 # f00 <_tbss_end+0xf00>
    80002e2a:	911a                	add	sp,sp,t1

0000000080002e2c <i00000007b6>:
    80002e2c:	f4013f03          	ld	t5,-192(sp)

0000000080002e30 <i00000007b7>:
    80002e30:	0ff0000f          	fence

0000000080002e34 <i00000007b8>:
    80002e34:	0000100f          	fence.i

0000000080002e38 <i00000007b9>:
    80002e38:	9d411703          	lh	a4,-1580(sp)

0000000080002e3c <i00000007ba>:
    80002e3c:	04816783          	lwu	a5,72(sp)

0000000080002e40 <i00000007bb>:
    80002e40:	01981793          	slli	a5,a6,0x19

0000000080002e44 <i00000007bc>:
    80002e44:	4148d79b          	sraiw	a5,a7,0x14

0000000080002e48 <i00000007bd>:
    80002e48:	e6914403          	lbu	s0,-407(sp)

0000000080002e4c <i00000007be>:
    80002e4c:	4075df1b          	sraiw	t5,a1,0x7

0000000080002e50 <i00000007bf>:
    80002e50:	4087d81b          	sraiw	a6,a5,0x8

0000000080002e54 <i00000007c0>:
    80002e54:	0000100f          	fence.i

0000000080002e58 <i00000007c1>:
    80002e58:	0000100f          	fence.i

0000000080002e5c <i00000007c2>:
    80002e5c:	02b2                	slli	t0,t0,0xc

0000000080002e5e <i00000007c3>:
    80002e5e:	91416803          	lwu	a6,-1772(sp)
    80002e62:	0008e117          	auipc	sp,0x8e
    80002e66:	19e10113          	addi	sp,sp,414 # 80091000 <begin_signature>
    80002e6a:	6309                	lui	t1,0x2
    80002e6c:	e883031b          	addiw	t1,t1,-376 # 1e88 <_tbss_end+0x1e88>
    80002e70:	911a                	add	sp,sp,t1

0000000080002e72 <i00000007c4>:
    80002e72:	5c914703          	lbu	a4,1481(sp)

0000000080002e76 <i00000007c5>:
    80002e76:	0ff0000f          	fence

0000000080002e7a <i00000007c6>:
    80002e7a:	05816803          	lwu	a6,88(sp)

0000000080002e7e <i00000007c7>:
    80002e7e:	e1ba                	sd	a4,192(sp)

0000000080002e80 <i00000007c8>:
    80002e80:	30411703          	lh	a4,772(sp)

0000000080002e84 <i00000007c9>:
    80002e84:	40816b03          	lwu	s6,1032(sp)

0000000080002e88 <i00000007ca>:
    80002e88:	410807bb          	subw	a5,a6,a6

0000000080002e8c <i00000007cb>:
    80002e8c:	407d5d9b          	sraiw	s11,s10,0x7

0000000080002e90 <i00000007cc>:
    80002e90:	90411703          	lh	a4,-1788(sp)

0000000080002e94 <i00000007cd>:
    80002e94:	417e87bb          	subw	a5,t4,s7

0000000080002e98 <i00000007ce>:
    80002e98:	01be863b          	addw	a2,t4,s11
    80002e9c:	0008e117          	auipc	sp,0x8e
    80002ea0:	16410113          	addi	sp,sp,356 # 80091000 <begin_signature>
    80002ea4:	6305                	lui	t1,0x1
    80002ea6:	3303031b          	addiw	t1,t1,816 # 1330 <_tbss_end+0x1330>
    80002eaa:	911a                	add	sp,sp,t1

0000000080002eac <i00000007cf>:
    80002eac:	88411c03          	lh	s8,-1916(sp)

0000000080002eb0 <i00000007d0>:
    80002eb0:	44e11723          	sh	a4,1102(sp)

0000000080002eb4 <i00000007d1>:
    80002eb4:	0048d713          	srli	a4,a7,0x4
    80002eb8:	0008e117          	auipc	sp,0x8e
    80002ebc:	14810113          	addi	sp,sp,328 # 80091000 <begin_signature>
    80002ec0:	630d                	lui	t1,0x3
    80002ec2:	e283031b          	addiw	t1,t1,-472 # 2e28 <_tbss_end+0x2e28>
    80002ec6:	911a                	add	sp,sp,t1

0000000080002ec8 <i00000007d2>:
    80002ec8:	a6f13023          	sd	a5,-1440(sp)

0000000080002ecc <i00000007d3>:
    80002ecc:	0000100f          	fence.i

0000000080002ed0 <i00000007d4>:
    80002ed0:	0000100f          	fence.i

0000000080002ed4 <i00000007d5>:
    80002ed4:	01769793          	slli	a5,a3,0x17

0000000080002ed8 <i00000007d6>:
    80002ed8:	97815603          	lhu	a2,-1672(sp)

0000000080002edc <i00000007d7>:
    80002edc:	eb416403          	lwu	s0,-332(sp)

0000000080002ee0 <i00000007d8>:
    80002ee0:	eec15983          	lhu	s3,-276(sp)

0000000080002ee4 <i00000007d9>:
    80002ee4:	0000100f          	fence.i

0000000080002ee8 <i00000007da>:
    80002ee8:	0ff0000f          	fence

0000000080002eec <i00000007db>:
    80002eec:	47813903          	ld	s2,1144(sp)

0000000080002ef0 <i00000007dc>:
    80002ef0:	00d85713          	srli	a4,a6,0xd

0000000080002ef4 <i00000007dd>:
    80002ef4:	0000100f          	fence.i

0000000080002ef8 <i00000007de>:
    80002ef8:	0000100f          	fence.i

0000000080002efc <i00000007df>:
    80002efc:	408884bb          	subw	s1,a7,s0

0000000080002f00 <i00000007e0>:
    80002f00:	43d45813          	srai	a6,s0,0x3d

0000000080002f04 <i00000007e1>:
    80002f04:	0ff0000f          	fence

0000000080002f08 <i00000007e2>:
    80002f08:	17012a23          	sw	a6,372(sp)

0000000080002f0c <i00000007e3>:
    80002f0c:	01365c1b          	srliw	s8,a2,0x13

0000000080002f10 <i00000007e4>:
    80002f10:	f0410ba3          	sb	tp,-233(sp)

0000000080002f14 <i00000007e5>:
    80002f14:	91011823          	sh	a6,-1776(sp)

0000000080002f18 <i00000007e6>:
    80002f18:	67011123          	sh	a6,1634(sp)

0000000080002f1c <i00000007e7>:
    80002f1c:	81813d83          	ld	s11,-2024(sp)

0000000080002f20 <i00000007e8>:
    80002f20:	fc514803          	lbu	a6,-59(sp)

0000000080002f24 <i00000007e9>:
    80002f24:	c6013403          	ld	s0,-928(sp)

0000000080002f28 <i00000007ea>:
    80002f28:	41f8d31b          	sraiw	t1,a7,0x1f

0000000080002f2c <i00000007eb>:
    80002f2c:	0ff0000f          	fence

0000000080002f30 <i00000007ec>:
    80002f30:	4167579b          	sraiw	a5,a4,0x16

0000000080002f34 <i00000007ed>:
    80002f34:	f93e                	sd	a5,176(sp)

0000000080002f36 <i00000007ee>:
    80002f36:	0ff0000f          	fence

0000000080002f3a <i00000007ef>:
    80002f3a:	4098599b          	sraiw	s3,a6,0x9

0000000080002f3e <i00000007f0>:
    80002f3e:	0000100f          	fence.i

0000000080002f42 <i00000007f1>:
    80002f42:	0000100f          	fence.i

0000000080002f46 <i00000007f2>:
    80002f46:	01079abb          	sllw	s5,a5,a6
    80002f4a:	0008e117          	auipc	sp,0x8e
    80002f4e:	0b610113          	addi	sp,sp,182 # 80091000 <begin_signature>
    80002f52:	6309                	lui	t1,0x2
    80002f54:	fb83031b          	addiw	t1,t1,-72 # 1fb8 <_tbss_end+0x1fb8>
    80002f58:	911a                	add	sp,sp,t1

0000000080002f5a <i00000007f3>:
    80002f5a:	c5611323          	sh	s6,-954(sp)

0000000080002f5e <i00000007f4>:
    80002f5e:	0ff0000f          	fence

0000000080002f62 <i00000007f5>:
    80002f62:	014cd713          	srli	a4,s9,0x14

0000000080002f66 <i00000007f6>:
    80002f66:	41a407bb          	subw	a5,s0,s10

0000000080002f6a <i00000007f7>:
    80002f6a:	00c4503b          	srlw	zero,s0,a2

0000000080002f6e <i00000007f8>:
    80002f6e:	01379d1b          	slliw	s10,a5,0x13

0000000080002f72 <i00000007f9>:
    80002f72:	0ff0000f          	fence

0000000080002f76 <i00000007fa>:
    80002f76:	0000100f          	fence.i

0000000080002f7a <i00000007fb>:
    80002f7a:	c2e13823          	sd	a4,-976(sp)

0000000080002f7e <i00000007fc>:
    80002f7e:	0ff0000f          	fence

0000000080002f82 <i00000007fd>:
    80002f82:	95c16703          	lwu	a4,-1700(sp)

0000000080002f86 <i00000007fe>:
    80002f86:	61610423          	sb	s6,1544(sp)

0000000080002f8a <i00000007ff>:
    80002f8a:	01c79013          	slli	zero,a5,0x1c

0000000080002f8e <i0000000800>:
    80002f8e:	95416703          	lwu	a4,-1708(sp)

0000000080002f92 <i0000000801>:
    80002f92:	0ff0000f          	fence
    80002f96:	0008e117          	auipc	sp,0x8e
    80002f9a:	06a10113          	addi	sp,sp,106 # 80091000 <begin_signature>
    80002f9e:	6305                	lui	t1,0x1
    80002fa0:	a003031b          	addiw	t1,t1,-1536 # a00 <_tbss_end+0xa00>
    80002fa4:	911a                	add	sp,sp,t1

0000000080002fa6 <i0000000802>:
    80002fa6:	f9813783          	ld	a5,-104(sp)

0000000080002faa <i0000000803>:
    80002faa:	010817bb          	sllw	a5,a6,a6

0000000080002fae <i0000000804>:
    80002fae:	17016803          	lwu	a6,368(sp)
    80002fb2:	0008e117          	auipc	sp,0x8e
    80002fb6:	04e10113          	addi	sp,sp,78 # 80091000 <begin_signature>
    80002fba:	6309                	lui	t1,0x2
    80002fbc:	2203031b          	addiw	t1,t1,544 # 2220 <_tbss_end+0x2220>
    80002fc0:	911a                	add	sp,sp,t1

0000000080002fc2 <i0000000805>:
    80002fc2:	ffc16803          	lwu	a6,-4(sp)

0000000080002fc6 <i0000000806>:
    80002fc6:	0000100f          	fence.i

0000000080002fca <i0000000807>:
    80002fca:	df110b23          	sb	a7,-522(sp)

0000000080002fce <i0000000808>:
    80002fce:	0ff0000f          	fence

0000000080002fd2 <i0000000809>:
    80002fd2:	418bd83b          	sraw	a6,s7,s8

0000000080002fd6 <i000000080a>:
    80002fd6:	4198d79b          	sraiw	a5,a7,0x19

0000000080002fda <i000000080b>:
    80002fda:	0000100f          	fence.i

0000000080002fde <i000000080c>:
    80002fde:	4156dfbb          	sraw	t6,a3,s5
    80002fe2:	0008e117          	auipc	sp,0x8e
    80002fe6:	01e10113          	addi	sp,sp,30 # 80091000 <begin_signature>
    80002fea:	6305                	lui	t1,0x1
    80002fec:	1d03031b          	addiw	t1,t1,464 # 11d0 <_tbss_end+0x11d0>
    80002ff0:	911a                	add	sp,sp,t1

0000000080002ff2 <i000000080d>:
    80002ff2:	7862                	ld	a6,56(sp)

0000000080002ff4 <i000000080e>:
    80002ff4:	bf813983          	ld	s3,-1032(sp)

0000000080002ff8 <i000000080f>:
    80002ff8:	0ec10883          	lb	a7,236(sp)

0000000080002ffc <i0000000810>:
    80002ffc:	0ff0000f          	fence

0000000080003000 <i0000000811>:
    80003000:	70815f03          	lhu	t5,1800(sp)

0000000080003004 <i0000000812>:
    80003004:	01a7971b          	slliw	a4,a5,0x1a
    80003008:	0008e117          	auipc	sp,0x8e
    8000300c:	ff810113          	addi	sp,sp,-8 # 80091000 <begin_signature>
    80003010:	6305                	lui	t1,0x1
    80003012:	d003031b          	addiw	t1,t1,-768 # d00 <_tbss_end+0xd00>
    80003016:	911a                	add	sp,sp,t1

0000000080003018 <i0000000813>:
    80003018:	12c16703          	lwu	a4,300(sp)

000000008000301c <i0000000814>:
    8000301c:	1786                	slli	a5,a5,0x21

000000008000301e <i0000000815>:
    8000301e:	71013823          	sd	a6,1808(sp)

0000000080003022 <i0000000816>:
    80003022:	0000100f          	fence.i

0000000080003026 <i0000000817>:
    80003026:	a6e10923          	sb	a4,-1422(sp)

000000008000302a <i0000000818>:
    8000302a:	04a14a83          	lbu	s5,74(sp)

000000008000302e <i0000000819>:
    8000302e:	4047581b          	sraiw	a6,a4,0x4

0000000080003032 <i000000081a>:
    80003032:	22a14883          	lbu	a7,554(sp)

0000000080003036 <i000000081b>:
    80003036:	0ff0000f          	fence

000000008000303a <i000000081c>:
    8000303a:	0ff0000f          	fence
    8000303e:	0008e117          	auipc	sp,0x8e
    80003042:	fc210113          	addi	sp,sp,-62 # 80091000 <begin_signature>
    80003046:	6305                	lui	t1,0x1
    80003048:	8503031b          	addiw	t1,t1,-1968 # 850 <_tbss_end+0x850>
    8000304c:	911a                	add	sp,sp,t1

000000008000304e <i000000081d>:
    8000304e:	e2910803          	lb	a6,-471(sp)

0000000080003052 <i000000081e>:
    80003052:	bd813b83          	ld	s7,-1064(sp)

0000000080003056 <i000000081f>:
    80003056:	00e816bb          	sllw	a3,a6,a4

000000008000305a <i0000000820>:
    8000305a:	0ff0000f          	fence
    8000305e:	0008e117          	auipc	sp,0x8e
    80003062:	fa210113          	addi	sp,sp,-94 # 80091000 <begin_signature>
    80003066:	6309                	lui	t1,0x2
    80003068:	1d83031b          	addiw	t1,t1,472 # 21d8 <_tbss_end+0x21d8>
    8000306c:	911a                	add	sp,sp,t1

000000008000306e <i0000000821>:
    8000306e:	d7015a83          	lhu	s5,-656(sp)

0000000080003072 <i0000000822>:
    80003072:	41d4d81b          	sraiw	a6,s1,0x1d

0000000080003076 <i0000000823>:
    80003076:	ed813703          	ld	a4,-296(sp)

000000008000307a <i0000000824>:
    8000307a:	9f9d                	subw	a5,a5,a5

000000008000307c <i0000000825>:
    8000307c:	01b85b1b          	srliw	s6,a6,0x1b

0000000080003080 <i0000000826>:
    80003080:	64e13823          	sd	a4,1616(sp)
    80003084:	0008e117          	auipc	sp,0x8e
    80003088:	f7c10113          	addi	sp,sp,-132 # 80091000 <begin_signature>
    8000308c:	630d                	lui	t1,0x3
    8000308e:	9f83031b          	addiw	t1,t1,-1544 # 29f8 <_tbss_end+0x29f8>
    80003092:	911a                	add	sp,sp,t1

0000000080003094 <i0000000827>:
    80003094:	24816e03          	lwu	t3,584(sp)
    80003098:	0008e117          	auipc	sp,0x8e
    8000309c:	f6810113          	addi	sp,sp,-152 # 80091000 <begin_signature>
    800030a0:	6305                	lui	t1,0x1
    800030a2:	2f03031b          	addiw	t1,t1,752 # 12f0 <_tbss_end+0x12f0>
    800030a6:	911a                	add	sp,sp,t1

00000000800030a8 <i0000000828>:
    800030a8:	27010003          	lb	zero,624(sp)

00000000800030ac <i0000000829>:
    800030ac:	8d313c23          	sd	s3,-1832(sp)

00000000800030b0 <i000000082a>:
    800030b0:	85416703          	lwu	a4,-1964(sp)

00000000800030b4 <i000000082b>:
    800030b4:	41012f03          	lw	t5,1040(sp)

00000000800030b8 <i000000082c>:
    800030b8:	0ff0000f          	fence

00000000800030bc <i000000082d>:
    800030bc:	0000100f          	fence.i

00000000800030c0 <i000000082e>:
    800030c0:	40e857bb          	sraw	a5,a6,a4

00000000800030c4 <i000000082f>:
    800030c4:	0000100f          	fence.i

00000000800030c8 <i0000000830>:
    800030c8:	0000100f          	fence.i

00000000800030cc <i0000000831>:
    800030cc:	cdbe                	sw	a5,216(sp)

00000000800030ce <i0000000832>:
    800030ce:	0000100f          	fence.i

00000000800030d2 <i0000000833>:
    800030d2:	0ff0000f          	fence

00000000800030d6 <i0000000834>:
    800030d6:	40ded83b          	sraw	a6,t4,a3

00000000800030da <i0000000835>:
    800030da:	9fa10803          	lb	a6,-1542(sp)
    800030de:	0008e117          	auipc	sp,0x8e
    800030e2:	f2210113          	addi	sp,sp,-222 # 80091000 <begin_signature>
    800030e6:	630d                	lui	t1,0x3
    800030e8:	ec03031b          	addiw	t1,t1,-320 # 2ec0 <_tbss_end+0x2ec0>
    800030ec:	911a                	add	sp,sp,t1

00000000800030ee <i0000000836>:
    800030ee:	dc012703          	lw	a4,-576(sp)

00000000800030f2 <i0000000837>:
    800030f2:	a7013783          	ld	a5,-1424(sp)

00000000800030f6 <i0000000838>:
    800030f6:	0ff0000f          	fence

00000000800030fa <i0000000839>:
    800030fa:	0ff0000f          	fence

00000000800030fe <i000000083a>:
    800030fe:	70512823          	sw	t0,1808(sp)

0000000080003102 <i000000083b>:
    80003102:	1e114703          	lbu	a4,481(sp)
    80003106:	0008e117          	auipc	sp,0x8e
    8000310a:	efa10113          	addi	sp,sp,-262 # 80091000 <begin_signature>
    8000310e:	630d                	lui	t1,0x3
    80003110:	fd83031b          	addiw	t1,t1,-40 # 2fd8 <_tbss_end+0x2fd8>
    80003114:	911a                	add	sp,sp,t1

0000000080003116 <i000000083c>:
    80003116:	92110183          	lb	gp,-1759(sp)

000000008000311a <i000000083d>:
    8000311a:	0ff0000f          	fence

000000008000311e <i000000083e>:
    8000311e:	ba016703          	lwu	a4,-1120(sp)

0000000080003122 <i000000083f>:
    80003122:	c6f12e23          	sw	a5,-900(sp)

0000000080003126 <i0000000840>:
    80003126:	0000100f          	fence.i

000000008000312a <i0000000841>:
    8000312a:	6d811703          	lh	a4,1752(sp)

000000008000312e <i0000000842>:
    8000312e:	daa11803          	lh	a6,-598(sp)

0000000080003132 <i0000000843>:
    80003132:	0ff0000f          	fence

0000000080003136 <i0000000844>:
    80003136:	01a289bb          	addw	s3,t0,s10

000000008000313a <i0000000845>:
    8000313a:	41c5571b          	sraiw	a4,a0,0x1c

000000008000313e <i0000000846>:
    8000313e:	405f573b          	sraw	a4,t5,t0

0000000080003142 <i0000000847>:
    80003142:	0ff0000f          	fence

0000000080003146 <i0000000848>:
    80003146:	4103dd13          	srai	s10,t2,0x10

000000008000314a <i0000000849>:
    8000314a:	0000100f          	fence.i

000000008000314e <i000000084a>:
    8000314e:	41c05a9b          	sraiw	s5,zero,0x1c

0000000080003152 <i000000084b>:
    80003152:	3ae11783          	lh	a5,942(sp)

0000000080003156 <i000000084c>:
    80003156:	0ff0000f          	fence

000000008000315a <i000000084d>:
    8000315a:	bd611823          	sh	s6,-1072(sp)

000000008000315e <i000000084e>:
    8000315e:	38f13423          	sd	a5,904(sp)

0000000080003162 <i000000084f>:
    80003162:	0ff0000f          	fence

0000000080003166 <i0000000850>:
    80003166:	0ff0000f          	fence

000000008000316a <i0000000851>:
    8000316a:	0000100f          	fence.i

000000008000316e <i0000000852>:
    8000316e:	0000100f          	fence.i

0000000080003172 <i0000000853>:
    80003172:	00385793          	srli	a5,a6,0x3

0000000080003176 <i0000000854>:
    80003176:	e1f8081b          	addiw	a6,a6,-481

000000008000317a <i0000000855>:
    8000317a:	018d951b          	slliw	a0,s11,0x18

000000008000317e <i0000000856>:
    8000317e:	0107873b          	addw	a4,a5,a6

0000000080003182 <i0000000857>:
    80003182:	46f13823          	sd	a5,1136(sp)

0000000080003186 <i0000000858>:
    80003186:	fe99851b          	addiw	a0,s3,-23

000000008000318a <i0000000859>:
    8000318a:	0ff0000f          	fence

000000008000318e <i000000085a>:
    8000318e:	f0013a03          	ld	s4,-256(sp)

0000000080003192 <i000000085b>:
    80003192:	ff013483          	ld	s1,-16(sp)

0000000080003196 <i000000085c>:
    80003196:	f3611383          	lh	t2,-202(sp)

